TN:
SF:/home/sapho/portfolio-work/vigenere-victory/src/App/main.cpp
FN:19,main
FN:25,_Z41__static_initialization_and_destruction_0ii
FN:25,_GLOBAL__sub_I_main
FNDA:1,main
FNDA:1,_GLOBAL__sub_I_main
FNDA:1,_Z41__static_initialization_and_destruction_0ii
FNF:3
FNH:3
DA:19,1
DA:21,2
DA:22,1
DA:24,1
DA:25,3
LF:5
LH:5
end_of_record
SF:/usr/include/c++/5/bits/move.h
FN:76,_ZSt7forwardISt14default_deleteI8VigenereEEOT_RNSt16remove_referenceIS3_E4typeE
FN:76,_ZSt7forwardIRP8VigenereEOT_RNSt16remove_referenceIS3_E4typeE
FNDA:3,_ZSt7forwardIRP8VigenereEOT_RNSt16remove_referenceIS3_E4typeE
FNDA:4,_ZSt7forwardISt14default_deleteI8VigenereEEOT_RNSt16remove_referenceIS3_E4typeE
FNF:2
FNH:2
DA:76,7
DA:77,7
LF:2
LH:2
end_of_record
SF:/usr/include/c++/5/bits/unique_ptr.h
FN:70,_ZNKSt14default_deleteI8VigenereEclEPS0_
FN:169,_ZNSt10unique_ptrI8VigenereSt14default_deleteIS0_EEC2EPS0_
FN:232,_ZNSt10unique_ptrI8VigenereSt14default_deleteIS0_EED2Ev
FN:296,_ZNKSt10unique_ptrI8VigenereSt14default_deleteIS0_EEptEv
FN:304,_ZNKSt10unique_ptrI8VigenereSt14default_deleteIS0_EE3getEv
FN:309,_ZNSt10unique_ptrI8VigenereSt14default_deleteIS0_EE11get_deleterEv
FN:764,_ZSt11make_uniqueI8VigenereJEENSt9_MakeUniqIT_E15__single_objectEDpOT0_
FNDA:1,_ZNKSt14default_deleteI8VigenereEclEPS0_
FNDA:1,_ZNSt10unique_ptrI8VigenereSt14default_deleteIS0_EEC2EPS0_
FNDA:1,_ZNSt10unique_ptrI8VigenereSt14default_deleteIS0_EED2Ev
FNDA:1,_ZNKSt10unique_ptrI8VigenereSt14default_deleteIS0_EEptEv
FNDA:1,_ZNKSt10unique_ptrI8VigenereSt14default_deleteIS0_EE3getEv
FNDA:1,_ZNSt10unique_ptrI8VigenereSt14default_deleteIS0_EE11get_deleterEv
FNDA:1,_ZSt11make_uniqueI8VigenereJEENSt9_MakeUniqIT_E15__single_objectEDpOT0_
FNF:7
FNH:7
DA:70,1
DA:76,1
DA:77,1
DA:169,1
DA:170,1
DA:172,1
DA:232,1
DA:234,1
DA:235,1
DA:236,1
DA:237,1
DA:238,1
DA:296,1
DA:299,1
DA:304,1
DA:305,1
DA:309,1
DA:310,1
DA:764,1
DA:765,1
LF:20
LH:20
end_of_record
SF:/usr/include/c++/5/iostream
DA:74,1
LF:1
LH:1
end_of_record
SF:/usr/include/c++/5/tuple
FN:68,_ZNSt10_Head_baseILm1ESt14default_deleteI8VigenereELb1EEC2IS2_EEOT_
FN:95,_ZNSt10_Head_baseILm1ESt14default_deleteI8VigenereELb1EE7_M_headERS3_
FN:114,_ZNSt10_Head_baseILm0EP8VigenereLb0EEC2IRS1_EEOT_
FN:142,_ZNSt10_Head_baseILm0EP8VigenereLb0EE7_M_headERS2_
FN:145,_ZNSt10_Head_baseILm0EP8VigenereLb0EE7_M_headERKS2_
FN:190,_ZNSt11_Tuple_implILm0EJP8VigenereSt14default_deleteIS0_EEE7_M_headERS4_
FN:193,_ZNSt11_Tuple_implILm0EJP8VigenereSt14default_deleteIS0_EEE7_M_headERKS4_
FN:211,_ZNSt11_Tuple_implILm0EJP8VigenereSt14default_deleteIS0_EEEC2IRS1_JS3_EvEEOT_DpOT0_
FN:347,_ZNSt11_Tuple_implILm1EJSt14default_deleteI8VigenereEEE7_M_headERS3_
FN:361,_ZNSt11_Tuple_implILm1EJSt14default_deleteI8VigenereEEEC2IS2_EEOT_
FN:612,_ZNSt5tupleIJP8VigenereSt14default_deleteIS0_EEEC2IRS1_S3_vEEOT_OT0_
FN:821,_ZSt12__get_helperILm1ESt14default_deleteI8VigenereEJEERT0_RSt11_Tuple_implIXT_EJS3_DpT1_EE
FN:821,_ZSt12__get_helperILm0EP8VigenereJSt14default_deleteIS0_EEERT0_RSt11_Tuple_implIXT_EJS4_DpT1_EE
FN:826,_ZSt12__get_helperILm0EP8VigenereJSt14default_deleteIS0_EEERKT0_RKSt11_Tuple_implIXT_EJS4_DpT1_EE
FN:832,_ZSt3getILm1EJP8VigenereSt14default_deleteIS0_EEERNSt13tuple_elementIXT_ESt5tupleIJDpT0_EEE4typeERS8_
FN:832,_ZSt3getILm0EJP8VigenereSt14default_deleteIS0_EEERNSt13tuple_elementIXT_ESt5tupleIJDpT0_EEE4typeERS8_
FN:838,_ZSt3getILm0EJP8VigenereSt14default_deleteIS0_EEERKNSt13tuple_elementIXT_ESt5tupleIJDpT0_EEE4typeERKS8_
FNDA:1,_ZNSt10_Head_baseILm1ESt14default_deleteI8VigenereELb1EEC2IS2_EEOT_
FNDA:1,_ZNSt10_Head_baseILm1ESt14default_deleteI8VigenereELb1EE7_M_headERS3_
FNDA:1,_ZNSt10_Head_baseILm0EP8VigenereLb0EEC2IRS1_EEOT_
FNDA:1,_ZNSt10_Head_baseILm0EP8VigenereLb0EE7_M_headERS2_
FNDA:1,_ZNSt10_Head_baseILm0EP8VigenereLb0EE7_M_headERKS2_
FNDA:1,_ZNSt11_Tuple_implILm0EJP8VigenereSt14default_deleteIS0_EEE7_M_headERS4_
FNDA:1,_ZNSt11_Tuple_implILm0EJP8VigenereSt14default_deleteIS0_EEE7_M_headERKS4_
FNDA:1,_ZNSt11_Tuple_implILm0EJP8VigenereSt14default_deleteIS0_EEEC2IRS1_JS3_EvEEOT_DpOT0_
FNDA:1,_ZNSt11_Tuple_implILm1EJSt14default_deleteI8VigenereEEE7_M_headERS3_
FNDA:1,_ZNSt11_Tuple_implILm1EJSt14default_deleteI8VigenereEEEC2IS2_EEOT_
FNDA:1,_ZNSt5tupleIJP8VigenereSt14default_deleteIS0_EEEC2IRS1_S3_vEEOT_OT0_
FNDA:1,_ZSt12__get_helperILm1ESt14default_deleteI8VigenereEJEERT0_RSt11_Tuple_implIXT_EJS3_DpT1_EE
FNDA:1,_ZSt12__get_helperILm0EP8VigenereJSt14default_deleteIS0_EEERT0_RSt11_Tuple_implIXT_EJS4_DpT1_EE
FNDA:1,_ZSt12__get_helperILm0EP8VigenereJSt14default_deleteIS0_EEERKT0_RKSt11_Tuple_implIXT_EJS4_DpT1_EE
FNDA:1,_ZSt3getILm1EJP8VigenereSt14default_deleteIS0_EEERNSt13tuple_elementIXT_ESt5tupleIJDpT0_EEE4typeERS8_
FNDA:1,_ZSt3getILm0EJP8VigenereSt14default_deleteIS0_EEERNSt13tuple_elementIXT_ESt5tupleIJDpT0_EEE4typeERS8_
FNDA:1,_ZSt3getILm0EJP8VigenereSt14default_deleteIS0_EEERKNSt13tuple_elementIXT_ESt5tupleIJDpT0_EEE4typeERKS8_
FNF:17
FNH:17
DA:68,1
DA:69,1
DA:95,1
DA:114,1
DA:115,1
DA:142,1
DA:145,1
DA:190,1
DA:193,1
DA:211,1
DA:212,1
DA:213,1
DA:347,1
DA:361,1
DA:362,1
DA:612,1
DA:613,1
DA:821,2
DA:822,2
DA:826,1
DA:827,1
DA:832,2
DA:833,2
DA:838,1
DA:839,1
LF:25
LH:25
end_of_record
TN:
SF:/home/sapho/portfolio-work/vigenere-victory/src/Lib1/Vigenere.cpp
FN:4,_ZN8Vigenere13TestTwentyTwoEv
FN:8,_ZN8Vigenere5StartEv
FN:12,_ZN8VigenereC2Ev
FN:16,_ZN8VigenereD2Ev
FNDA:1,_ZN8Vigenere13TestTwentyTwoEv
FNDA:1,_ZN8Vigenere5StartEv
FNDA:3,_ZN8VigenereC2Ev
FNDA:3,_ZN8VigenereD2Ev
FNF:4
FNH:4
DA:4,1
DA:5,1
DA:8,1
DA:9,1
DA:10,1
DA:12,3
DA:14,3
DA:16,3
LF:8
LH:8
end_of_record
SF:/usr/include/c++/5/bits/move.h
FN:76,_ZSt7forwardIRP13Vigenere_ImplEOT_RNSt16remove_referenceIS3_E4typeE
FN:76,_ZSt7forwardISt14default_deleteI13Vigenere_ImplEEOT_RNSt16remove_referenceIS3_E4typeE
FNDA:9,_ZSt7forwardIRP13Vigenere_ImplEOT_RNSt16remove_referenceIS3_E4typeE
FNDA:12,_ZSt7forwardISt14default_deleteI13Vigenere_ImplEEOT_RNSt16remove_referenceIS3_E4typeE
FNF:2
FNH:2
DA:76,21
DA:77,21
LF:2
LH:2
end_of_record
SF:/usr/include/c++/5/bits/unique_ptr.h
FN:70,_ZNKSt14default_deleteI13Vigenere_ImplEclEPS0_
FN:169,_ZNSt10unique_ptrI13Vigenere_ImplSt14default_deleteIS0_EEC2EPS0_
FN:232,_ZNSt10unique_ptrI13Vigenere_ImplSt14default_deleteIS0_EED2Ev
FN:296,_ZNKSt10unique_ptrI13Vigenere_ImplSt14default_deleteIS0_EEptEv
FN:304,_ZNKSt10unique_ptrI13Vigenere_ImplSt14default_deleteIS0_EE3getEv
FN:309,_ZNSt10unique_ptrI13Vigenere_ImplSt14default_deleteIS0_EE11get_deleterEv
FN:764,_ZSt11make_uniqueI13Vigenere_ImplJEENSt9_MakeUniqIT_E15__single_objectEDpOT0_
FNDA:3,_ZNKSt14default_deleteI13Vigenere_ImplEclEPS0_
FNDA:3,_ZNSt10unique_ptrI13Vigenere_ImplSt14default_deleteIS0_EEC2EPS0_
FNDA:3,_ZNSt10unique_ptrI13Vigenere_ImplSt14default_deleteIS0_EED2Ev
FNDA:1,_ZNKSt10unique_ptrI13Vigenere_ImplSt14default_deleteIS0_EEptEv
FNDA:1,_ZNKSt10unique_ptrI13Vigenere_ImplSt14default_deleteIS0_EE3getEv
FNDA:3,_ZNSt10unique_ptrI13Vigenere_ImplSt14default_deleteIS0_EE11get_deleterEv
FNDA:3,_ZSt11make_uniqueI13Vigenere_ImplJEENSt9_MakeUniqIT_E15__single_objectEDpOT0_
FNF:7
FNH:7
DA:70,3
DA:76,3
DA:77,3
DA:169,3
DA:170,3
DA:172,3
DA:232,3
DA:234,3
DA:235,3
DA:236,3
DA:237,3
DA:238,3
DA:296,1
DA:299,1
DA:304,1
DA:305,1
DA:309,3
DA:310,3
DA:764,3
DA:765,3
LF:20
LH:20
end_of_record
SF:/usr/include/c++/5/tuple
FN:68,_ZNSt10_Head_baseILm1ESt14default_deleteI13Vigenere_ImplELb1EEC2IS2_EEOT_
FN:95,_ZNSt10_Head_baseILm1ESt14default_deleteI13Vigenere_ImplELb1EE7_M_headERS3_
FN:114,_ZNSt10_Head_baseILm0EP13Vigenere_ImplLb0EEC2IRS1_EEOT_
FN:142,_ZNSt10_Head_baseILm0EP13Vigenere_ImplLb0EE7_M_headERS2_
FN:145,_ZNSt10_Head_baseILm0EP13Vigenere_ImplLb0EE7_M_headERKS2_
FN:190,_ZNSt11_Tuple_implILm0EJP13Vigenere_ImplSt14default_deleteIS0_EEE7_M_headERS4_
FN:193,_ZNSt11_Tuple_implILm0EJP13Vigenere_ImplSt14default_deleteIS0_EEE7_M_headERKS4_
FN:211,_ZNSt11_Tuple_implILm0EJP13Vigenere_ImplSt14default_deleteIS0_EEEC2IRS1_JS3_EvEEOT_DpOT0_
FN:347,_ZNSt11_Tuple_implILm1EJSt14default_deleteI13Vigenere_ImplEEE7_M_headERS3_
FN:361,_ZNSt11_Tuple_implILm1EJSt14default_deleteI13Vigenere_ImplEEEC2IS2_EEOT_
FN:612,_ZNSt5tupleIJP13Vigenere_ImplSt14default_deleteIS0_EEEC2IRS1_S3_vEEOT_OT0_
FN:821,_ZSt12__get_helperILm1ESt14default_deleteI13Vigenere_ImplEJEERT0_RSt11_Tuple_implIXT_EJS3_DpT1_EE
FN:821,_ZSt12__get_helperILm0EP13Vigenere_ImplJSt14default_deleteIS0_EEERT0_RSt11_Tuple_implIXT_EJS4_DpT1_EE
FN:826,_ZSt12__get_helperILm0EP13Vigenere_ImplJSt14default_deleteIS0_EEERKT0_RKSt11_Tuple_implIXT_EJS4_DpT1_EE
FN:832,_ZSt3getILm0EJP13Vigenere_ImplSt14default_deleteIS0_EEERNSt13tuple_elementIXT_ESt5tupleIJDpT0_EEE4typeERS8_
FN:832,_ZSt3getILm1EJP13Vigenere_ImplSt14default_deleteIS0_EEERNSt13tuple_elementIXT_ESt5tupleIJDpT0_EEE4typeERS8_
FN:838,_ZSt3getILm0EJP13Vigenere_ImplSt14default_deleteIS0_EEERKNSt13tuple_elementIXT_ESt5tupleIJDpT0_EEE4typeERKS8_
FNDA:3,_ZNSt10_Head_baseILm1ESt14default_deleteI13Vigenere_ImplELb1EEC2IS2_EEOT_
FNDA:3,_ZNSt10_Head_baseILm1ESt14default_deleteI13Vigenere_ImplELb1EE7_M_headERS3_
FNDA:3,_ZNSt10_Head_baseILm0EP13Vigenere_ImplLb0EEC2IRS1_EEOT_
FNDA:3,_ZNSt10_Head_baseILm0EP13Vigenere_ImplLb0EE7_M_headERS2_
FNDA:1,_ZNSt10_Head_baseILm0EP13Vigenere_ImplLb0EE7_M_headERKS2_
FNDA:3,_ZNSt11_Tuple_implILm0EJP13Vigenere_ImplSt14default_deleteIS0_EEE7_M_headERS4_
FNDA:1,_ZNSt11_Tuple_implILm0EJP13Vigenere_ImplSt14default_deleteIS0_EEE7_M_headERKS4_
FNDA:3,_ZNSt11_Tuple_implILm0EJP13Vigenere_ImplSt14default_deleteIS0_EEEC2IRS1_JS3_EvEEOT_DpOT0_
FNDA:3,_ZNSt11_Tuple_implILm1EJSt14default_deleteI13Vigenere_ImplEEE7_M_headERS3_
FNDA:3,_ZNSt11_Tuple_implILm1EJSt14default_deleteI13Vigenere_ImplEEEC2IS2_EEOT_
FNDA:3,_ZNSt5tupleIJP13Vigenere_ImplSt14default_deleteIS0_EEEC2IRS1_S3_vEEOT_OT0_
FNDA:3,_ZSt12__get_helperILm1ESt14default_deleteI13Vigenere_ImplEJEERT0_RSt11_Tuple_implIXT_EJS3_DpT1_EE
FNDA:3,_ZSt12__get_helperILm0EP13Vigenere_ImplJSt14default_deleteIS0_EEERT0_RSt11_Tuple_implIXT_EJS4_DpT1_EE
FNDA:1,_ZSt12__get_helperILm0EP13Vigenere_ImplJSt14default_deleteIS0_EEERKT0_RKSt11_Tuple_implIXT_EJS4_DpT1_EE
FNDA:3,_ZSt3getILm1EJP13Vigenere_ImplSt14default_deleteIS0_EEERNSt13tuple_elementIXT_ESt5tupleIJDpT0_EEE4typeERS8_
FNDA:3,_ZSt3getILm0EJP13Vigenere_ImplSt14default_deleteIS0_EEERNSt13tuple_elementIXT_ESt5tupleIJDpT0_EEE4typeERS8_
FNDA:1,_ZSt3getILm0EJP13Vigenere_ImplSt14default_deleteIS0_EEERKNSt13tuple_elementIXT_ESt5tupleIJDpT0_EEE4typeERKS8_
FNF:17
FNH:17
DA:68,3
DA:69,3
DA:95,3
DA:114,3
DA:115,3
DA:142,3
DA:145,1
DA:190,3
DA:193,1
DA:211,3
DA:212,3
DA:213,3
DA:347,3
DA:361,3
DA:362,3
DA:612,3
DA:613,3
DA:821,6
DA:822,6
DA:826,1
DA:827,1
DA:832,6
DA:833,6
DA:838,1
DA:839,1
LF:25
LH:25
end_of_record
TN:
SF:/home/sapho/portfolio-work/vigenere-victory/include/Lib1/Input.h
FN:14,_ZN5InputD2Ev
FNDA:4,_ZN5InputD2Ev
FNF:1
FNH:1
DA:14,4
LF:1
LH:1
end_of_record
SF:/home/sapho/portfolio-work/vigenere-victory/src/Lib1/Input.cpp
FN:3,_ZN5Input13HasCiphertextEv
FN:7,_ZN5Input13GetCiphertextB5cxx11Ev
FN:11,_ZN5InputC2Ev
FN:14,_ZN5Input5StartEv
FNDA:0,_ZN5Input13HasCiphertextEv
FNDA:0,_ZN5Input13GetCiphertextB5cxx11Ev
FNDA:4,_ZN5InputC2Ev
FNDA:0,_ZN5Input5StartEv
FNF:4
FNH:1
DA:3,0
DA:4,0
DA:7,0
DA:8,0
DA:11,4
DA:12,4
DA:14,0
DA:23,0
LF:8
LH:2
end_of_record
SF:/usr/include/c++/5/bits/move.h
FN:76,_ZSt7forwardISt14default_deleteI9MatlabAPIEEOT_RNSt16remove_referenceIS3_E4typeE
FN:76,_ZSt7forwardIRP9MatlabAPIEOT_RNSt16remove_referenceIS3_E4typeE
FNDA:12,_ZSt7forwardIRP9MatlabAPIEOT_RNSt16remove_referenceIS3_E4typeE
FNDA:16,_ZSt7forwardISt14default_deleteI9MatlabAPIEEOT_RNSt16remove_referenceIS3_E4typeE
FNF:2
FNH:2
DA:76,28
DA:77,28
LF:2
LH:2
end_of_record
SF:/usr/include/c++/5/bits/unique_ptr.h
FN:70,_ZNKSt14default_deleteI9MatlabAPIEclEPS0_
FN:169,_ZNSt10unique_ptrI9MatlabAPISt14default_deleteIS0_EEC2EPS0_
FN:232,_ZNSt10unique_ptrI9MatlabAPISt14default_deleteIS0_EED2Ev
FN:309,_ZNSt10unique_ptrI9MatlabAPISt14default_deleteIS0_EE11get_deleterEv
FN:764,_ZSt11make_uniqueI9MatlabAPIJEENSt9_MakeUniqIT_E15__single_objectEDpOT0_
FNDA:4,_ZNKSt14default_deleteI9MatlabAPIEclEPS0_
FNDA:4,_ZNSt10unique_ptrI9MatlabAPISt14default_deleteIS0_EEC2EPS0_
FNDA:4,_ZNSt10unique_ptrI9MatlabAPISt14default_deleteIS0_EED2Ev
FNDA:4,_ZNSt10unique_ptrI9MatlabAPISt14default_deleteIS0_EE11get_deleterEv
FNDA:4,_ZSt11make_uniqueI9MatlabAPIJEENSt9_MakeUniqIT_E15__single_objectEDpOT0_
FNF:5
FNH:5
DA:70,4
DA:76,4
DA:77,4
DA:169,4
DA:170,4
DA:172,4
DA:232,4
DA:234,4
DA:235,4
DA:236,4
DA:237,4
DA:238,4
DA:309,4
DA:310,4
DA:764,4
DA:765,4
LF:16
LH:16
end_of_record
SF:/usr/include/c++/5/tuple
FN:68,_ZNSt10_Head_baseILm1ESt14default_deleteI9MatlabAPIELb1EEC2IS2_EEOT_
FN:95,_ZNSt10_Head_baseILm1ESt14default_deleteI9MatlabAPIELb1EE7_M_headERS3_
FN:114,_ZNSt10_Head_baseILm0EP9MatlabAPILb0EEC2IRS1_EEOT_
FN:142,_ZNSt10_Head_baseILm0EP9MatlabAPILb0EE7_M_headERS2_
FN:190,_ZNSt11_Tuple_implILm0EJP9MatlabAPISt14default_deleteIS0_EEE7_M_headERS4_
FN:211,_ZNSt11_Tuple_implILm0EJP9MatlabAPISt14default_deleteIS0_EEEC2IRS1_JS3_EvEEOT_DpOT0_
FN:347,_ZNSt11_Tuple_implILm1EJSt14default_deleteI9MatlabAPIEEE7_M_headERS3_
FN:361,_ZNSt11_Tuple_implILm1EJSt14default_deleteI9MatlabAPIEEEC2IS2_EEOT_
FN:612,_ZNSt5tupleIJP9MatlabAPISt14default_deleteIS0_EEEC2IRS1_S3_vEEOT_OT0_
FN:821,_ZSt12__get_helperILm0EP9MatlabAPIJSt14default_deleteIS0_EEERT0_RSt11_Tuple_implIXT_EJS4_DpT1_EE
FN:821,_ZSt12__get_helperILm1ESt14default_deleteI9MatlabAPIEJEERT0_RSt11_Tuple_implIXT_EJS3_DpT1_EE
FN:832,_ZSt3getILm1EJP9MatlabAPISt14default_deleteIS0_EEERNSt13tuple_elementIXT_ESt5tupleIJDpT0_EEE4typeERS8_
FN:832,_ZSt3getILm0EJP9MatlabAPISt14default_deleteIS0_EEERNSt13tuple_elementIXT_ESt5tupleIJDpT0_EEE4typeERS8_
FNDA:4,_ZNSt10_Head_baseILm1ESt14default_deleteI9MatlabAPIELb1EEC2IS2_EEOT_
FNDA:4,_ZNSt10_Head_baseILm1ESt14default_deleteI9MatlabAPIELb1EE7_M_headERS3_
FNDA:4,_ZNSt10_Head_baseILm0EP9MatlabAPILb0EEC2IRS1_EEOT_
FNDA:4,_ZNSt10_Head_baseILm0EP9MatlabAPILb0EE7_M_headERS2_
FNDA:4,_ZNSt11_Tuple_implILm0EJP9MatlabAPISt14default_deleteIS0_EEE7_M_headERS4_
FNDA:4,_ZNSt11_Tuple_implILm0EJP9MatlabAPISt14default_deleteIS0_EEEC2IRS1_JS3_EvEEOT_DpOT0_
FNDA:4,_ZNSt11_Tuple_implILm1EJSt14default_deleteI9MatlabAPIEEE7_M_headERS3_
FNDA:4,_ZNSt11_Tuple_implILm1EJSt14default_deleteI9MatlabAPIEEEC2IS2_EEOT_
FNDA:4,_ZNSt5tupleIJP9MatlabAPISt14default_deleteIS0_EEEC2IRS1_S3_vEEOT_OT0_
FNDA:4,_ZSt12__get_helperILm1ESt14default_deleteI9MatlabAPIEJEERT0_RSt11_Tuple_implIXT_EJS3_DpT1_EE
FNDA:4,_ZSt12__get_helperILm0EP9MatlabAPIJSt14default_deleteIS0_EEERT0_RSt11_Tuple_implIXT_EJS4_DpT1_EE
FNDA:4,_ZSt3getILm1EJP9MatlabAPISt14default_deleteIS0_EEERNSt13tuple_elementIXT_ESt5tupleIJDpT0_EEE4typeERS8_
FNDA:4,_ZSt3getILm0EJP9MatlabAPISt14default_deleteIS0_EEERNSt13tuple_elementIXT_ESt5tupleIJDpT0_EEE4typeERS8_
FNF:13
FNH:13
DA:68,4
DA:69,4
DA:95,4
DA:114,4
DA:115,4
DA:142,4
DA:190,4
DA:211,4
DA:212,4
DA:213,4
DA:347,4
DA:361,4
DA:362,4
DA:612,4
DA:613,4
DA:821,8
DA:822,8
DA:832,8
DA:833,8
LF:19
LH:19
end_of_record
TN:
SF:/home/sapho/portfolio-work/vigenere-victory/include/Lib1/VigenereDecipherer.h
FN:25,_ZN18VigenereDeciphererC2Ev
FN:26,_ZN18VigenereDeciphererD2Ev
FNDA:1,_ZN18VigenereDeciphererC2Ev
FNDA:1,_ZN18VigenereDeciphererD2Ev
FNF:2
FNH:2
DA:25,1
DA:26,1
DA:28,1
LF:3
LH:3
end_of_record
SF:/home/sapho/portfolio-work/vigenere-victory/src/Lib1/Vigenere_Impl.cpp
FN:10,_ZN13Vigenere_Impl5StartEv
FN:35,_ZN13Vigenere_ImplC2Ev
FNDA:1,_ZN13Vigenere_Impl5StartEv
FNDA:3,_ZN13Vigenere_ImplC2Ev
FNF:2
FNH:2
DA:10,1
DA:33,1
DA:35,3
DA:37,3
DA:39,3
LF:5
LH:5
end_of_record
SF:/home/sapho/portfolio-work/vigenere-victory/src/Lib1/Vigenere_Impl.h
FN:10,_ZN13Vigenere_ImplD2Ev
FNDA:3,_ZN13Vigenere_ImplD2Ev
FNF:1
FNH:1
DA:10,3
LF:1
LH:1
end_of_record
SF:/usr/include/c++/5/bits/move.h
FN:76,_ZSt7forwardISt14default_deleteI5InputEEOT_RNSt16remove_referenceIS3_E4typeE
FN:76,_ZSt7forwardISt14default_deleteI18VigenereDeciphererEEOT_RNSt16remove_referenceIS3_E4typeE
FN:76,_ZSt7forwardIRP5InputEOT_RNSt16remove_referenceIS3_E4typeE
FN:76,_ZSt7forwardIRP18VigenereDeciphererEOT_RNSt16remove_referenceIS3_E4typeE
FNDA:9,_ZSt7forwardIRP18VigenereDeciphererEOT_RNSt16remove_referenceIS3_E4typeE
FNDA:9,_ZSt7forwardIRP5InputEOT_RNSt16remove_referenceIS3_E4typeE
FNDA:12,_ZSt7forwardISt14default_deleteI18VigenereDeciphererEEOT_RNSt16remove_referenceIS3_E4typeE
FNDA:12,_ZSt7forwardISt14default_deleteI5InputEEOT_RNSt16remove_referenceIS3_E4typeE
FNF:4
FNH:4
DA:76,42
DA:77,42
LF:2
LH:2
end_of_record
SF:/usr/include/c++/5/bits/unique_ptr.h
FN:70,_ZNKSt14default_deleteI5InputEclEPS0_
FN:70,_ZNKSt14default_deleteI18VigenereDeciphererEclEPS0_
FN:169,_ZNSt10unique_ptrI18VigenereDeciphererSt14default_deleteIS0_EEC2EPS0_
FN:169,_ZNSt10unique_ptrI5InputSt14default_deleteIS0_EEC2EPS0_
FN:232,_ZNSt10unique_ptrI5InputSt14default_deleteIS0_EED2Ev
FN:232,_ZNSt10unique_ptrI18VigenereDeciphererSt14default_deleteIS0_EED2Ev
FN:309,_ZNSt10unique_ptrI5InputSt14default_deleteIS0_EE11get_deleterEv
FN:309,_ZNSt10unique_ptrI18VigenereDeciphererSt14default_deleteIS0_EE11get_deleterEv
FN:764,_ZSt11make_uniqueI18VigenereDeciphererJEENSt9_MakeUniqIT_E15__single_objectEDpOT0_
FN:764,_ZSt11make_uniqueI5InputJEENSt9_MakeUniqIT_E15__single_objectEDpOT0_
FNDA:3,_ZNKSt14default_deleteI18VigenereDeciphererEclEPS0_
FNDA:3,_ZNKSt14default_deleteI5InputEclEPS0_
FNDA:3,_ZNSt10unique_ptrI18VigenereDeciphererSt14default_deleteIS0_EEC2EPS0_
FNDA:3,_ZNSt10unique_ptrI5InputSt14default_deleteIS0_EEC2EPS0_
FNDA:3,_ZNSt10unique_ptrI18VigenereDeciphererSt14default_deleteIS0_EED2Ev
FNDA:3,_ZNSt10unique_ptrI5InputSt14default_deleteIS0_EED2Ev
FNDA:3,_ZNSt10unique_ptrI18VigenereDeciphererSt14default_deleteIS0_EE11get_deleterEv
FNDA:3,_ZNSt10unique_ptrI5InputSt14default_deleteIS0_EE11get_deleterEv
FNDA:3,_ZSt11make_uniqueI18VigenereDeciphererJEENSt9_MakeUniqIT_E15__single_objectEDpOT0_
FNDA:3,_ZSt11make_uniqueI5InputJEENSt9_MakeUniqIT_E15__single_objectEDpOT0_
FNF:10
FNH:10
DA:70,6
DA:76,6
DA:77,6
DA:169,6
DA:170,6
DA:172,6
DA:232,6
DA:234,6
DA:235,6
DA:236,6
DA:237,6
DA:238,6
DA:309,6
DA:310,6
DA:764,6
DA:765,6
LF:16
LH:16
end_of_record
SF:/usr/include/c++/5/tuple
FN:68,_ZNSt10_Head_baseILm1ESt14default_deleteI18VigenereDeciphererELb1EEC2IS2_EEOT_
FN:68,_ZNSt10_Head_baseILm1ESt14default_deleteI5InputELb1EEC2IS2_EEOT_
FN:95,_ZNSt10_Head_baseILm1ESt14default_deleteI5InputELb1EE7_M_headERS3_
FN:95,_ZNSt10_Head_baseILm1ESt14default_deleteI18VigenereDeciphererELb1EE7_M_headERS3_
FN:114,_ZNSt10_Head_baseILm0EP5InputLb0EEC2IRS1_EEOT_
FN:114,_ZNSt10_Head_baseILm0EP18VigenereDeciphererLb0EEC2IRS1_EEOT_
FN:142,_ZNSt10_Head_baseILm0EP18VigenereDeciphererLb0EE7_M_headERS2_
FN:142,_ZNSt10_Head_baseILm0EP5InputLb0EE7_M_headERS2_
FN:190,_ZNSt11_Tuple_implILm0EJP5InputSt14default_deleteIS0_EEE7_M_headERS4_
FN:190,_ZNSt11_Tuple_implILm0EJP18VigenereDeciphererSt14default_deleteIS0_EEE7_M_headERS4_
FN:211,_ZNSt11_Tuple_implILm0EJP5InputSt14default_deleteIS0_EEEC2IRS1_JS3_EvEEOT_DpOT0_
FN:211,_ZNSt11_Tuple_implILm0EJP18VigenereDeciphererSt14default_deleteIS0_EEEC2IRS1_JS3_EvEEOT_DpOT0_
FN:347,_ZNSt11_Tuple_implILm1EJSt14default_deleteI5InputEEE7_M_headERS3_
FN:347,_ZNSt11_Tuple_implILm1EJSt14default_deleteI18VigenereDeciphererEEE7_M_headERS3_
FN:361,_ZNSt11_Tuple_implILm1EJSt14default_deleteI5InputEEEC2IS2_EEOT_
FN:361,_ZNSt11_Tuple_implILm1EJSt14default_deleteI18VigenereDeciphererEEEC2IS2_EEOT_
FN:612,_ZNSt5tupleIJP5InputSt14default_deleteIS0_EEEC2IRS1_S3_vEEOT_OT0_
FN:612,_ZNSt5tupleIJP18VigenereDeciphererSt14default_deleteIS0_EEEC2IRS1_S3_vEEOT_OT0_
FN:821,_ZSt12__get_helperILm0EP18VigenereDeciphererJSt14default_deleteIS0_EEERT0_RSt11_Tuple_implIXT_EJS4_DpT1_EE
FN:821,_ZSt12__get_helperILm1ESt14default_deleteI18VigenereDeciphererEJEERT0_RSt11_Tuple_implIXT_EJS3_DpT1_EE
FN:821,_ZSt12__get_helperILm0EP5InputJSt14default_deleteIS0_EEERT0_RSt11_Tuple_implIXT_EJS4_DpT1_EE
FN:821,_ZSt12__get_helperILm1ESt14default_deleteI5InputEJEERT0_RSt11_Tuple_implIXT_EJS3_DpT1_EE
FN:832,_ZSt3getILm0EJP5InputSt14default_deleteIS0_EEERNSt13tuple_elementIXT_ESt5tupleIJDpT0_EEE4typeERS8_
FN:832,_ZSt3getILm0EJP18VigenereDeciphererSt14default_deleteIS0_EEERNSt13tuple_elementIXT_ESt5tupleIJDpT0_EEE4typeERS8_
FN:832,_ZSt3getILm1EJP18VigenereDeciphererSt14default_deleteIS0_EEERNSt13tuple_elementIXT_ESt5tupleIJDpT0_EEE4typeERS8_
FN:832,_ZSt3getILm1EJP5InputSt14default_deleteIS0_EEERNSt13tuple_elementIXT_ESt5tupleIJDpT0_EEE4typeERS8_
FNDA:3,_ZNSt10_Head_baseILm1ESt14default_deleteI18VigenereDeciphererELb1EEC2IS2_EEOT_
FNDA:3,_ZNSt10_Head_baseILm1ESt14default_deleteI5InputELb1EEC2IS2_EEOT_
FNDA:3,_ZNSt10_Head_baseILm1ESt14default_deleteI18VigenereDeciphererELb1EE7_M_headERS3_
FNDA:3,_ZNSt10_Head_baseILm1ESt14default_deleteI5InputELb1EE7_M_headERS3_
FNDA:3,_ZNSt10_Head_baseILm0EP18VigenereDeciphererLb0EEC2IRS1_EEOT_
FNDA:3,_ZNSt10_Head_baseILm0EP5InputLb0EEC2IRS1_EEOT_
FNDA:3,_ZNSt10_Head_baseILm0EP18VigenereDeciphererLb0EE7_M_headERS2_
FNDA:3,_ZNSt10_Head_baseILm0EP5InputLb0EE7_M_headERS2_
FNDA:3,_ZNSt11_Tuple_implILm0EJP18VigenereDeciphererSt14default_deleteIS0_EEE7_M_headERS4_
FNDA:3,_ZNSt11_Tuple_implILm0EJP5InputSt14default_deleteIS0_EEE7_M_headERS4_
FNDA:3,_ZNSt11_Tuple_implILm0EJP18VigenereDeciphererSt14default_deleteIS0_EEEC2IRS1_JS3_EvEEOT_DpOT0_
FNDA:3,_ZNSt11_Tuple_implILm0EJP5InputSt14default_deleteIS0_EEEC2IRS1_JS3_EvEEOT_DpOT0_
FNDA:3,_ZNSt11_Tuple_implILm1EJSt14default_deleteI18VigenereDeciphererEEE7_M_headERS3_
FNDA:3,_ZNSt11_Tuple_implILm1EJSt14default_deleteI5InputEEE7_M_headERS3_
FNDA:3,_ZNSt11_Tuple_implILm1EJSt14default_deleteI18VigenereDeciphererEEEC2IS2_EEOT_
FNDA:3,_ZNSt11_Tuple_implILm1EJSt14default_deleteI5InputEEEC2IS2_EEOT_
FNDA:3,_ZNSt5tupleIJP18VigenereDeciphererSt14default_deleteIS0_EEEC2IRS1_S3_vEEOT_OT0_
FNDA:3,_ZNSt5tupleIJP5InputSt14default_deleteIS0_EEEC2IRS1_S3_vEEOT_OT0_
FNDA:3,_ZSt12__get_helperILm1ESt14default_deleteI18VigenereDeciphererEJEERT0_RSt11_Tuple_implIXT_EJS3_DpT1_EE
FNDA:3,_ZSt12__get_helperILm1ESt14default_deleteI5InputEJEERT0_RSt11_Tuple_implIXT_EJS3_DpT1_EE
FNDA:3,_ZSt12__get_helperILm0EP18VigenereDeciphererJSt14default_deleteIS0_EEERT0_RSt11_Tuple_implIXT_EJS4_DpT1_EE
FNDA:3,_ZSt12__get_helperILm0EP5InputJSt14default_deleteIS0_EEERT0_RSt11_Tuple_implIXT_EJS4_DpT1_EE
FNDA:3,_ZSt3getILm1EJP18VigenereDeciphererSt14default_deleteIS0_EEERNSt13tuple_elementIXT_ESt5tupleIJDpT0_EEE4typeERS8_
FNDA:3,_ZSt3getILm1EJP5InputSt14default_deleteIS0_EEERNSt13tuple_elementIXT_ESt5tupleIJDpT0_EEE4typeERS8_
FNDA:3,_ZSt3getILm0EJP18VigenereDeciphererSt14default_deleteIS0_EEERNSt13tuple_elementIXT_ESt5tupleIJDpT0_EEE4typeERS8_
FNDA:3,_ZSt3getILm0EJP5InputSt14default_deleteIS0_EEERNSt13tuple_elementIXT_ESt5tupleIJDpT0_EEE4typeERS8_
FNF:26
FNH:26
DA:68,6
DA:69,6
DA:95,6
DA:114,6
DA:115,6
DA:142,6
DA:190,6
DA:211,6
DA:212,6
DA:213,6
DA:347,6
DA:361,6
DA:362,6
DA:612,6
DA:613,6
DA:821,12
DA:822,12
DA:832,12
DA:833,12
LF:19
LH:19
end_of_record
TN:
SF:/home/sapho/portfolio-work/vigenere-victory/include/Lib1/VigenereDecipherer.h
FN:25,_ZN18VigenereDeciphererC2Ev
FN:26,_ZN18VigenereDeciphererD2Ev
FNDA:3,_ZN18VigenereDeciphererC2Ev
FNDA:3,_ZN18VigenereDeciphererD2Ev
FNF:2
FNH:2
DA:25,3
DA:26,3
DA:28,3
LF:3
LH:3
end_of_record
SF:/home/sapho/portfolio-work/vigenere-victory/test/Lib1/VigenereDecipherer_test.cpp
FN:5,_ZL29____C_A_T_C_H____T_E_S_T____0v
FN:13,_Z41__static_initialization_and_destruction_0ii
FN:13,_GLOBAL__sub_I_VigenereDecipherer_test.cpp
FNDA:1,_ZL29____C_A_T_C_H____T_E_S_T____0v
FNDA:1,_GLOBAL__sub_I_VigenereDecipherer_test.cpp
FNDA:1,_Z41__static_initialization_and_destruction_0ii
FNF:3
FNH:3
DA:5,2
DA:6,1
DA:8,2
DA:9,1
DA:12,1
DA:13,4
LF:6
LH:6
end_of_record
SF:/home/sapho/portfolio-work/vigenere-victory/test/catch/catch.h
FN:409,_ZN5Catch11NameAndTagsD2Ev
FN:552,_ZN5Catch6Detail17rawMemoryToStringIP18VigenereDeciphererEENSt7__cxx1112basic_stringIcSt11char_traitsIcESaIcEEERKT_
FN:596,_ZN5Catch6Detail9stringifyIP18VigenereDeciphererEENSt7__cxx1112basic_stringIcSt11char_traitsIcESaIcEEERKT_
FN:596,_ZN5Catch6Detail9stringifyIDnEENSt7__cxx1112basic_stringIcSt11char_traitsIcESaIcEEERKT_
FN:709,_ZN5Catch11StringMakerIP18VigenereDeciphererE7convertIS1_EENSt7__cxx1112basic_stringIcSt11char_traitsIcESaIcEEEPT_
FN:987,_ZN5Catch20ITransientExpressionC2Ev
FN:1000,_ZN5Catch10BinaryExprIRKP18VigenereDeciphererRKDnED0Ev
FN:1000,_ZN5Catch10BinaryExprIRKP18VigenereDeciphererRKDnED2Ev
FN:1006,_ZNK5Catch10BinaryExprIRKP18VigenereDeciphererRKDnE18isBinaryExpressionEv
FN:1007,_ZNK5Catch10BinaryExprIRKP18VigenereDeciphererRKDnE9getResultEv
FN:1009,_ZNK5Catch10BinaryExprIRKP18VigenereDeciphererRKDnE29streamReconstructedExpressionERSo
FN:1015,_ZN5Catch10BinaryExprIRKP18VigenereDeciphererRKDnEC2EbS4_NS_9StringRefES6_
FN:1051,_ZN5Catch15compareNotEqualIP18VigenereDeciphererRKDnEEbRKT_OT0_
FN:1065,_ZN5Catch7ExprLhsIRKP18VigenereDeciphererEC2ES4_
FN:1076,_ZN5Catch7ExprLhsIRKP18VigenereDeciphererEneIDnEEKNS_10BinaryExprIS4_RKT_EESA_
FN:1114,_ZN5Catch10DecomposerleIP18VigenereDeciphererEENS_7ExprLhsIRKT_EES7_
FN:1585,_ZN5Catch11SectionInfoD2Ev
FNDA:0,_ZN5Catch11NameAndTagsD2Ev
FNDA:0,_ZN5Catch6Detail17rawMemoryToStringIP18VigenereDeciphererEENSt7__cxx1112basic_stringIcSt11char_traitsIcESaIcEEERKT_
FNDA:0,_ZN5Catch6Detail9stringifyIDnEENSt7__cxx1112basic_stringIcSt11char_traitsIcESaIcEEERKT_
FNDA:0,_ZN5Catch6Detail9stringifyIP18VigenereDeciphererEENSt7__cxx1112basic_stringIcSt11char_traitsIcESaIcEEERKT_
FNDA:0,_ZN5Catch11StringMakerIP18VigenereDeciphererE7convertIS1_EENSt7__cxx1112basic_stringIcSt11char_traitsIcESaIcEEEPT_
FNDA:0,_ZN5Catch20ITransientExpressionC2Ev
FNDA:0,_ZN5Catch10BinaryExprIRKP18VigenereDeciphererRKDnED0Ev
FNDA:1,_ZN5Catch10BinaryExprIRKP18VigenereDeciphererRKDnED2Ev
FNDA:0,_ZNK5Catch10BinaryExprIRKP18VigenereDeciphererRKDnE18isBinaryExpressionEv
FNDA:1,_ZNK5Catch10BinaryExprIRKP18VigenereDeciphererRKDnE9getResultEv
FNDA:0,_ZNK5Catch10BinaryExprIRKP18VigenereDeciphererRKDnE29streamReconstructedExpressionERSo
FNDA:1,_ZN5Catch10BinaryExprIRKP18VigenereDeciphererRKDnEC2EbS4_NS_9StringRefES6_
FNDA:1,_ZN5Catch15compareNotEqualIP18VigenereDeciphererRKDnEEbRKT_OT0_
FNDA:1,_ZN5Catch7ExprLhsIRKP18VigenereDeciphererEC2ES4_
FNDA:1,_ZN5Catch7ExprLhsIRKP18VigenereDeciphererEneIDnEEKNS_10BinaryExprIS4_RKT_EESA_
FNDA:1,_ZN5Catch10DecomposerleIP18VigenereDeciphererEENS_7ExprLhsIRKT_EES7_
FNDA:0,_ZN5Catch11SectionInfoD2Ev
FNF:17
FNH:7
DA:409,0
DA:552,0
DA:553,0
DA:596,0
DA:597,0
DA:709,0
DA:710,0
DA:711,0
DA:713,0
DA:987,0
DA:1000,1
DA:1006,0
DA:1007,1
DA:1009,0
DA:1010,0
DA:1011,0
DA:1012,0
DA:1015,1
DA:1019,1
DA:1020,1
DA:1051,1
DA:1065,1
DA:1076,1
DA:1077,1
DA:1114,1
DA:1115,1
DA:1585,0
LF:27
LH:11
end_of_record
TN:
SF:/home/sapho/portfolio-work/vigenere-victory/test/Lib1/Input_test.cpp
FN:5,_ZL29____C_A_T_C_H____T_E_S_T____0v
FN:13,_GLOBAL__sub_I_Input_test.cpp
FN:13,_Z41__static_initialization_and_destruction_0ii
FNDA:1,_ZL29____C_A_T_C_H____T_E_S_T____0v
FNDA:1,_GLOBAL__sub_I_Input_test.cpp
FNDA:1,_Z41__static_initialization_and_destruction_0ii
FNF:3
FNH:3
DA:5,2
DA:6,1
DA:8,2
DA:9,1
DA:12,1
DA:13,4
LF:6
LH:6
end_of_record
SF:/home/sapho/portfolio-work/vigenere-victory/test/catch/catch.h
FN:409,_ZN5Catch11NameAndTagsD2Ev
FN:552,_ZN5Catch6Detail17rawMemoryToStringIP5InputEENSt7__cxx1112basic_stringIcSt11char_traitsIcESaIcEEERKT_
FN:596,_ZN5Catch6Detail9stringifyIDnEENSt7__cxx1112basic_stringIcSt11char_traitsIcESaIcEEERKT_
FN:596,_ZN5Catch6Detail9stringifyIP5InputEENSt7__cxx1112basic_stringIcSt11char_traitsIcESaIcEEERKT_
FN:709,_ZN5Catch11StringMakerIP5InputE7convertIS1_EENSt7__cxx1112basic_stringIcSt11char_traitsIcESaIcEEEPT_
FN:987,_ZN5Catch20ITransientExpressionC2Ev
FN:1000,_ZN5Catch10BinaryExprIRKP5InputRKDnED0Ev
FN:1000,_ZN5Catch10BinaryExprIRKP5InputRKDnED2Ev
FN:1006,_ZNK5Catch10BinaryExprIRKP5InputRKDnE18isBinaryExpressionEv
FN:1007,_ZNK5Catch10BinaryExprIRKP5InputRKDnE9getResultEv
FN:1009,_ZNK5Catch10BinaryExprIRKP5InputRKDnE29streamReconstructedExpressionERSo
FN:1015,_ZN5Catch10BinaryExprIRKP5InputRKDnEC2EbS4_NS_9StringRefES6_
FN:1051,_ZN5Catch15compareNotEqualIP5InputRKDnEEbRKT_OT0_
FN:1065,_ZN5Catch7ExprLhsIRKP5InputEC2ES4_
FN:1076,_ZN5Catch7ExprLhsIRKP5InputEneIDnEEKNS_10BinaryExprIS4_RKT_EESA_
FN:1114,_ZN5Catch10DecomposerleIP5InputEENS_7ExprLhsIRKT_EES7_
FN:1585,_ZN5Catch11SectionInfoD2Ev
FNDA:3,_ZN5Catch11NameAndTagsD2Ev
FNDA:0,_ZN5Catch6Detail17rawMemoryToStringIP5InputEENSt7__cxx1112basic_stringIcSt11char_traitsIcESaIcEEERKT_
FNDA:0,_ZN5Catch6Detail9stringifyIDnEENSt7__cxx1112basic_stringIcSt11char_traitsIcESaIcEEERKT_
FNDA:0,_ZN5Catch6Detail9stringifyIP5InputEENSt7__cxx1112basic_stringIcSt11char_traitsIcESaIcEEERKT_
FNDA:0,_ZN5Catch11StringMakerIP5InputE7convertIS1_EENSt7__cxx1112basic_stringIcSt11char_traitsIcESaIcEEEPT_
FNDA:0,_ZN5Catch20ITransientExpressionC2Ev
FNDA:0,_ZN5Catch10BinaryExprIRKP5InputRKDnED0Ev
FNDA:1,_ZN5Catch10BinaryExprIRKP5InputRKDnED2Ev
FNDA:0,_ZNK5Catch10BinaryExprIRKP5InputRKDnE18isBinaryExpressionEv
FNDA:1,_ZNK5Catch10BinaryExprIRKP5InputRKDnE9getResultEv
FNDA:0,_ZNK5Catch10BinaryExprIRKP5InputRKDnE29streamReconstructedExpressionERSo
FNDA:1,_ZN5Catch10BinaryExprIRKP5InputRKDnEC2EbS4_NS_9StringRefES6_
FNDA:1,_ZN5Catch15compareNotEqualIP5InputRKDnEEbRKT_OT0_
FNDA:1,_ZN5Catch7ExprLhsIRKP5InputEC2ES4_
FNDA:1,_ZN5Catch7ExprLhsIRKP5InputEneIDnEEKNS_10BinaryExprIS4_RKT_EESA_
FNDA:1,_ZN5Catch10DecomposerleIP5InputEENS_7ExprLhsIRKT_EES7_
FNDA:0,_ZN5Catch11SectionInfoD2Ev
FNF:17
FNH:8
DA:409,3
DA:552,0
DA:553,0
DA:596,0
DA:597,0
DA:709,0
DA:710,0
DA:711,0
DA:713,0
DA:987,0
DA:1000,1
DA:1006,0
DA:1007,1
DA:1009,0
DA:1010,0
DA:1011,0
DA:1012,0
DA:1015,1
DA:1019,1
DA:1020,1
DA:1051,1
DA:1065,1
DA:1076,1
DA:1077,1
DA:1114,1
DA:1115,1
DA:1585,0
LF:27
LH:12
end_of_record
TN:
SF:/home/sapho/portfolio-work/vigenere-victory/test/Lib1/Vigenere_test.cpp
FN:5,_ZL29____C_A_T_C_H____T_E_S_T____0v
FN:16,_GLOBAL__sub_I_Vigenere_test.cpp
FN:16,_Z41__static_initialization_and_destruction_0ii
FNDA:2,_ZL29____C_A_T_C_H____T_E_S_T____0v
FNDA:1,_GLOBAL__sub_I_Vigenere_test.cpp
FNDA:1,_Z41__static_initialization_and_destruction_0ii
FNF:3
FNH:3
DA:5,3
DA:6,2
DA:8,4
DA:9,1
DA:11,4
DA:12,1
DA:15,2
DA:16,5
LF:8
LH:8
end_of_record
SF:/home/sapho/portfolio-work/vigenere-victory/test/catch/catch.h
FN:409,_ZN5Catch11NameAndTagsD2Ev
FN:552,_ZN5Catch6Detail17rawMemoryToStringIP8VigenereEENSt7__cxx1112basic_stringIcSt11char_traitsIcESaIcEEERKT_
FN:596,_ZN5Catch6Detail9stringifyIDnEENSt7__cxx1112basic_stringIcSt11char_traitsIcESaIcEEERKT_
FN:596,_ZN5Catch6Detail9stringifyIiEENSt7__cxx1112basic_stringIcSt11char_traitsIcESaIcEEERKT_
FN:596,_ZN5Catch6Detail9stringifyIP8VigenereEENSt7__cxx1112basic_stringIcSt11char_traitsIcESaIcEEERKT_
FN:709,_ZN5Catch11StringMakerIP8VigenereE7convertIS1_EENSt7__cxx1112basic_stringIcSt11char_traitsIcESaIcEEEPT_
FN:987,_ZN5Catch20ITransientExpressionC2Ev
FN:1000,_ZN5Catch10BinaryExprIRKiS2_ED0Ev
FN:1000,_ZN5Catch10BinaryExprIRKP8VigenereRKDnED0Ev
FN:1000,_ZN5Catch10BinaryExprIRKiS2_ED2Ev
FN:1000,_ZN5Catch10BinaryExprIRKP8VigenereRKDnED2Ev
FN:1006,_ZNK5Catch10BinaryExprIRKiS2_E18isBinaryExpressionEv
FN:1006,_ZNK5Catch10BinaryExprIRKP8VigenereRKDnE18isBinaryExpressionEv
FN:1007,_ZNK5Catch10BinaryExprIRKP8VigenereRKDnE9getResultEv
FN:1007,_ZNK5Catch10BinaryExprIRKiS2_E9getResultEv
FN:1009,_ZNK5Catch10BinaryExprIRKP8VigenereRKDnE29streamReconstructedExpressionERSo
FN:1009,_ZNK5Catch10BinaryExprIRKiS2_E29streamReconstructedExpressionERSo
FN:1015,_ZN5Catch10BinaryExprIRKiS2_EC2EbS2_NS_9StringRefES2_
FN:1015,_ZN5Catch10BinaryExprIRKP8VigenereRKDnEC2EbS4_NS_9StringRefES6_
FN:1040,_ZN5Catch12compareEqualIiiEEbRKT_RKT0_
FN:1051,_ZN5Catch15compareNotEqualIP8VigenereRKDnEEbRKT_OT0_
FN:1065,_ZN5Catch7ExprLhsIRKP8VigenereEC2ES4_
FN:1065,_ZN5Catch7ExprLhsIRKiEC2ES2_
FN:1068,_ZN5Catch7ExprLhsIRKiEeqIiEEKNS_10BinaryExprIS2_RKT_EES8_
FN:1076,_ZN5Catch7ExprLhsIRKP8VigenereEneIDnEEKNS_10BinaryExprIS4_RKT_EESA_
FN:1114,_ZN5Catch10DecomposerleIiEENS_7ExprLhsIRKT_EES5_
FN:1114,_ZN5Catch10DecomposerleIP8VigenereEENS_7ExprLhsIRKT_EES7_
FN:1585,_ZN5Catch11SectionInfoD2Ev
FNDA:0,_ZN5Catch11NameAndTagsD2Ev
FNDA:0,_ZN5Catch6Detail17rawMemoryToStringIP8VigenereEENSt7__cxx1112basic_stringIcSt11char_traitsIcESaIcEEERKT_
FNDA:0,_ZN5Catch6Detail9stringifyIDnEENSt7__cxx1112basic_stringIcSt11char_traitsIcESaIcEEERKT_
FNDA:0,_ZN5Catch6Detail9stringifyIP8VigenereEENSt7__cxx1112basic_stringIcSt11char_traitsIcESaIcEEERKT_
FNDA:0,_ZN5Catch6Detail9stringifyIiEENSt7__cxx1112basic_stringIcSt11char_traitsIcESaIcEEERKT_
FNDA:0,_ZN5Catch11StringMakerIP8VigenereE7convertIS1_EENSt7__cxx1112basic_stringIcSt11char_traitsIcESaIcEEEPT_
FNDA:0,_ZN5Catch20ITransientExpressionC2Ev
FNDA:0,_ZN5Catch10BinaryExprIRKP8VigenereRKDnED0Ev
FNDA:1,_ZN5Catch10BinaryExprIRKP8VigenereRKDnED2Ev
FNDA:0,_ZN5Catch10BinaryExprIRKiS2_ED0Ev
FNDA:1,_ZN5Catch10BinaryExprIRKiS2_ED2Ev
FNDA:0,_ZNK5Catch10BinaryExprIRKP8VigenereRKDnE18isBinaryExpressionEv
FNDA:0,_ZNK5Catch10BinaryExprIRKiS2_E18isBinaryExpressionEv
FNDA:1,_ZNK5Catch10BinaryExprIRKP8VigenereRKDnE9getResultEv
FNDA:1,_ZNK5Catch10BinaryExprIRKiS2_E9getResultEv
FNDA:0,_ZNK5Catch10BinaryExprIRKP8VigenereRKDnE29streamReconstructedExpressionERSo
FNDA:0,_ZNK5Catch10BinaryExprIRKiS2_E29streamReconstructedExpressionERSo
FNDA:1,_ZN5Catch10BinaryExprIRKiS2_EC2EbS2_NS_9StringRefES2_
FNDA:1,_ZN5Catch10BinaryExprIRKP8VigenereRKDnEC2EbS4_NS_9StringRefES6_
FNDA:1,_ZN5Catch12compareEqualIiiEEbRKT_RKT0_
FNDA:1,_ZN5Catch15compareNotEqualIP8VigenereRKDnEEbRKT_OT0_
FNDA:1,_ZN5Catch7ExprLhsIRKiEC2ES2_
FNDA:1,_ZN5Catch7ExprLhsIRKP8VigenereEC2ES4_
FNDA:1,_ZN5Catch7ExprLhsIRKiEeqIiEEKNS_10BinaryExprIS2_RKT_EES8_
FNDA:1,_ZN5Catch7ExprLhsIRKP8VigenereEneIDnEEKNS_10BinaryExprIS4_RKT_EESA_
FNDA:1,_ZN5Catch10DecomposerleIiEENS_7ExprLhsIRKT_EES5_
FNDA:1,_ZN5Catch10DecomposerleIP8VigenereEENS_7ExprLhsIRKT_EES7_
FNDA:0,_ZN5Catch11SectionInfoD2Ev
FNF:28
FNH:14
DA:409,0
DA:552,0
DA:553,0
DA:596,0
DA:597,0
DA:709,0
DA:710,0
DA:711,0
DA:713,0
DA:987,0
DA:1000,2
DA:1006,0
DA:1007,2
DA:1009,0
DA:1010,0
DA:1011,0
DA:1012,0
DA:1015,2
DA:1019,2
DA:1020,2
DA:1040,1
DA:1051,1
DA:1065,2
DA:1068,1
DA:1069,1
DA:1076,1
DA:1077,1
DA:1114,2
DA:1115,2
DA:1585,0
LF:30
LH:14
end_of_record
TN:
SF:/home/sapho/portfolio-work/vigenere-victory/test/catch/catch.h
FN:217,_ZN5Catch11NonCopyableD0Ev
FN:217,_ZN5Catch11NonCopyableD2Ev
FN:217,_ZN5Catch11NonCopyableC2Ev
FN:292,_ZN5Catch12ITestInvokerD0Ev
FN:292,_ZN5Catch12ITestInvokerD2Ev
FN:292,_ZN5Catch12ITestInvokerC2Ev
FN:302,_ZN5Catch17ITestCaseRegistryD2Ev
FN:302,_ZN5Catch17ITestCaseRegistryD0Ev
FN:302,_ZN5Catch17ITestCaseRegistryC2Ev
FN:415,_ZN5Catch7AutoRegD0Ev
FN:415,_ZN5Catch7AutoRegD2Ev
FN:577,_ZN5Catch11StringMakerINS_14SourceLineInfoEE7convertIS1_EENSt9enable_ifIXsrNS_6Detail18IsStreamInsertableIT_EE5valueENSt7__cxx1112basic_stringIcSt11char_traitsIcESaIcEEEE4typeERKS7_
FN:596,_ZN5Catch6Detail9stringifyIxEENSt7__cxx1112basic_stringIcSt11char_traitsIcESaIcEEERKT_
FN:596,_ZN5Catch6Detail9stringifyIyEENSt7__cxx1112basic_stringIcSt11char_traitsIcESaIcEEERKT_
FN:596,_ZN5Catch6Detail9stringifyIcEENSt7__cxx1112basic_stringIcSt11char_traitsIcESaIcEEERKT_
FN:596,_ZN5Catch6Detail9stringifyIjEENSt7__cxx1112basic_stringIcSt11char_traitsIcESaIcEEERKT_
FN:596,_ZN5Catch6Detail9stringifyINSt7__cxx1112basic_stringIwSt11char_traitsIwESaIwEEEEENS3_IcS4_IcESaIcEEERKT_
FN:596,_ZN5Catch6Detail9stringifyINSt7__cxx1112basic_stringIcSt11char_traitsIcESaIcEEEEES7_RKT_
FN:596,_ZN5Catch6Detail9stringifyINS_14SourceLineInfoEEENSt7__cxx1112basic_stringIcSt11char_traitsIcESaIcEEERKT_
FN:596,_ZN5Catch6Detail9stringifyIdEENSt7__cxx1112basic_stringIcSt11char_traitsIcESaIcEEERKT_
FN:987,_ZN5Catch20ITransientExpressionC2Ev
FN:987,_ZN5Catch20ITransientExpressionD0Ev
FN:987,_ZN5Catch20ITransientExpressionD2Ev
FN:1179,_ZN5Catch13AssertionInfoC2ERKS0_
FN:1179,_ZN5Catch13AssertionInfoaSEOS0_
FN:1179,_ZN5Catch13AssertionInfoD2Ev
FN:1261,_ZN5Catch11MessageInfoC2ERKS0_
FN:1261,_ZN5Catch11MessageInfoaSEOS0_
FN:1261,_ZN5Catch11MessageInfoD2Ev
FN:1261,_ZN5Catch11MessageInfoC2EOS0_
FN:1278,_ZN5Catch13MessageStreamC2Ev
FN:1278,_ZN5Catch13MessageStreamD2Ev
FN:1290,_ZN5Catch14MessageBuilderD2Ev
FN:1296,_ZN5Catch14MessageBuilderlsINSt7__cxx1112basic_stringIcSt11char_traitsIcESaIcEEEEERS0_RKT_
FN:1330,_ZN5Catch14IResultCaptureD2Ev
FN:1330,_ZN5Catch14IResultCaptureD0Ev
FN:1330,_ZN5Catch14IResultCaptureC2Ev
FN:1555,_ZN5Catch6CountsC2Ev
FN:1568,_ZN5Catch6TotalsC2Ev
FN:1585,_ZN5Catch11SectionInfoaSERKS0_
FN:1585,_ZN5Catch11SectionInfoC2ERKS0_
FN:1585,_ZN5Catch11SectionInfoC2EOS0_
FN:1585,_ZN5Catch11SectionInfoD2Ev
FN:1596,_ZN5Catch14SectionEndInfoC2EOS0_
FN:1596,_ZN5Catch14SectionEndInfoC2ERKS0_
FN:1596,_ZN5Catch14SectionEndInfoD2Ev
FN:1616,_ZN5Catch5TimerC2Ev
FN:1722,_ZN5Catch12IRegistryHubC2Ev
FN:1722,_ZN5Catch12IRegistryHubD2Ev
FN:1722,_ZN5Catch12IRegistryHubD0Ev
FN:1734,_ZN5Catch19IMutableRegistryHubD0Ev
FN:1734,_ZN5Catch19IMutableRegistryHubD2Ev
FN:1734,_ZN5Catch19IMutableRegistryHubC2Ev
FN:1767,_ZN5Catch20IExceptionTranslatorD0Ev
FN:1767,_ZN5Catch20IExceptionTranslatorD2Ev
FN:1772,_ZN5Catch28IExceptionTranslatorRegistryC2Ev
FN:1772,_ZN5Catch28IExceptionTranslatorRegistryD2Ev
FN:1772,_ZN5Catch28IExceptionTranslatorRegistryD0Ev
FN:1862,_ZN5Catch6Detail6ApproxC2IivEERKT_
FN:1967,_ZN5Catch9pluraliseD2Ev
FN:1994,_ZN5Catch8Matchers4Impl18MatcherUntypedBaseD0Ev
FN:1994,_ZN5Catch8Matchers4Impl18MatcherUntypedBaseD2Ev
FN:1996,_ZN5Catch8Matchers4Impl18MatcherUntypedBaseC2Ev
FN:2008,_ZN5Catch8Matchers4Impl13MatcherMethodINSt7__cxx1112basic_stringIcSt11char_traitsIcESaIcEEEEC2Ev
FN:2017,_ZN5Catch8Matchers4Impl11MatcherBaseINSt7__cxx1112basic_stringIcSt11char_traitsIcESaIcEEES8_ED0Ev
FN:2017,_ZN5Catch8Matchers4Impl11MatcherBaseINSt7__cxx1112basic_stringIcSt11char_traitsIcESaIcEEES8_ED2Ev
FN:2017,_ZN5Catch8Matchers4Impl11MatcherBaseINSt7__cxx1112basic_stringIcSt11char_traitsIcESaIcEEES8_EC2Ev
FN:2137,_ZN5Catch8Matchers9StdString11CasedStringC2ERKS2_
FN:2137,_ZN5Catch8Matchers9StdString11CasedStringD2Ev
FN:2147,_ZN5Catch8Matchers9StdString17StringMatcherBaseD0Ev
FN:2147,_ZN5Catch8Matchers9StdString17StringMatcherBaseD2Ev
FN:2155,_ZN5Catch8Matchers9StdString13EqualsMatcherD2Ev
FN:2155,_ZN5Catch8Matchers9StdString13EqualsMatcherD0Ev
FN:2159,_ZN5Catch8Matchers9StdString15ContainsMatcherD2Ev
FN:2159,_ZN5Catch8Matchers9StdString15ContainsMatcherD0Ev
FN:2163,_ZN5Catch8Matchers9StdString17StartsWithMatcherD2Ev
FN:2163,_ZN5Catch8Matchers9StdString17StartsWithMatcherD0Ev
FN:2167,_ZN5Catch8Matchers9StdString15EndsWithMatcherD2Ev
FN:2167,_ZN5Catch8Matchers9StdString15EndsWithMatcherD0Ev
FN:2294,_ZN5Catch9MatchExprINSt7__cxx1112basic_stringIcSt11char_traitsIcESaIcEEERKNS_8Matchers4Impl11MatcherBaseIS6_S6_EEED0Ev
FN:2294,_ZN5Catch9MatchExprINSt7__cxx1112basic_stringIcSt11char_traitsIcESaIcEEERKNS_8Matchers4Impl11MatcherBaseIS6_S6_EEED2Ev
FN:2300,_ZN5Catch9MatchExprINSt7__cxx1112basic_stringIcSt11char_traitsIcESaIcEEERKNS_8Matchers4Impl11MatcherBaseIS6_S6_EEEC2ERKS6_SC_NS_9StringRefE
FN:2307,_ZNK5Catch9MatchExprINSt7__cxx1112basic_stringIcSt11char_traitsIcESaIcEEERKNS_8Matchers4Impl11MatcherBaseIS6_S6_EEE18isBinaryExpressionEv
FN:2308,_ZNK5Catch9MatchExprINSt7__cxx1112basic_stringIcSt11char_traitsIcESaIcEEERKNS_8Matchers4Impl11MatcherBaseIS6_S6_EEE9getResultEv
FN:2310,_ZNK5Catch9MatchExprINSt7__cxx1112basic_stringIcSt11char_traitsIcESaIcEEERKNS_8Matchers4Impl11MatcherBaseIS6_S6_EEE29streamReconstructedExpressionERSo
FN:2381,_ZN5Catch12TestCaseInfoD2Ev
FN:2381,_ZN5Catch12TestCaseInfoC2EOS0_
FN:2381,_ZN5Catch12TestCaseInfoC2ERKS0_
FN:2381,_ZN5Catch12TestCaseInfoaSEOS0_
FN:2416,_ZN5Catch8TestCaseC2EOS0_
FN:2416,_ZN5Catch8TestCaseC2ERKS0_
FN:2416,_ZN5Catch8TestCaseD2Ev
FN:2416,_ZN5Catch8TestCaseaSEOS0_
FN:2450,_ZN5Catch7IRunnerD2Ev
FN:2450,_ZN5Catch7IRunnerC2Ev
FN:2450,_ZN5Catch7IRunnerD0Ev
FN:2700,_ZN5Catch15WildcardPatternD0Ev
FN:2700,_ZN5Catch15WildcardPatternD2Ev
FN:2718,_ZN5Catch8TestSpecaSEOS0_
FN:2718,_ZN5Catch8TestSpecC2ERKS0_
FN:2718,_ZN5Catch8TestSpecC2Ev
FN:2718,_ZN5Catch8TestSpecD2Ev
FN:2719,_ZN5Catch8TestSpec7PatternD2Ev
FN:2719,_ZN5Catch8TestSpec7PatternC2Ev
FN:2719,_ZN5Catch8TestSpec7PatternD0Ev
FN:2725,_ZN5Catch8TestSpec11NamePatternD0Ev
FN:2725,_ZN5Catch8TestSpec11NamePatternD2Ev
FN:2734,_ZN5Catch8TestSpec10TagPatternD0Ev
FN:2734,_ZN5Catch8TestSpec10TagPatternD2Ev
FN:2743,_ZN5Catch8TestSpec15ExcludedPatternD2Ev
FN:2743,_ZN5Catch8TestSpec15ExcludedPatternD0Ev
FN:2752,_ZN5Catch8TestSpec6FilterC2Ev
FN:2752,_ZN5Catch8TestSpec6FilterC2EOS1_
FN:2752,_ZN5Catch8TestSpec6FilterC2ERKS1_
FN:2752,_ZN5Catch8TestSpec6FilteraSEOS1_
FN:2752,_ZN5Catch8TestSpec6FilterD2Ev
FN:2782,_ZN5Catch17ITagAliasRegistryC2Ev
FN:2796,_ZN5Catch14TestSpecParserD2Ev
FN:2820,_ZN5Catch14TestSpecParser10addPatternINS_8TestSpec11NamePatternEEEvv
FN:2820,_ZN5Catch14TestSpecParser10addPatternINS_8TestSpec10TagPatternEEEvv
FN:2894,_ZN5Catch7IConfigC2Ev
FN:2894,_ZN5Catch7IConfigD2Ev
FN:2894,_ZN5Catch7IConfigD0Ev
FN:2929,_ZN5Catch13StreamBufBaseD0Ev
FN:2929,_ZN5Catch13StreamBufBaseC2Ev
FN:2929,_ZN5Catch13StreamBufBaseD2Ev
FN:2947,_ZN5Catch7IStreamD2Ev
FN:2947,_ZN5Catch7IStreamC2Ev
FN:2947,_ZN5Catch7IStreamD0Ev
FN:2956,_ZN5Catch10FileStreamD0Ev
FN:2956,_ZN5Catch10FileStreamD2Ev
FN:2965,_ZN5Catch10CoutStreamD2Ev
FN:2965,_ZN5Catch10CoutStreamD0Ev
FN:2976,_ZN5Catch14DebugOutStreamD2Ev
FN:2976,_ZN5Catch14DebugOutStreamD0Ev
FN:2997,_ZN5Catch10ConfigDataaSERKS0_
FN:2997,_ZN5Catch10ConfigDataD2Ev
FN:2997,_ZN5Catch10ConfigDataC2ERKS0_
FN:2997,_ZN5Catch10ConfigDataC2Ev
FN:3036,_ZN5Catch6ConfigD2Ev
FN:3036,_ZN5Catch6ConfigD0Ev
FN:3088,_ZN5Catch19AssertionResultDataD2Ev
FN:3088,_ZN5Catch19AssertionResultDataC2ERKS0_
FN:3102,_ZN5Catch15AssertionResultC2ERKS0_
FN:3102,_ZN5Catch15AssertionResultD2Ev
FN:3136,_ZN5Catch6OptionINS_15AssertionResultEEC2Ev
FN:3136,_ZN5Catch6OptionINS_9GroupInfoEEC2Ev
FN:3136,_ZN5Catch6OptionINS_11TestRunInfoEEC2Ev
FN:3136,_ZN5Catch6OptionINS_12TestCaseInfoEEC2Ev
FN:3136,_ZN5Catch6OptionImEC2Ev
FN:3144,_ZN5Catch6OptionINS_9GroupInfoEED2Ev
FN:3144,_ZN5Catch6OptionINS_12TestCaseInfoEED2Ev
FN:3144,_ZN5Catch6OptionImED2Ev
FN:3144,_ZN5Catch6OptionINS_15AssertionResultEED2Ev
FN:3144,_ZN5Catch6OptionINS_11TestRunInfoEED2Ev
FN:3156,_ZN5Catch6OptionImEaSERKm
FN:3156,_ZN5Catch6OptionINS_12TestCaseInfoEEaSERKS1_
FN:3156,_ZN5Catch6OptionINS_9GroupInfoEEaSERKS1_
FN:3156,_ZN5Catch6OptionINS_15AssertionResultEEaSERKS1_
FN:3156,_ZN5Catch6OptionINS_11TestRunInfoEEaSERKS1_
FN:3162,_ZN5Catch6OptionINS_11TestRunInfoEE5resetEv
FN:3162,_ZN5Catch6OptionINS_12TestCaseInfoEE5resetEv
FN:3162,_ZN5Catch6OptionINS_9GroupInfoEE5resetEv
FN:3162,_ZN5Catch6OptionINS_15AssertionResultEE5resetEv
FN:3162,_ZN5Catch6OptionImE5resetEv
FN:3168,_ZN5Catch6OptionImEdeEv
FN:3169,_ZNK5Catch6OptionINS_15AssertionResultEEdeEv
FN:3170,_ZN5Catch6OptionINS_11TestRunInfoEEptEv
FN:3170,_ZN5Catch6OptionINS_9GroupInfoEEptEv
FN:3170,_ZN5Catch6OptionINS_12TestCaseInfoEEptEv
FN:3173,_ZNK5Catch6OptionImE7valueOrERKm
FN:3177,_ZNK5Catch6OptionImE4someEv
FN:3181,_ZNK5Catch6OptionImEcvbEv
FN:3201,_ZN5Catch14ReporterConfigD2Ev
FN:3214,_ZN5Catch19ReporterPreferencesC2Ev
FN:3219,_ZN5Catch8LazyStatINS_11TestRunInfoEED2Ev
FN:3219,_ZN5Catch8LazyStatINS_9GroupInfoEED2Ev
FN:3219,_ZN5Catch8LazyStatINS_12TestCaseInfoEEC2Ev
FN:3219,_ZN5Catch8LazyStatINS_12TestCaseInfoEED2Ev
FN:3219,_ZN5Catch8LazyStatINS_11TestRunInfoEEC2Ev
FN:3219,_ZN5Catch8LazyStatINS_9GroupInfoEEC2Ev
FN:3220,_ZN5Catch8LazyStatINS_9GroupInfoEEaSERKS1_
FN:3220,_ZN5Catch8LazyStatINS_11TestRunInfoEEaSERKS1_
FN:3220,_ZN5Catch8LazyStatINS_12TestCaseInfoEEaSERKS1_
FN:3225,_ZN5Catch8LazyStatINS_11TestRunInfoEE5resetEv
FN:3225,_ZN5Catch8LazyStatINS_12TestCaseInfoEE5resetEv
FN:3225,_ZN5Catch8LazyStatINS_9GroupInfoEE5resetEv
FN:3232,_ZN5Catch11TestRunInfoC2ERKS0_
FN:3232,_ZN5Catch11TestRunInfoD2Ev
FN:3236,_ZN5Catch9GroupInfoC2ERKS0_
FN:3236,_ZN5Catch9GroupInfoD2Ev
FN:3246,_ZN5Catch14AssertionStatsD2Ev
FN:3246,_ZN5Catch14AssertionStatsD0Ev
FN:3251,_ZN5Catch14AssertionStatsC2ERKS0_
FN:3262,_ZN5Catch12SectionStatsD2Ev
FN:3262,_ZN5Catch12SectionStatsD0Ev
FN:3262,_ZN5Catch12SectionStatsaSERKS0_
FN:3267,_ZN5Catch12SectionStatsC2ERKS0_
FN:3279,_ZN5Catch13TestCaseStatsD2Ev
FN:3279,_ZN5Catch13TestCaseStatsD0Ev
FN:3286,_ZN5Catch13TestCaseStatsC2ERKS0_
FN:3299,_ZN5Catch14TestGroupStatsD0Ev
FN:3299,_ZN5Catch14TestGroupStatsD2Ev
FN:3305,_ZN5Catch14TestGroupStatsC2ERKS0_
FN:3316,_ZN5Catch12TestRunStatsD2Ev
FN:3316,_ZN5Catch12TestRunStatsD0Ev
FN:3321,_ZN5Catch12TestRunStatsC2ERKS0_
FN:3332,_ZN5Catch13BenchmarkInfoD2Ev
FN:3335,_ZN5Catch14BenchmarkStatsD2Ev
FN:3341,_ZN5Catch18IStreamingReporterC2Ev
FN:3342,_ZN5Catch18IStreamingReporterD2Ev
FN:3342,_ZN5Catch18IStreamingReporterD0Ev
FN:3359,_ZN5Catch18IStreamingReporter17benchmarkStartingERKNS_13BenchmarkInfoE
FN:3367,_ZN5Catch18IStreamingReporter14benchmarkEndedERKNS_14BenchmarkStatsE
FN:3383,_ZN5Catch16IReporterFactoryC2Ev
FN:3383,_ZN5Catch16IReporterFactoryD2Ev
FN:3383,_ZN5Catch16IReporterFactoryD0Ev
FN:3390,_ZN5Catch17IReporterRegistryC2Ev
FN:3390,_ZN5Catch17IReporterRegistryD0Ev
FN:3390,_ZN5Catch17IReporterRegistryD2Ev
FN:3421,_ZN5Catch21StreamingReporterBaseINS_15ConsoleReporterEEC2ERKNS_14ReporterConfigE
FN:3421,_ZN5Catch21StreamingReporterBaseINS_11XmlReporterEEC2ERKNS_14ReporterConfigE
FN:3421,_ZN5Catch21StreamingReporterBaseINS_15CompactReporterEEC2ERKNS_14ReporterConfigE
FN:3421,_ZN5Catch21StreamingReporterBaseINS_21TestEventListenerBaseEEC2ERKNS_14ReporterConfigE
FN:3429,_ZNK5Catch21StreamingReporterBaseINS_21TestEventListenerBaseEE14getPreferencesEv
FN:3429,_ZNK5Catch21StreamingReporterBaseINS_15CompactReporterEE14getPreferencesEv
FN:3429,_ZNK5Catch21StreamingReporterBaseINS_15ConsoleReporterEE14getPreferencesEv
FN:3429,_ZNK5Catch21StreamingReporterBaseINS_11XmlReporterEE14getPreferencesEv
FN:3433,_ZN5Catch21StreamingReporterBaseINS_15ConsoleReporterEE23getSupportedVerbositiesEv
FN:3433,_ZN5Catch21StreamingReporterBaseINS_11XmlReporterEE23getSupportedVerbositiesEv
FN:3433,_ZN5Catch21StreamingReporterBaseINS_21TestEventListenerBaseEE23getSupportedVerbositiesEv
FN:3433,_ZN5Catch21StreamingReporterBaseINS_15CompactReporterEE23getSupportedVerbositiesEv
FN:3437,_ZN5Catch21StreamingReporterBaseINS_15CompactReporterEED0Ev
FN:3437,_ZN5Catch21StreamingReporterBaseINS_21TestEventListenerBaseEED0Ev
FN:3437,_ZN5Catch21StreamingReporterBaseINS_15ConsoleReporterEED2Ev
FN:3437,_ZN5Catch21StreamingReporterBaseINS_15CompactReporterEED2Ev
FN:3437,_ZN5Catch21StreamingReporterBaseINS_11XmlReporterEED2Ev
FN:3437,_ZN5Catch21StreamingReporterBaseINS_11XmlReporterEED0Ev
FN:3437,_ZN5Catch21StreamingReporterBaseINS_21TestEventListenerBaseEED2Ev
FN:3437,_ZN5Catch21StreamingReporterBaseINS_15ConsoleReporterEED0Ev
FN:3439,_ZN5Catch21StreamingReporterBaseINS_15ConsoleReporterEE19noMatchingTestCasesERKNSt7__cxx1112basic_stringIcSt11char_traitsIcESaIcEEE
FN:3439,_ZN5Catch21StreamingReporterBaseINS_21TestEventListenerBaseEE19noMatchingTestCasesERKNSt7__cxx1112basic_stringIcSt11char_traitsIcESaIcEEE
FN:3439,_ZN5Catch21StreamingReporterBaseINS_11XmlReporterEE19noMatchingTestCasesERKNSt7__cxx1112basic_stringIcSt11char_traitsIcESaIcEEE
FN:3439,_ZN5Catch21StreamingReporterBaseINS_15CompactReporterEE19noMatchingTestCasesERKNSt7__cxx1112basic_stringIcSt11char_traitsIcESaIcEEE
FN:3441,_ZN5Catch21StreamingReporterBaseINS_11XmlReporterEE15testRunStartingERKNS_11TestRunInfoE
FN:3441,_ZN5Catch21StreamingReporterBaseINS_15ConsoleReporterEE15testRunStartingERKNS_11TestRunInfoE
FN:3441,_ZN5Catch21StreamingReporterBaseINS_15CompactReporterEE15testRunStartingERKNS_11TestRunInfoE
FN:3441,_ZN5Catch21StreamingReporterBaseINS_21TestEventListenerBaseEE15testRunStartingERKNS_11TestRunInfoE
FN:3444,_ZN5Catch21StreamingReporterBaseINS_15CompactReporterEE17testGroupStartingERKNS_9GroupInfoE
FN:3444,_ZN5Catch21StreamingReporterBaseINS_15ConsoleReporterEE17testGroupStartingERKNS_9GroupInfoE
FN:3444,_ZN5Catch21StreamingReporterBaseINS_11XmlReporterEE17testGroupStartingERKNS_9GroupInfoE
FN:3444,_ZN5Catch21StreamingReporterBaseINS_21TestEventListenerBaseEE17testGroupStartingERKNS_9GroupInfoE
FN:3448,_ZN5Catch21StreamingReporterBaseINS_15ConsoleReporterEE16testCaseStartingERKNS_12TestCaseInfoE
FN:3448,_ZN5Catch21StreamingReporterBaseINS_21TestEventListenerBaseEE16testCaseStartingERKNS_12TestCaseInfoE
FN:3448,_ZN5Catch21StreamingReporterBaseINS_11XmlReporterEE16testCaseStartingERKNS_12TestCaseInfoE
FN:3448,_ZN5Catch21StreamingReporterBaseINS_15CompactReporterEE16testCaseStartingERKNS_12TestCaseInfoE
FN:3451,_ZN5Catch21StreamingReporterBaseINS_15CompactReporterEE15sectionStartingERKNS_11SectionInfoE
FN:3451,_ZN5Catch21StreamingReporterBaseINS_15ConsoleReporterEE15sectionStartingERKNS_11SectionInfoE
FN:3451,_ZN5Catch21StreamingReporterBaseINS_21TestEventListenerBaseEE15sectionStartingERKNS_11SectionInfoE
FN:3451,_ZN5Catch21StreamingReporterBaseINS_11XmlReporterEE15sectionStartingERKNS_11SectionInfoE
FN:3455,_ZN5Catch21StreamingReporterBaseINS_15CompactReporterEE12sectionEndedERKNS_12SectionStatsE
FN:3455,_ZN5Catch21StreamingReporterBaseINS_15ConsoleReporterEE12sectionEndedERKNS_12SectionStatsE
FN:3455,_ZN5Catch21StreamingReporterBaseINS_11XmlReporterEE12sectionEndedERKNS_12SectionStatsE
FN:3455,_ZN5Catch21StreamingReporterBaseINS_21TestEventListenerBaseEE12sectionEndedERKNS_12SectionStatsE
FN:3458,_ZN5Catch21StreamingReporterBaseINS_15CompactReporterEE13testCaseEndedERKNS_13TestCaseStatsE
FN:3458,_ZN5Catch21StreamingReporterBaseINS_15ConsoleReporterEE13testCaseEndedERKNS_13TestCaseStatsE
FN:3458,_ZN5Catch21StreamingReporterBaseINS_11XmlReporterEE13testCaseEndedERKNS_13TestCaseStatsE
FN:3458,_ZN5Catch21StreamingReporterBaseINS_21TestEventListenerBaseEE13testCaseEndedERKNS_13TestCaseStatsE
FN:3461,_ZN5Catch21StreamingReporterBaseINS_11XmlReporterEE14testGroupEndedERKNS_14TestGroupStatsE
FN:3461,_ZN5Catch21StreamingReporterBaseINS_21TestEventListenerBaseEE14testGroupEndedERKNS_14TestGroupStatsE
FN:3461,_ZN5Catch21StreamingReporterBaseINS_15ConsoleReporterEE14testGroupEndedERKNS_14TestGroupStatsE
FN:3461,_ZN5Catch21StreamingReporterBaseINS_15CompactReporterEE14testGroupEndedERKNS_14TestGroupStatsE
FN:3464,_ZN5Catch21StreamingReporterBaseINS_11XmlReporterEE12testRunEndedERKNS_12TestRunStatsE
FN:3464,_ZN5Catch21StreamingReporterBaseINS_21TestEventListenerBaseEE12testRunEndedERKNS_12TestRunStatsE
FN:3464,_ZN5Catch21StreamingReporterBaseINS_15ConsoleReporterEE12testRunEndedERKNS_12TestRunStatsE
FN:3464,_ZN5Catch21StreamingReporterBaseINS_15CompactReporterEE12testRunEndedERKNS_12TestRunStatsE
FN:3470,_ZN5Catch21StreamingReporterBaseINS_11XmlReporterEE8skipTestERKNS_12TestCaseInfoE
FN:3470,_ZN5Catch21StreamingReporterBaseINS_15CompactReporterEE8skipTestERKNS_12TestCaseInfoE
FN:3470,_ZN5Catch21StreamingReporterBaseINS_21TestEventListenerBaseEE8skipTestERKNS_12TestCaseInfoE
FN:3470,_ZN5Catch21StreamingReporterBaseINS_15ConsoleReporterEE8skipTestERKNS_12TestCaseInfoE
FN:3490,_ZN5Catch22CumulativeReporterBaseINS_13JunitReporterEE4NodeINS_12TestRunStatsENS3_INS_14TestGroupStatsENS3_INS_13TestCaseStatsENS2_11SectionNodeEEEEEEC2ERKS4_
FN:3490,_ZN5Catch22CumulativeReporterBaseINS_13JunitReporterEE4NodeINS_13TestCaseStatsENS2_11SectionNodeEEC2ERKS4_
FN:3490,_ZN5Catch22CumulativeReporterBaseINS_13JunitReporterEE4NodeINS_14TestGroupStatsENS3_INS_13TestCaseStatsENS2_11SectionNodeEEEEC2ERKS4_
FN:3491,_ZN5Catch22CumulativeReporterBaseINS_13JunitReporterEE4NodeINS_14TestGroupStatsENS3_INS_13TestCaseStatsENS2_11SectionNodeEEEED0Ev
FN:3491,_ZN5Catch22CumulativeReporterBaseINS_13JunitReporterEE4NodeINS_13TestCaseStatsENS2_11SectionNodeEED0Ev
FN:3491,_ZN5Catch22CumulativeReporterBaseINS_13JunitReporterEE4NodeINS_14TestGroupStatsENS3_INS_13TestCaseStatsENS2_11SectionNodeEEEED2Ev
FN:3491,_ZN5Catch22CumulativeReporterBaseINS_13JunitReporterEE4NodeINS_12TestRunStatsENS3_INS_14TestGroupStatsENS3_INS_13TestCaseStatsENS2_11SectionNodeEEEEEED2Ev
FN:3491,_ZN5Catch22CumulativeReporterBaseINS_13JunitReporterEE4NodeINS_13TestCaseStatsENS2_11SectionNodeEED2Ev
FN:3491,_ZN5Catch22CumulativeReporterBaseINS_13JunitReporterEE4NodeINS_12TestRunStatsENS3_INS_14TestGroupStatsENS3_INS_13TestCaseStatsENS2_11SectionNodeEEEEEED0Ev
FN:3498,_ZN5Catch22CumulativeReporterBaseINS_13JunitReporterEE11SectionNodeC2ERKNS_12SectionStatsE
FN:3499,_ZN5Catch22CumulativeReporterBaseINS_13JunitReporterEE11SectionNodeD2Ev
FN:3499,_ZN5Catch22CumulativeReporterBaseINS_13JunitReporterEE11SectionNodeD0Ev
FN:3518,_ZN5Catch22CumulativeReporterBaseINS_13JunitReporterEE13BySectionInfoC2ERKNS_11SectionInfoE
FN:3519,_ZN5Catch22CumulativeReporterBaseINS_13JunitReporterEE13BySectionInfoC2ERKS3_
FN:3520,_ZNK5Catch22CumulativeReporterBaseINS_13JunitReporterEE13BySectionInfoclERKSt10shared_ptrINS2_11SectionNodeEE
FN:3534,_ZN5Catch22CumulativeReporterBaseINS_13JunitReporterEEC2ERKNS_14ReporterConfigE
FN:3541,_ZN5Catch22CumulativeReporterBaseINS_13JunitReporterEED0Ev
FN:3541,_ZN5Catch22CumulativeReporterBaseINS_13JunitReporterEED2Ev
FN:3543,_ZNK5Catch22CumulativeReporterBaseINS_13JunitReporterEE14getPreferencesEv
FN:3547,_ZN5Catch22CumulativeReporterBaseINS_13JunitReporterEE23getSupportedVerbositiesEv
FN:3551,_ZN5Catch22CumulativeReporterBaseINS_13JunitReporterEE15testRunStartingERKNS_11TestRunInfoE
FN:3552,_ZN5Catch22CumulativeReporterBaseINS_13JunitReporterEE17testGroupStartingERKNS_9GroupInfoE
FN:3554,_ZN5Catch22CumulativeReporterBaseINS_13JunitReporterEE16testCaseStartingERKNS_12TestCaseInfoE
FN:3556,_ZN5Catch22CumulativeReporterBaseINS_13JunitReporterEE15sectionStartingERKNS_11SectionInfoE
FN:3581,_ZN5Catch22CumulativeReporterBaseINS_13JunitReporterEE17assertionStartingERKNS_13AssertionInfoE
FN:3583,_ZN5Catch22CumulativeReporterBaseINS_13JunitReporterEE14assertionEndedERKNS_14AssertionStatsE
FN:3595,_ZN5Catch22CumulativeReporterBaseINS_13JunitReporterEE12sectionEndedERKNS_12SectionStatsE
FN:3601,_ZN5Catch22CumulativeReporterBaseINS_13JunitReporterEE13testCaseEndedERKNS_13TestCaseStatsE
FN:3612,_ZN5Catch22CumulativeReporterBaseINS_13JunitReporterEE14testGroupEndedERKNS_14TestGroupStatsE
FN:3617,_ZN5Catch22CumulativeReporterBaseINS_13JunitReporterEE12testRunEndedERKNS_12TestRunStatsE
FN:3625,_ZN5Catch22CumulativeReporterBaseINS_13JunitReporterEE8skipTestERKNS_12TestCaseInfoE
FN:3643,_ZN5Catch14getLineOfCharsILc126EEEPKcv
FN:3643,_ZN5Catch14getLineOfCharsILc46EEEPKcv
FN:3643,_ZN5Catch14getLineOfCharsILc45EEEPKcv
FN:3652,_ZN5Catch21TestEventListenerBaseD0Ev
FN:3652,_ZN5Catch21TestEventListenerBaseD2Ev
FN:3728,_ZN5Catch17ReporterRegistrarINS_15ConsoleReporterEE15ReporterFactoryC2Ev
FN:3728,_ZN5Catch17ReporterRegistrarINS_15CompactReporterEE15ReporterFactoryD2Ev
FN:3728,_ZN5Catch17ReporterRegistrarINS_15CompactReporterEE15ReporterFactoryC2Ev
FN:3728,_ZN5Catch17ReporterRegistrarINS_13JunitReporterEE15ReporterFactoryC2Ev
FN:3728,_ZN5Catch17ReporterRegistrarINS_11XmlReporterEE15ReporterFactoryD2Ev
FN:3728,_ZN5Catch17ReporterRegistrarINS_11XmlReporterEE15ReporterFactoryD0Ev
FN:3728,_ZN5Catch17ReporterRegistrarINS_13JunitReporterEE15ReporterFactoryD2Ev
FN:3728,_ZN5Catch17ReporterRegistrarINS_13JunitReporterEE15ReporterFactoryD0Ev
FN:3728,_ZN5Catch17ReporterRegistrarINS_11XmlReporterEE15ReporterFactoryC2Ev
FN:3728,_ZN5Catch17ReporterRegistrarINS_15ConsoleReporterEE15ReporterFactoryD2Ev
FN:3728,_ZN5Catch17ReporterRegistrarINS_15CompactReporterEE15ReporterFactoryD0Ev
FN:3728,_ZN5Catch17ReporterRegistrarINS_15ConsoleReporterEE15ReporterFactoryD0Ev
FN:3730,_ZNK5Catch17ReporterRegistrarINS_15CompactReporterEE15ReporterFactory6createERKNS_14ReporterConfigE
FN:3730,_ZNK5Catch17ReporterRegistrarINS_11XmlReporterEE15ReporterFactory6createERKNS_14ReporterConfigE
FN:3730,_ZNK5Catch17ReporterRegistrarINS_13JunitReporterEE15ReporterFactory6createERKNS_14ReporterConfigE
FN:3730,_ZNK5Catch17ReporterRegistrarINS_15ConsoleReporterEE15ReporterFactory6createERKNS_14ReporterConfigE
FN:3734,_ZNK5Catch17ReporterRegistrarINS_15CompactReporterEE15ReporterFactory14getDescriptionEv
FN:3734,_ZNK5Catch17ReporterRegistrarINS_13JunitReporterEE15ReporterFactory14getDescriptionEv
FN:3734,_ZNK5Catch17ReporterRegistrarINS_11XmlReporterEE15ReporterFactory14getDescriptionEv
FN:3734,_ZNK5Catch17ReporterRegistrarINS_15ConsoleReporterEE15ReporterFactory14getDescriptionEv
FN:3741,_ZN5Catch17ReporterRegistrarINS_15ConsoleReporterEEC2ERKNSt7__cxx1112basic_stringIcSt11char_traitsIcESaIcEEE
FN:3741,_ZN5Catch17ReporterRegistrarINS_11XmlReporterEEC2ERKNSt7__cxx1112basic_stringIcSt11char_traitsIcESaIcEEE
FN:3741,_ZN5Catch17ReporterRegistrarINS_13JunitReporterEEC2ERKNSt7__cxx1112basic_stringIcSt11char_traitsIcESaIcEEE
FN:3741,_ZN5Catch17ReporterRegistrarINS_15CompactReporterEEC2ERKNSt7__cxx1112basic_stringIcSt11char_traitsIcESaIcEEE
FN:3807,_ZN5Catch16TestCaseTracking15NameAndLocationC2ERKS1_
FN:3807,_ZN5Catch16TestCaseTracking15NameAndLocationD2Ev
FN:3818,_ZN5Catch16TestCaseTracking8ITrackerC2Ev
FN:3818,_ZN5Catch16TestCaseTracking8ITrackerD2Ev
FN:3818,_ZN5Catch16TestCaseTracking8ITrackerD0Ev
FN:3846,_ZN5Catch16TestCaseTracking14TrackerContextD2Ev
FN:3846,_ZN5Catch16TestCaseTracking14TrackerContextC2Ev
FN:3873,_ZN5Catch16TestCaseTracking11TrackerBaseD2Ev
FN:3873,_ZN5Catch16TestCaseTracking11TrackerBaseD0Ev
FN:3884,_ZN5Catch16TestCaseTracking11TrackerBase14TrackerHasNameC2ERKS2_
FN:3884,_ZN5Catch16TestCaseTracking11TrackerBase14TrackerHasNameD2Ev
FN:3928,_ZN5Catch16TestCaseTracking14SectionTrackerD2Ev
FN:3928,_ZN5Catch16TestCaseTracking14SectionTrackerD0Ev
FN:3943,_ZN5Catch16TestCaseTracking12IndexTrackerD0Ev
FN:3943,_ZN5Catch16TestCaseTracking12IndexTrackerD2Ev
FN:3990,_ZN12_GLOBAL__N_116marginComparisonEddd
FN:3999,_ZN5Catch6Detail6ApproxC2Ed
FN:4006,_ZN5Catch6Detail6Approx6customEv
FN:4010,_ZNK5Catch6Detail6Approx8toStringB5cxx11Ev
FN:4016,_ZNK5Catch6Detail6Approx22equalityComparisonImplEd
FN:4024,_ZN5Catch11StringMakerINS_6Detail6ApproxEE7convertB5cxx11ERKS2_
FN:4044,_ZN5Catch8IContextC2Ev
FN:4044,_ZN5Catch8IContextD2Ev
FN:4044,_ZN5Catch8IContextD0Ev
FN:4053,_ZN5Catch15IMutableContextD0Ev
FN:4053,_ZN5Catch15IMutableContextD2Ev
FN:4053,_ZN5Catch15IMutableContextC2Ev
FN:4071,_ZN5CatchlsERSoRKNS_20ITransientExpressionE
FN:4076,_ZN5Catch14LazyExpressionC2Eb
FN:4080,_ZN5Catch14LazyExpressionC2ERKS0_
FN:4082,_ZNK5Catch14LazyExpressioncvbEv
FN:4086,_ZN5CatchlsERSoRKNS_14LazyExpressionE
FN:4102,_ZN5Catch16AssertionHandlerC2ENS_9StringRefERKNS_14SourceLineInfoES1_NS_17ResultDisposition5FlagsE
FN:4111,_ZN5Catch16AssertionHandlerD2Ev
FN:4118,_ZN5Catch16AssertionHandler6handleERKNS_20ITransientExpressionE
FN:4125,_ZN5Catch16AssertionHandler6handleENS_9ResultWas6OfTypeE
FN:4128,_ZN5Catch16AssertionHandler6handleENS_9ResultWas6OfTypeERKNS_9StringRefE
FN:4133,_ZN5Catch16AssertionHandler6handleENS_9ResultWas6OfTypeEPKNS_20ITransientExpressionEb
FN:4137,_ZN5Catch16AssertionHandler6handleERKNS_19AssertionResultDataEPKNS_20ITransientExpressionE
FN:4154,_ZNK5Catch16AssertionHandler11allowThrowsEv
FN:4158,_ZNK5Catch16AssertionHandler16shouldDebugBreakEv
FN:4161,_ZNK5Catch16AssertionHandler19reactWithDebugBreakEv
FN:4171,_ZNK5Catch16AssertionHandler22reactWithoutDebugBreakEv
FN:4176,_ZN5Catch16AssertionHandler18useActiveExceptionEv
FN:4180,_ZN5Catch16AssertionHandler17setExceptionGuardEv
FN:4184,_ZN5Catch16AssertionHandler19unsetExceptionGuardEv
FN:4191,_ZN5Catch24handleExceptionMatchExprERNS_16AssertionHandlerERKNSt7__cxx1112basic_stringIcSt11char_traitsIcESaIcEEENS_9StringRefE
FN:4200,_ZN5Catch19AssertionResultDataC2ENS_9ResultWas6OfTypeERKNS_14LazyExpressionE
FN:4204,_ZNK5Catch19AssertionResultData21reconstructExpressionB5cxx11Ev
FN:4217,_ZN5Catch15AssertionResultC2ERKNS_13AssertionInfoERKNS_19AssertionResultDataE
FN:4223,_ZNK5Catch15AssertionResult9succeededEv
FN:4228,_ZNK5Catch15AssertionResult4isOkEv
FN:4232,_ZNK5Catch15AssertionResult13getResultTypeEv
FN:4236,_ZNK5Catch15AssertionResult13hasExpressionEv
FN:4240,_ZNK5Catch15AssertionResult10hasMessageEv
FN:4244,_ZNK5Catch15AssertionResult13getExpressionB5cxx11Ev
FN:4251,_ZNK5Catch15AssertionResult20getExpressionInMacroB5cxx11Ev
FN:4265,_ZNK5Catch15AssertionResult21hasExpandedExpressionEv
FN:4269,_ZNK5Catch15AssertionResult21getExpandedExpressionB5cxx11Ev
FN:4276,_ZNK5Catch15AssertionResult10getMessageB5cxx11Ev
FN:4279,_ZNK5Catch15AssertionResult13getSourceInfoEv
FN:4283,_ZNK5Catch15AssertionResult16getTestMacroNameB5cxx11Ev
FN:4293,_ZN5Catch15BenchmarkLooper13getResolutionEv
FN:4297,_ZN5Catch15BenchmarkLooper11reportStartEv
FN:4300,_ZN5Catch15BenchmarkLooper19needsMoreIterationsEv
FN:4324,_ZN5Catch24handleExceptionMatchExprERNS_16AssertionHandlerERKNS_8Matchers4Impl11MatcherBaseINSt7__cxx1112basic_stringIcSt11char_traitsIcESaIcEEESA_EENS_9StringRefE
FN:4388,_ZN5Catch5clara8TextFlow12isWhitespaceEc
FN:4392,_ZN5Catch5clara8TextFlow17isBreakableBeforeEc
FN:4396,_ZN5Catch5clara8TextFlow16isBreakableAfterEc
FN:4403,_ZN5Catch5clara8TextFlow6ColumnD2Ev
FN:4403,_ZN5Catch5clara8TextFlow6ColumnC2ERKS2_
FN:4403,_ZN5Catch5clara8TextFlow6ColumnC2EOS2_
FN:4421,_ZN5Catch5clara8TextFlow6Column8iteratorC2ERKS2_m
FN:4426,_ZNK5Catch5clara8TextFlow6Column8iterator4lineB5cxx11Ev
FN:4428,_ZNK5Catch5clara8TextFlow6Column8iterator10isBoundaryEm
FN:4438,_ZN5Catch5clara8TextFlow6Column8iterator10calcLengthEv
FN:4466,_ZNK5Catch5clara8TextFlow6Column8iterator6indentEv
FN:4471,_ZNK5Catch5clara8TextFlow6Column8iterator18addIndentAndSuffixERKNSt7__cxx1112basic_stringIcSt11char_traitsIcESaIcEEE
FN:4476,_ZN5Catch5clara8TextFlow6Column8iteratorC2ERKS2_
FN:4484,_ZNK5Catch5clara8TextFlow6Column8iteratordeB5cxx11Ev
FN:4493,_ZN5Catch5clara8TextFlow6Column8iteratorppEv
FN:4515,_ZNK5Catch5clara8TextFlow6Column8iteratoreqERKS3_
FN:4521,_ZNK5Catch5clara8TextFlow6Column8iteratorneERKS3_
FN:4527,_ZN5Catch5clara8TextFlow6ColumnC2ERKNSt7__cxx1112basic_stringIcSt11char_traitsIcESaIcEEE
FN:4529,_ZN5Catch5clara8TextFlow6Column5widthEm
FN:4534,_ZN5Catch5clara8TextFlow6Column6indentEm
FN:4538,_ZN5Catch5clara8TextFlow6Column13initialIndentEm
FN:4543,_ZNK5Catch5clara8TextFlow6Column5widthEv
FN:4544,_ZNK5Catch5clara8TextFlow6Column5beginEv
FN:4545,_ZNK5Catch5clara8TextFlow6Column3endEv
FN:4547,_ZN5Catch5clara8TextFlowlsERSoRKNS1_6ColumnE
FN:4568,_ZN5Catch5clara8TextFlow6SpacerD2Ev
FN:4571,_ZN5Catch5clara8TextFlow6SpacerC2Em
FN:4576,_ZN5Catch5clara8TextFlow7ColumnsC2Ev
FN:4576,_ZN5Catch5clara8TextFlow7ColumnsD2Ev
FN:4576,_ZN5Catch5clara8TextFlow7ColumnsC2ERKS2_
FN:4581,_ZN5Catch5clara8TextFlow7Columns8iteratorD2Ev
FN:4589,_ZN5Catch5clara8TextFlow7Columns8iteratorC2ERKS2_NS3_6EndTagE
FN:4600,_ZN5Catch5clara8TextFlow7Columns8iteratorC2ERKS2_
FN:4613,_ZNK5Catch5clara8TextFlow7Columns8iteratorneERKS3_
FN:4616,_ZNK5Catch5clara8TextFlow7Columns8iteratordeB5cxx11Ev
FN:4635,_ZN5Catch5clara8TextFlow7Columns8iteratorppEv
FN:4650,_ZNK5Catch5clara8TextFlow7Columns5beginEv
FN:4651,_ZNK5Catch5clara8TextFlow7Columns3endEv
FN:4653,_ZN5Catch5clara8TextFlow7ColumnspLERKNS1_6ColumnE
FN:4657,_ZN5Catch5clara8TextFlow7ColumnsplERKNS1_6ColumnE
FN:4663,_ZN5Catch5clara8TextFlowlsERSoRKNS1_7ColumnsE
FN:4683,_ZN5Catch5clara8TextFlow6ColumnplERKS2_
FN:4724,_ZN5Catch5clara6detail4ArgsD2Ev
FN:4730,_ZN5Catch5clara6detail4ArgsC2EiPPc
FN:4741,_ZNK5Catch5clara6detail4Args7exeNameB5cxx11Ev
FN:4751,_ZN5Catch5clara6detail5TokenD2Ev
FN:4751,_ZN5Catch5clara6detail5TokenC2EOS2_
FN:4751,_ZN5Catch5clara6detail5TokenC2ERKS2_
FN:4751,_ZN5Catch5clara6detail5TokenC2Ev
FN:4751,_ZN5Catch5clara6detail5TokenaSEOS2_
FN:4756,_ZN5Catch5clara6detail11isOptPrefixEc
FN:4765,_ZN5Catch5clara6detail11TokenStreamD2Ev
FN:4765,_ZN5Catch5clara6detail11TokenStreamC2ERKS2_
FN:4771,_ZN5Catch5clara6detail11TokenStream10loadBufferEv
FN:4803,_ZN5Catch5clara6detail11TokenStreamC2ERKNS1_4ArgsE
FN:4805,_ZN5Catch5clara6detail11TokenStreamC2EN9__gnu_cxx17__normal_iteratorIPKNSt7__cxx1112basic_stringIcSt11char_traitsIcESaIcEEESt6vectorISA_SaISA_EEEESG_
FN:4809,_ZNK5Catch5clara6detail11TokenStreamcvbEv
FN:4815,_ZNK5Catch5clara6detail11TokenStreamdeEv
FN:4820,_ZNK5Catch5clara6detail11TokenStreamptEv
FN:4825,_ZN5Catch5clara6detail11TokenStreamppEv
FN:4837,_ZN5Catch5clara6detail10ResultBaseaSERKS2_
FN:4837,_ZN5Catch5clara6detail10ResultBaseC2ERKS2_
FN:4844,_ZN5Catch5clara6detail10ResultBaseC2ENS2_4TypeE
FN:4845,_ZN5Catch5clara6detail10ResultBaseD0Ev
FN:4845,_ZN5Catch5clara6detail10ResultBaseD2Ev
FN:4855,_ZNK5Catch5clara6detail15ResultValueBaseINS1_10ParseStateEE5valueEv
FN:4855,_ZNK5Catch5clara6detail15ResultValueBaseINS1_15ParseResultTypeEE5valueEv
FN:4861,_ZN5Catch5clara6detail15ResultValueBaseINS1_10ParseStateEEC2ENS1_10ResultBase4TypeE
FN:4861,_ZN5Catch5clara6detail15ResultValueBaseINS1_15ParseResultTypeEEC2ENS1_10ResultBase4TypeE
FN:4863,_ZN5Catch5clara6detail15ResultValueBaseINS1_10ParseStateEEC2ERKS4_
FN:4863,_ZN5Catch5clara6detail15ResultValueBaseINS1_15ParseResultTypeEEC2ERKS4_
FN:4868,_ZN5Catch5clara6detail15ResultValueBaseINS1_15ParseResultTypeEEC2ENS1_10ResultBase4TypeERKS3_
FN:4868,_ZN5Catch5clara6detail15ResultValueBaseINS1_10ParseStateEEC2ENS1_10ResultBase4TypeERKS3_
FN:4872,_ZN5Catch5clara6detail15ResultValueBaseINS1_10ParseStateEEaSERKS4_
FN:4881,_ZN5Catch5clara6detail15ResultValueBaseINS1_15ParseResultTypeEED2Ev
FN:4881,_ZN5Catch5clara6detail15ResultValueBaseINS1_10ParseStateEED2Ev
FN:4881,_ZN5Catch5clara6detail15ResultValueBaseINS1_10ParseStateEED0Ev
FN:4881,_ZN5Catch5clara6detail15ResultValueBaseINS1_15ParseResultTypeEED0Ev
FN:4892,_ZN5Catch5clara6detail15ResultValueBaseIvEC2EOS3_
FN:4892,_ZN5Catch5clara6detail15ResultValueBaseIvED2Ev
FN:4892,_ZN5Catch5clara6detail15ResultValueBaseIvED0Ev
FN:4894,_ZN5Catch5clara6detail15ResultValueBaseIvEC2ENS1_10ResultBase4TypeE
FN:4898,_ZN5Catch5clara6detail11BasicResultIvED2Ev
FN:4898,_ZN5Catch5clara6detail11BasicResultINS1_10ParseStateEED0Ev
FN:4898,_ZN5Catch5clara6detail11BasicResultINS1_15ParseResultTypeEED2Ev
FN:4898,_ZN5Catch5clara6detail11BasicResultINS1_10ParseStateEEC2EOS4_
FN:4898,_ZN5Catch5clara6detail11BasicResultINS1_10ParseStateEED2Ev
FN:4898,_ZN5Catch5clara6detail11BasicResultIvED0Ev
FN:4898,_ZN5Catch5clara6detail11BasicResultINS1_15ParseResultTypeEED0Ev
FN:4898,_ZN5Catch5clara6detail11BasicResultIvEC2EOS3_
FN:4898,_ZN5Catch5clara6detail11BasicResultINS1_10ParseStateEEaSEOS4_
FN:4898,_ZN5Catch5clara6detail11BasicResultINS1_15ParseResultTypeEEC2ERKS4_
FN:4901,_ZN5Catch5clara6detail11BasicResultINS1_10ParseStateEEC2IvEERKNS2_IT_EE
FN:4901,_ZN5Catch5clara6detail11BasicResultINS1_10ParseStateEEC2INS1_15ParseResultTypeEEERKNS2_IT_EE
FN:4909,_ZN5Catch5clara6detail11BasicResultINS1_10ParseStateEE2okIS3_EES4_RKT_
FN:4909,_ZN5Catch5clara6detail11BasicResultINS1_15ParseResultTypeEE2okIS3_EES4_RKT_
FN:4910,_ZN5Catch5clara6detail11BasicResultIvE2okEv
FN:4911,_ZN5Catch5clara6detail11BasicResultIvE10logicErrorERKNSt7__cxx1112basic_stringIcSt11char_traitsIcESaIcEEE
FN:4911,_ZN5Catch5clara6detail11BasicResultINS1_15ParseResultTypeEE10logicErrorERKNSt7__cxx1112basic_stringIcSt11char_traitsIcESaIcEEE
FN:4912,_ZN5Catch5clara6detail11BasicResultINS1_15ParseResultTypeEE12runtimeErrorERKNSt7__cxx1112basic_stringIcSt11char_traitsIcESaIcEEE
FN:4912,_ZN5Catch5clara6detail11BasicResultINS1_10ParseStateEE12runtimeErrorERKNSt7__cxx1112basic_stringIcSt11char_traitsIcESaIcEEE
FN:4914,_ZNK5Catch5clara6detail11BasicResultIvEcvbEv
FN:4914,_ZNK5Catch5clara6detail11BasicResultINS1_10ParseStateEEcvbEv
FN:4914,_ZNK5Catch5clara6detail11BasicResultINS1_15ParseResultTypeEEcvbEv
FN:4915,_ZNK5Catch5clara6detail11BasicResultIvE4typeEv
FN:4915,_ZNK5Catch5clara6detail11BasicResultINS1_10ParseStateEE4typeEv
FN:4915,_ZNK5Catch5clara6detail11BasicResultINS1_15ParseResultTypeEE4typeEv
FN:4916,_ZNK5Catch5clara6detail11BasicResultINS1_10ParseStateEE12errorMessageEv
FN:4916,_ZNK5Catch5clara6detail11BasicResultINS1_15ParseResultTypeEE12errorMessageEv
FN:4916,_ZNK5Catch5clara6detail11BasicResultIvE12errorMessageEv
FN:4919,_ZNK5Catch5clara6detail11BasicResultINS1_15ParseResultTypeEE9enforceOkEv
FN:4919,_ZNK5Catch5clara6detail11BasicResultINS1_10ParseStateEE9enforceOkEv
FN:4919,_ZNK5Catch5clara6detail11BasicResultIvE9enforceOkEv
FN:4933,_ZN5Catch5clara6detail11BasicResultINS1_15ParseResultTypeEEC2ENS1_10ResultBase4TypeERKNSt7__cxx1112basic_stringIcSt11char_traitsIcESaIcEEE
FN:4933,_ZN5Catch5clara6detail11BasicResultIvEC2ENS1_10ResultBase4TypeERKNSt7__cxx1112basic_stringIcSt11char_traitsIcESaIcEEE
FN:4933,_ZN5Catch5clara6detail11BasicResultINS1_10ParseStateEEC2ENS1_10ResultBase4TypeERKNSt7__cxx1112basic_stringIcSt11char_traitsIcESaIcEEE
FN:4940,_ZN5Catch5clara6detail11BasicResultIvEC2ENS1_10ResultBase4TypeE
FN:4940,_ZN5Catch5clara6detail11BasicResultINS1_10ParseStateEEC2ENS1_10ResultBase4TypeERKS3_
FN:4940,_ZN5Catch5clara6detail11BasicResultINS1_15ParseResultTypeEEC2ENS1_10ResultBase4TypeERKS3_
FN:4948,_ZN5Catch5clara6detail10ParseStateD2Ev
FN:4948,_ZN5Catch5clara6detail10ParseStateC2ERKS2_
FN:4951,_ZN5Catch5clara6detail10ParseStateC2ENS1_15ParseResultTypeERKNS1_11TokenStreamE
FN:4956,_ZNK5Catch5clara6detail10ParseState4typeEv
FN:4957,_ZNK5Catch5clara6detail10ParseState15remainingTokensEv
FN:4968,_ZN5Catch5clara6detail11HelpColumnsaSERKS2_
FN:4968,_ZN5Catch5clara6detail11HelpColumnsD2Ev
FN:4968,_ZN5Catch5clara6detail11HelpColumnsC2ERKS2_
FN:4968,_ZN5Catch5clara6detail11HelpColumnsaSEOS2_
FN:4968,_ZN5Catch5clara6detail11HelpColumnsC2EOS2_
FN:4974,_ZN5Catch5clara6detail11convertIntoIiEENS1_11BasicResultINS1_15ParseResultTypeEEERKNSt7__cxx1112basic_stringIcSt11char_traitsIcESaIcEEERT_
FN:4974,_ZN5Catch5clara6detail11convertIntoIjEENS1_11BasicResultINS1_15ParseResultTypeEEERKNSt7__cxx1112basic_stringIcSt11char_traitsIcESaIcEEERT_
FN:4983,_ZN5Catch5clara6detail11convertIntoERKNSt7__cxx1112basic_stringIcSt11char_traitsIcESaIcEEERS7_
FN:4987,_ZN5Catch5clara6detail11convertIntoERKNSt7__cxx1112basic_stringIcSt11char_traitsIcESaIcEEERb
FN:4989,_ZZN5Catch5clara6detail11convertIntoERKNSt7__cxx1112basic_stringIcSt11char_traitsIcESaIcEEERbENUlcE_4_FUNEc
FN:4989,_ZZN5Catch5clara6detail11convertIntoERKNSt7__cxx1112basic_stringIcSt11char_traitsIcESaIcEEERbENKUlcE_clEc
FN:5000,_ZN5Catch5clara6detail12BoundRefBaseC2Ev
FN:5006,_ZN5Catch5clara6detail12BoundRefBaseD2Ev
FN:5006,_ZN5Catch5clara6detail12BoundRefBaseD0Ev
FN:5009,_ZNK5Catch5clara6detail12BoundRefBase11isContainerEv
FN:5014,_ZN5Catch5clara6detail17BoundValueRefBaseD2Ev
FN:5014,_ZN5Catch5clara6detail17BoundValueRefBaseD0Ev
FN:5014,_ZN5Catch5clara6detail17BoundValueRefBaseC2Ev
FN:5015,_ZNK5Catch5clara6detail17BoundValueRefBase6isFlagEv
FN:5017,_ZN5Catch5clara6detail17BoundValueRefBase7setFlagEb
FN:5022,_ZN5Catch5clara6detail16BoundFlagRefBaseC2Ev
FN:5022,_ZN5Catch5clara6detail16BoundFlagRefBaseD0Ev
FN:5022,_ZN5Catch5clara6detail16BoundFlagRefBaseD2Ev
FN:5023,_ZNK5Catch5clara6detail16BoundFlagRefBase6isFlagEv
FN:5025,_ZN5Catch5clara6detail16BoundFlagRefBase8setValueERKNSt7__cxx1112basic_stringIcSt11char_traitsIcESaIcEEE
FN:5035,_ZN5Catch5clara6detail8BoundRefIiED0Ev
FN:5035,_ZN5Catch5clara6detail8BoundRefINSt7__cxx1112basic_stringIcSt11char_traitsIcESaIcEEEED0Ev
FN:5035,_ZN5Catch5clara6detail8BoundRefINSt7__cxx1112basic_stringIcSt11char_traitsIcESaIcEEEED2Ev
FN:5035,_ZN5Catch5clara6detail8BoundRefIiED2Ev
FN:5038,_ZN5Catch5clara6detail8BoundRefIiEC2ERi
FN:5038,_ZN5Catch5clara6detail8BoundRefINSt7__cxx1112basic_stringIcSt11char_traitsIcESaIcEEEEC2ERS8_
FN:5040,_ZN5Catch5clara6detail8BoundRefIiE8setValueERKNSt7__cxx1112basic_stringIcSt11char_traitsIcESaIcEEE
FN:5040,_ZN5Catch5clara6detail8BoundRefINSt7__cxx1112basic_stringIcSt11char_traitsIcESaIcEEEE8setValueERKS8_
FN:5046,_ZN5Catch5clara6detail8BoundRefISt6vectorINSt7__cxx1112basic_stringIcSt11char_traitsIcESaIcEEESaIS9_EEED0Ev
FN:5046,_ZN5Catch5clara6detail8BoundRefISt6vectorINSt7__cxx1112basic_stringIcSt11char_traitsIcESaIcEEESaIS9_EEED2Ev
FN:5049,_ZN5Catch5clara6detail8BoundRefISt6vectorINSt7__cxx1112basic_stringIcSt11char_traitsIcESaIcEEESaIS9_EEEC2ERSB_
FN:5051,_ZNK5Catch5clara6detail8BoundRefISt6vectorINSt7__cxx1112basic_stringIcSt11char_traitsIcESaIcEEESaIS9_EEE11isContainerEv
FN:5053,_ZN5Catch5clara6detail8BoundRefISt6vectorINSt7__cxx1112basic_stringIcSt11char_traitsIcESaIcEEESaIS9_EEE8setValueERKS9_
FN:5062,_ZN5Catch5clara6detail12BoundFlagRefD0Ev
FN:5062,_ZN5Catch5clara6detail12BoundFlagRefD2Ev
FN:5065,_ZN5Catch5clara6detail12BoundFlagRefC2ERb
FN:5067,_ZN5Catch5clara6detail12BoundFlagRef7setFlagEb
FN:5078,_ZN5Catch5clara6detail13LambdaInvokerINS1_11BasicResultINS1_15ParseResultTypeEEEE6invokeIZNS_21makeCommandLineParserERNS_10ConfigDataEEUlRKNSt7__cxx1112basic_stringIcSt11char_traitsIcESaIcEEEE4_SF_EES5_RKT_RKT0_
FN:5078,_ZN5Catch5clara6detail13LambdaInvokerINS1_11BasicResultINS1_15ParseResultTypeEEEE6invokeIZNS_21makeCommandLineParserERNS_10ConfigDataEEUlRKNSt7__cxx1112basic_stringIcSt11char_traitsIcESaIcEEEE3_SF_EES5_RKT_RKT0_
FN:5078,_ZN5Catch5clara6detail13LambdaInvokerINS1_11BasicResultINS1_15ParseResultTypeEEEE6invokeIZNS_21makeCommandLineParserERNS_10ConfigDataEEUlRKNSt7__cxx1112basic_stringIcSt11char_traitsIcESaIcEEEE_SF_EES5_RKT_RKT0_
FN:5078,_ZN5Catch5clara6detail13LambdaInvokerINS1_11BasicResultINS1_15ParseResultTypeEEEE6invokeIZNS_21makeCommandLineParserERNS_10ConfigDataEEUlRKNSt7__cxx1112basic_stringIcSt11char_traitsIcESaIcEEEE0_SF_EES5_RKT_RKT0_
FN:5078,_ZN5Catch5clara6detail13LambdaInvokerINS1_11BasicResultINS1_15ParseResultTypeEEEE6invokeIZNS_21makeCommandLineParserERNS_10ConfigDataEEUlRKNSt7__cxx1112basic_stringIcSt11char_traitsIcESaIcEEEE2_SF_EES5_RKT_RKT0_
FN:5078,_ZN5Catch5clara6detail13LambdaInvokerINS1_11BasicResultINS1_15ParseResultTypeEEEE6invokeIZNS_21makeCommandLineParserERNS_10ConfigDataEEUlRKNSt7__cxx1112basic_stringIcSt11char_traitsIcESaIcEEEE1_SF_EES5_RKT_RKT0_
FN:5078,_ZN5Catch5clara6detail13LambdaInvokerINS1_11BasicResultINS1_15ParseResultTypeEEEE6invokeIZNS1_4HelpC4ERbEUlbE_bEES5_RKT_RKT0_
FN:5078,_ZN5Catch5clara6detail13LambdaInvokerINS1_11BasicResultINS1_15ParseResultTypeEEEE6invokeIZNS_21makeCommandLineParserERNS_10ConfigDataEEUlRKNSt7__cxx1112basic_stringIcSt11char_traitsIcESaIcEEEE5_SF_EES5_RKT_RKT0_
FN:5086,_ZN5Catch5clara6detail13LambdaInvokerIvE6invokeIZNS_21makeCommandLineParserERNS_10ConfigDataEEUliE7_iEENS1_11BasicResultINS1_15ParseResultTypeEEERKT_RKT0_
FN:5086,_ZN5Catch5clara6detail13LambdaInvokerIvE6invokeIZNS_21makeCommandLineParserERNS_10ConfigDataEEUlbE6_bEENS1_11BasicResultINS1_15ParseResultTypeEEERKT_RKT0_
FN:5086,_ZN5Catch5clara6detail13LambdaInvokerIvE6invokeIZNS_21makeCommandLineParserERNS_10ConfigDataEEUlbE8_bEENS1_11BasicResultINS1_15ParseResultTypeEEERKT_RKT0_
FN:5093,_ZN5Catch5clara6detail12invokeLambdaIiZNS_21makeCommandLineParserERNS_10ConfigDataEEUliE7_EENS1_11BasicResultINS1_15ParseResultTypeEEERKT0_RKNSt7__cxx1112basic_stringIcSt11char_traitsIcESaIcEEE
FN:5093,_ZN5Catch5clara6detail12invokeLambdaINSt7__cxx1112basic_stringIcSt11char_traitsIcESaIcEEEZNS_21makeCommandLineParserERNS_10ConfigDataEEUlRKS8_E1_EENS1_11BasicResultINS1_15ParseResultTypeEEERKT0_SC_
FN:5093,_ZN5Catch5clara6detail12invokeLambdaINSt7__cxx1112basic_stringIcSt11char_traitsIcESaIcEEEZNS_21makeCommandLineParserERNS_10ConfigDataEEUlRKS8_E_EENS1_11BasicResultINS1_15ParseResultTypeEEERKT0_SC_
FN:5093,_ZN5Catch5clara6detail12invokeLambdaINSt7__cxx1112basic_stringIcSt11char_traitsIcESaIcEEEZNS_21makeCommandLineParserERNS_10ConfigDataEEUlRKS8_E4_EENS1_11BasicResultINS1_15ParseResultTypeEEERKT0_SC_
FN:5093,_ZN5Catch5clara6detail12invokeLambdaINSt7__cxx1112basic_stringIcSt11char_traitsIcESaIcEEEZNS_21makeCommandLineParserERNS_10ConfigDataEEUlRKS8_E2_EENS1_11BasicResultINS1_15ParseResultTypeEEERKT0_SC_
FN:5093,_ZN5Catch5clara6detail12invokeLambdaIbZNS_21makeCommandLineParserERNS_10ConfigDataEEUlbE8_EENS1_11BasicResultINS1_15ParseResultTypeEEERKT0_RKNSt7__cxx1112basic_stringIcSt11char_traitsIcESaIcEEE
FN:5093,_ZN5Catch5clara6detail12invokeLambdaINSt7__cxx1112basic_stringIcSt11char_traitsIcESaIcEEEZNS_21makeCommandLineParserERNS_10ConfigDataEEUlRKS8_E5_EENS1_11BasicResultINS1_15ParseResultTypeEEERKT0_SC_
FN:5093,_ZN5Catch5clara6detail12invokeLambdaINSt7__cxx1112basic_stringIcSt11char_traitsIcESaIcEEEZNS_21makeCommandLineParserERNS_10ConfigDataEEUlRKS8_E0_EENS1_11BasicResultINS1_15ParseResultTypeEEERKT0_SC_
FN:5093,_ZN5Catch5clara6detail12invokeLambdaINSt7__cxx1112basic_stringIcSt11char_traitsIcESaIcEEEZNS_21makeCommandLineParserERNS_10ConfigDataEEUlRKS8_E3_EENS1_11BasicResultINS1_15ParseResultTypeEEERKT0_SC_
FN:5102,_ZN5Catch5clara6detail11BoundLambdaIZNS_21makeCommandLineParserERNS_10ConfigDataEEUlRKNSt7__cxx1112basic_stringIcSt11char_traitsIcESaIcEEEE_ED0Ev
FN:5102,_ZN5Catch5clara6detail11BoundLambdaIZNS_21makeCommandLineParserERNS_10ConfigDataEEUlbE8_ED0Ev
FN:5102,_ZN5Catch5clara6detail11BoundLambdaIZNS_21makeCommandLineParserERNS_10ConfigDataEEUlRKNSt7__cxx1112basic_stringIcSt11char_traitsIcESaIcEEEE4_ED2Ev
FN:5102,_ZN5Catch5clara6detail11BoundLambdaIZNS_21makeCommandLineParserERNS_10ConfigDataEEUlRKNSt7__cxx1112basic_stringIcSt11char_traitsIcESaIcEEEE_ED2Ev
FN:5102,_ZN5Catch5clara6detail11BoundLambdaIZNS_21makeCommandLineParserERNS_10ConfigDataEEUlRKNSt7__cxx1112basic_stringIcSt11char_traitsIcESaIcEEEE4_ED0Ev
FN:5102,_ZN5Catch5clara6detail11BoundLambdaIZNS_21makeCommandLineParserERNS_10ConfigDataEEUlRKNSt7__cxx1112basic_stringIcSt11char_traitsIcESaIcEEEE0_ED0Ev
FN:5102,_ZN5Catch5clara6detail11BoundLambdaIZNS_21makeCommandLineParserERNS_10ConfigDataEEUliE7_ED2Ev
FN:5102,_ZN5Catch5clara6detail11BoundLambdaIZNS_21makeCommandLineParserERNS_10ConfigDataEEUlRKNSt7__cxx1112basic_stringIcSt11char_traitsIcESaIcEEEE5_ED0Ev
FN:5102,_ZN5Catch5clara6detail11BoundLambdaIZNS_21makeCommandLineParserERNS_10ConfigDataEEUlRKNSt7__cxx1112basic_stringIcSt11char_traitsIcESaIcEEEE1_ED2Ev
FN:5102,_ZN5Catch5clara6detail11BoundLambdaIZNS_21makeCommandLineParserERNS_10ConfigDataEEUlbE8_ED2Ev
FN:5102,_ZN5Catch5clara6detail11BoundLambdaIZNS_21makeCommandLineParserERNS_10ConfigDataEEUliE7_ED0Ev
FN:5102,_ZN5Catch5clara6detail11BoundLambdaIZNS_21makeCommandLineParserERNS_10ConfigDataEEUlRKNSt7__cxx1112basic_stringIcSt11char_traitsIcESaIcEEEE3_ED2Ev
FN:5102,_ZN5Catch5clara6detail11BoundLambdaIZNS_21makeCommandLineParserERNS_10ConfigDataEEUlRKNSt7__cxx1112basic_stringIcSt11char_traitsIcESaIcEEEE3_ED0Ev
FN:5102,_ZN5Catch5clara6detail11BoundLambdaIZNS_21makeCommandLineParserERNS_10ConfigDataEEUlRKNSt7__cxx1112basic_stringIcSt11char_traitsIcESaIcEEEE5_ED2Ev
FN:5102,_ZN5Catch5clara6detail11BoundLambdaIZNS_21makeCommandLineParserERNS_10ConfigDataEEUlRKNSt7__cxx1112basic_stringIcSt11char_traitsIcESaIcEEEE2_ED0Ev
FN:5102,_ZN5Catch5clara6detail11BoundLambdaIZNS_21makeCommandLineParserERNS_10ConfigDataEEUlRKNSt7__cxx1112basic_stringIcSt11char_traitsIcESaIcEEEE0_ED2Ev
FN:5102,_ZN5Catch5clara6detail11BoundLambdaIZNS_21makeCommandLineParserERNS_10ConfigDataEEUlRKNSt7__cxx1112basic_stringIcSt11char_traitsIcESaIcEEEE1_ED0Ev
FN:5102,_ZN5Catch5clara6detail11BoundLambdaIZNS_21makeCommandLineParserERNS_10ConfigDataEEUlRKNSt7__cxx1112basic_stringIcSt11char_traitsIcESaIcEEEE2_ED2Ev
FN:5106,_ZN5Catch5clara6detail11BoundLambdaIZNS_21makeCommandLineParserERNS_10ConfigDataEEUlRKNSt7__cxx1112basic_stringIcSt11char_traitsIcESaIcEEEE5_EC2ERKSD_
FN:5106,_ZN5Catch5clara6detail11BoundLambdaIZNS_21makeCommandLineParserERNS_10ConfigDataEEUlRKNSt7__cxx1112basic_stringIcSt11char_traitsIcESaIcEEEE_EC2ERKSD_
FN:5106,_ZN5Catch5clara6detail11BoundLambdaIZNS_21makeCommandLineParserERNS_10ConfigDataEEUlbE8_EC2ERKS5_
FN:5106,_ZN5Catch5clara6detail11BoundLambdaIZNS_21makeCommandLineParserERNS_10ConfigDataEEUlRKNSt7__cxx1112basic_stringIcSt11char_traitsIcESaIcEEEE4_EC2ERKSD_
FN:5106,_ZN5Catch5clara6detail11BoundLambdaIZNS_21makeCommandLineParserERNS_10ConfigDataEEUliE7_EC2ERKS5_
FN:5106,_ZN5Catch5clara6detail11BoundLambdaIZNS_21makeCommandLineParserERNS_10ConfigDataEEUlRKNSt7__cxx1112basic_stringIcSt11char_traitsIcESaIcEEEE3_EC2ERKSD_
FN:5106,_ZN5Catch5clara6detail11BoundLambdaIZNS_21makeCommandLineParserERNS_10ConfigDataEEUlRKNSt7__cxx1112basic_stringIcSt11char_traitsIcESaIcEEEE0_EC2ERKSD_
FN:5106,_ZN5Catch5clara6detail11BoundLambdaIZNS_21makeCommandLineParserERNS_10ConfigDataEEUlRKNSt7__cxx1112basic_stringIcSt11char_traitsIcESaIcEEEE1_EC2ERKSD_
FN:5106,_ZN5Catch5clara6detail11BoundLambdaIZNS_21makeCommandLineParserERNS_10ConfigDataEEUlRKNSt7__cxx1112basic_stringIcSt11char_traitsIcESaIcEEEE2_EC2ERKSD_
FN:5108,_ZN5Catch5clara6detail11BoundLambdaIZNS_21makeCommandLineParserERNS_10ConfigDataEEUlbE8_E8setValueERKNSt7__cxx1112basic_stringIcSt11char_traitsIcESaIcEEE
FN:5108,_ZN5Catch5clara6detail11BoundLambdaIZNS_21makeCommandLineParserERNS_10ConfigDataEEUlRKNSt7__cxx1112basic_stringIcSt11char_traitsIcESaIcEEEE3_E8setValueESC_
FN:5108,_ZN5Catch5clara6detail11BoundLambdaIZNS_21makeCommandLineParserERNS_10ConfigDataEEUlRKNSt7__cxx1112basic_stringIcSt11char_traitsIcESaIcEEEE0_E8setValueESC_
FN:5108,_ZN5Catch5clara6detail11BoundLambdaIZNS_21makeCommandLineParserERNS_10ConfigDataEEUlRKNSt7__cxx1112basic_stringIcSt11char_traitsIcESaIcEEEE5_E8setValueESC_
FN:5108,_ZN5Catch5clara6detail11BoundLambdaIZNS_21makeCommandLineParserERNS_10ConfigDataEEUlRKNSt7__cxx1112basic_stringIcSt11char_traitsIcESaIcEEEE4_E8setValueESC_
FN:5108,_ZN5Catch5clara6detail11BoundLambdaIZNS_21makeCommandLineParserERNS_10ConfigDataEEUliE7_E8setValueERKNSt7__cxx1112basic_stringIcSt11char_traitsIcESaIcEEE
FN:5108,_ZN5Catch5clara6detail11BoundLambdaIZNS_21makeCommandLineParserERNS_10ConfigDataEEUlRKNSt7__cxx1112basic_stringIcSt11char_traitsIcESaIcEEEE1_E8setValueESC_
FN:5108,_ZN5Catch5clara6detail11BoundLambdaIZNS_21makeCommandLineParserERNS_10ConfigDataEEUlRKNSt7__cxx1112basic_stringIcSt11char_traitsIcESaIcEEEE_E8setValueESC_
FN:5108,_ZN5Catch5clara6detail11BoundLambdaIZNS_21makeCommandLineParserERNS_10ConfigDataEEUlRKNSt7__cxx1112basic_stringIcSt11char_traitsIcESaIcEEEE2_E8setValueESC_
FN:5114,_ZN5Catch5clara6detail15BoundFlagLambdaIZNS1_4HelpC4ERbEUlbE_ED2Ev
FN:5114,_ZN5Catch5clara6detail15BoundFlagLambdaIZNS_21makeCommandLineParserERNS_10ConfigDataEEUlbE6_ED0Ev
FN:5114,_ZN5Catch5clara6detail15BoundFlagLambdaIZNS1_4HelpC4ERbEUlbE_ED0Ev
FN:5114,_ZN5Catch5clara6detail15BoundFlagLambdaIZNS_21makeCommandLineParserERNS_10ConfigDataEEUlbE6_ED2Ev
FN:5120,_ZN5Catch5clara6detail15BoundFlagLambdaIZNS1_4HelpC4ERbEUlbE_EC2ERKS5_
FN:5120,_ZN5Catch5clara6detail15BoundFlagLambdaIZNS_21makeCommandLineParserERNS_10ConfigDataEEUlbE6_EC2ERKS5_
FN:5122,_ZN5Catch5clara6detail15BoundFlagLambdaIZNS1_4HelpC4ERbEUlbE_E7setFlagEb
FN:5122,_ZN5Catch5clara6detail15BoundFlagLambdaIZNS_21makeCommandLineParserERNS_10ConfigDataEEUlbE6_E7setFlagEb
FN:5131,_ZN5Catch5clara6detail10ParserBaseC2Ev
FN:5131,_ZN5Catch5clara6detail10ParserBaseC2ERKS2_
FN:5131,_ZN5Catch5clara6detail10ParserBaseaSERKS2_
FN:5133,_ZN5Catch5clara6detail10ParserBaseD2Ev
FN:5133,_ZN5Catch5clara6detail10ParserBaseD0Ev
FN:5134,_ZNK5Catch5clara6detail10ParserBase8validateEv
FN:5136,_ZNK5Catch5clara6detail10ParserBase11cardinalityEv
FN:5138,_ZNK5Catch5clara6detail10ParserBase5parseERKNS1_4ArgsE
FN:5144,_ZN5Catch5clara6detail20ComposableParserImplINS1_7ExeNameEEC2ERKS4_
FN:5144,_ZN5Catch5clara6detail20ComposableParserImplINS1_3ArgEED2Ev
FN:5144,_ZN5Catch5clara6detail20ComposableParserImplINS1_7ExeNameEEC2Ev
FN:5144,_ZN5Catch5clara6detail20ComposableParserImplINS1_3ArgEEaSERKS4_
FN:5144,_ZN5Catch5clara6detail20ComposableParserImplINS1_3OptEED2Ev
FN:5144,_ZN5Catch5clara6detail20ComposableParserImplINS1_7ExeNameEED0Ev
FN:5144,_ZN5Catch5clara6detail20ComposableParserImplINS1_3OptEEaSERKS4_
FN:5144,_ZN5Catch5clara6detail20ComposableParserImplINS1_3OptEEC2EOS4_
FN:5144,_ZN5Catch5clara6detail20ComposableParserImplINS1_7ExeNameEEaSEOS4_
FN:5144,_ZN5Catch5clara6detail20ComposableParserImplINS1_7ExeNameEED2Ev
FN:5144,_ZN5Catch5clara6detail20ComposableParserImplINS1_3ArgEED0Ev
FN:5144,_ZN5Catch5clara6detail20ComposableParserImplINS1_3OptEED0Ev
FN:5144,_ZN5Catch5clara6detail20ComposableParserImplINS1_3ArgEEC2ERKS4_
FN:5144,_ZN5Catch5clara6detail20ComposableParserImplINS1_3ArgEEC2EOS4_
FN:5144,_ZN5Catch5clara6detail20ComposableParserImplINS1_3OptEEC2Ev
FN:5144,_ZN5Catch5clara6detail20ComposableParserImplINS1_3ArgEEC2Ev
FN:5144,_ZN5Catch5clara6detail20ComposableParserImplINS1_7ExeNameEEaSERKS4_
FN:5144,_ZN5Catch5clara6detail20ComposableParserImplINS1_3OptEEC2ERKS4_
FN:5152,_ZN5Catch5clara6detail13ParserRefImplINS1_3OptEEaSERKS4_
FN:5152,_ZN5Catch5clara6detail13ParserRefImplINS1_3ArgEEC2EOS4_
FN:5152,_ZN5Catch5clara6detail13ParserRefImplINS1_3OptEED2Ev
FN:5152,_ZN5Catch5clara6detail13ParserRefImplINS1_3ArgEEaSERKS4_
FN:5152,_ZN5Catch5clara6detail13ParserRefImplINS1_3ArgEED2Ev
FN:5152,_ZN5Catch5clara6detail13ParserRefImplINS1_3OptEED0Ev
FN:5152,_ZN5Catch5clara6detail13ParserRefImplINS1_3OptEEC2EOS4_
FN:5152,_ZN5Catch5clara6detail13ParserRefImplINS1_3ArgEEC2ERKS4_
FN:5152,_ZN5Catch5clara6detail13ParserRefImplINS1_3OptEEC2ERKS4_
FN:5152,_ZN5Catch5clara6detail13ParserRefImplINS1_3ArgEED0Ev
FN:5159,_ZN5Catch5clara6detail13ParserRefImplINS1_3OptEEC2ERKSt10shared_ptrINS1_12BoundRefBaseEE
FN:5163,_ZN5Catch5clara6detail13ParserRefImplINS1_3OptEEC2ISt6vectorINSt7__cxx1112basic_stringIcSt11char_traitsIcESaIcEEESaISC_EEEERT_RKSC_
FN:5163,_ZN5Catch5clara6detail13ParserRefImplINS1_3OptEEC2INSt7__cxx1112basic_stringIcSt11char_traitsIcESaIcEEEEERT_RKSB_
FN:5163,_ZN5Catch5clara6detail13ParserRefImplINS1_3OptEEC2IiEERT_RKNSt7__cxx1112basic_stringIcSt11char_traitsIcESaIcEEE
FN:5163,_ZN5Catch5clara6detail13ParserRefImplINS1_3ArgEEC2ISt6vectorINSt7__cxx1112basic_stringIcSt11char_traitsIcESaIcEEESaISC_EEEERT_RKSC_
FN:5169,_ZN5Catch5clara6detail13ParserRefImplINS1_3OptEEC2IZNS_21makeCommandLineParserERNS_10ConfigDataEEUlRKNSt7__cxx1112basic_stringIcSt11char_traitsIcESaIcEEEE3_EERKT_SF_
FN:5169,_ZN5Catch5clara6detail13ParserRefImplINS1_3OptEEC2IZNS_21makeCommandLineParserERNS_10ConfigDataEEUlRKNSt7__cxx1112basic_stringIcSt11char_traitsIcESaIcEEEE5_EERKT_SF_
FN:5169,_ZN5Catch5clara6detail13ParserRefImplINS1_3OptEEC2IZNS_21makeCommandLineParserERNS_10ConfigDataEEUliE7_EERKT_RKNSt7__cxx1112basic_stringIcSt11char_traitsIcESaIcEEE
FN:5169,_ZN5Catch5clara6detail13ParserRefImplINS1_3OptEEC2IZNS_21makeCommandLineParserERNS_10ConfigDataEEUlbE8_EERKT_RKNSt7__cxx1112basic_stringIcSt11char_traitsIcESaIcEEE
FN:5169,_ZN5Catch5clara6detail13ParserRefImplINS1_3OptEEC2IZNS_21makeCommandLineParserERNS_10ConfigDataEEUlRKNSt7__cxx1112basic_stringIcSt11char_traitsIcESaIcEEEE2_EERKT_SF_
FN:5169,_ZN5Catch5clara6detail13ParserRefImplINS1_3OptEEC2IZNS_21makeCommandLineParserERNS_10ConfigDataEEUlRKNSt7__cxx1112basic_stringIcSt11char_traitsIcESaIcEEEE4_EERKT_SF_
FN:5169,_ZN5Catch5clara6detail13ParserRefImplINS1_3OptEEC2IZNS_21makeCommandLineParserERNS_10ConfigDataEEUlRKNSt7__cxx1112basic_stringIcSt11char_traitsIcESaIcEEEE1_EERKT_SF_
FN:5169,_ZN5Catch5clara6detail13ParserRefImplINS1_3OptEEC2IZNS_21makeCommandLineParserERNS_10ConfigDataEEUlRKNSt7__cxx1112basic_stringIcSt11char_traitsIcESaIcEEEE_EERKT_SF_
FN:5169,_ZN5Catch5clara6detail13ParserRefImplINS1_3OptEEC2IZNS_21makeCommandLineParserERNS_10ConfigDataEEUlRKNSt7__cxx1112basic_stringIcSt11char_traitsIcESaIcEEEE0_EERKT_SF_
FN:5174,_ZN5Catch5clara6detail13ParserRefImplINS1_3OptEEclERKNSt7__cxx1112basic_stringIcSt11char_traitsIcESaIcEEE
FN:5174,_ZN5Catch5clara6detail13ParserRefImplINS1_3ArgEEclERKNSt7__cxx1112basic_stringIcSt11char_traitsIcESaIcEEE
FN:5179,_ZN5Catch5clara6detail13ParserRefImplINS1_3OptEE8optionalEv
FN:5189,_ZNK5Catch5clara6detail13ParserRefImplINS1_3ArgEE10isOptionalEv
FN:5193,_ZNK5Catch5clara6detail13ParserRefImplINS1_3OptEE11cardinalityEv
FN:5193,_ZNK5Catch5clara6detail13ParserRefImplINS1_3ArgEE11cardinalityEv
FN:5200,_ZNK5Catch5clara6detail13ParserRefImplINS1_3ArgEE4hintEv
FN:5203,_ZN5Catch5clara6detail7ExeNameC2ERKS2_
FN:5203,_ZN5Catch5clara6detail7ExeNameaSEOS2_
FN:5203,_ZN5Catch5clara6detail7ExeNameD0Ev
FN:5203,_ZN5Catch5clara6detail7ExeNameD2Ev
FN:5203,_ZN5Catch5clara6detail7ExeNameaSERKS2_
FN:5213,_ZN5Catch5clara6detail7ExeNameC2Ev
FN:5215,_ZN5Catch5clara6detail7ExeNameC2ERNSt7__cxx1112basic_stringIcSt11char_traitsIcESaIcEEE
FN:5225,_ZNK5Catch5clara6detail7ExeName5parseERKNSt7__cxx1112basic_stringIcSt11char_traitsIcESaIcEEERKNS1_11TokenStreamE
FN:5229,_ZNK5Catch5clara6detail7ExeName4nameB5cxx11Ev
FN:5230,_ZN5Catch5clara6detail7ExeName3setERKNSt7__cxx1112basic_stringIcSt11char_traitsIcESaIcEEE
FN:5245,_ZN5Catch5clara6detail3ArgC2ERKS2_
FN:5245,_ZN5Catch5clara6detail3ArgC2EOS2_
FN:5245,_ZN5Catch5clara6detail3ArgD2Ev
FN:5245,_ZN5Catch5clara6detail3ArgD0Ev
FN:5245,_ZN5Catch5clara6detail3ArgaSERKS2_
FN:5247,_ZN5Catch5clara6detail3ArgC2ISt6vectorINSt7__cxx1112basic_stringIcSt11char_traitsIcESaIcEEESaISA_EEEERT_RKSA_
FN:5249,_ZNK5Catch5clara6detail3Arg5parseERKNSt7__cxx1112basic_stringIcSt11char_traitsIcESaIcEEERKNS1_11TokenStreamE
FN:5267,_ZN5Catch5clara6detail12normaliseOptERKNSt7__cxx1112basic_stringIcSt11char_traitsIcESaIcEEE
FN:5276,_ZN5Catch5clara6detail3OptD2Ev
FN:5276,_ZN5Catch5clara6detail3OptD0Ev
FN:5276,_ZN5Catch5clara6detail3OptC2EOS2_
FN:5276,_ZN5Catch5clara6detail3OptaSERKS2_
FN:5276,_ZN5Catch5clara6detail3OptC2ERKS2_
FN:5282,_ZN5Catch5clara6detail3OptC2IZNS_21makeCommandLineParserERNS_10ConfigDataEEUlbE6_EERKT_
FN:5282,_ZN5Catch5clara6detail3OptC2IZNS1_4HelpC4ERbEUlbE_EERKT_
FN:5284,_ZN5Catch5clara6detail3OptC2ERb
FN:5287,_ZN5Catch5clara6detail3OptC2IZNS_21makeCommandLineParserERNS_10ConfigDataEEUlRKNSt7__cxx1112basic_stringIcSt11char_traitsIcESaIcEEEE1_EERKT_SD_
FN:5287,_ZN5Catch5clara6detail3OptC2IZNS_21makeCommandLineParserERNS_10ConfigDataEEUlRKNSt7__cxx1112basic_stringIcSt11char_traitsIcESaIcEEEE_EERKT_SD_
FN:5287,_ZN5Catch5clara6detail3OptC2IZNS_21makeCommandLineParserERNS_10ConfigDataEEUlbE8_EERKT_RKNSt7__cxx1112basic_stringIcSt11char_traitsIcESaIcEEE
FN:5287,_ZN5Catch5clara6detail3OptC2IZNS_21makeCommandLineParserERNS_10ConfigDataEEUlRKNSt7__cxx1112basic_stringIcSt11char_traitsIcESaIcEEEE3_EERKT_SD_
FN:5287,_ZN5Catch5clara6detail3OptC2IZNS_21makeCommandLineParserERNS_10ConfigDataEEUlRKNSt7__cxx1112basic_stringIcSt11char_traitsIcESaIcEEEE4_EERKT_SD_
FN:5287,_ZN5Catch5clara6detail3OptC2IZNS_21makeCommandLineParserERNS_10ConfigDataEEUlRKNSt7__cxx1112basic_stringIcSt11char_traitsIcESaIcEEEE2_EERKT_SD_
FN:5287,_ZN5Catch5clara6detail3OptC2IZNS_21makeCommandLineParserERNS_10ConfigDataEEUlRKNSt7__cxx1112basic_stringIcSt11char_traitsIcESaIcEEEE0_EERKT_SD_
FN:5287,_ZN5Catch5clara6detail3OptC2IZNS_21makeCommandLineParserERNS_10ConfigDataEEUliE7_EERKT_RKNSt7__cxx1112basic_stringIcSt11char_traitsIcESaIcEEE
FN:5287,_ZN5Catch5clara6detail3OptC2IZNS_21makeCommandLineParserERNS_10ConfigDataEEUlRKNSt7__cxx1112basic_stringIcSt11char_traitsIcESaIcEEEE5_EERKT_SD_
FN:5290,_ZN5Catch5clara6detail3OptC2INSt7__cxx1112basic_stringIcSt11char_traitsIcESaIcEEEEERT_RKS9_
FN:5290,_ZN5Catch5clara6detail3OptC2ISt6vectorINSt7__cxx1112basic_stringIcSt11char_traitsIcESaIcEEESaISA_EEEERT_RKSA_
FN:5290,_ZN5Catch5clara6detail3OptC2IiEERT_RKNSt7__cxx1112basic_stringIcSt11char_traitsIcESaIcEEE
FN:5292,_ZN5Catch5clara6detail3OptixERKNSt7__cxx1112basic_stringIcSt11char_traitsIcESaIcEEE
FN:5297,_ZNK5Catch5clara6detail3Opt14getHelpColumnsEv
FN:5312,_ZNK5Catch5clara6detail3Opt7isMatchERKNSt7__cxx1112basic_stringIcSt11char_traitsIcESaIcEEE
FN:5323,_ZNK5Catch5clara6detail3Opt5parseERKNSt7__cxx1112basic_stringIcSt11char_traitsIcESaIcEEERKNS1_11TokenStreamE
FN:5357,_ZNK5Catch5clara6detail3Opt8validateEv
FN:5375,_ZN5Catch5clara6detail4HelpD2Ev
FN:5375,_ZN5Catch5clara6detail4HelpD0Ev
FN:5376,_ZN5Catch5clara6detail4HelpC2ERb
FN:5377,_ZZN5Catch5clara6detail4HelpC4ERbENKUlbE_clEb
FN:5389,_ZN5Catch5clara6detail6ParserC2ERKS2_
FN:5389,_ZN5Catch5clara6detail6ParseraSERKS2_
FN:5389,_ZN5Catch5clara6detail6ParseraSEOS2_
FN:5389,_ZN5Catch5clara6detail6ParserC2Ev
FN:5389,_ZN5Catch5clara6detail6ParserD0Ev
FN:5389,_ZN5Catch5clara6detail6ParserD2Ev
FN:5395,_ZN5Catch5clara6detail6ParseroRERKNS1_7ExeNameE
FN:5400,_ZN5Catch5clara6detail6ParseroRERKNS1_3ArgE
FN:5405,_ZN5Catch5clara6detail6ParseroRERKNS1_3OptE
FN:5417,_ZNK5Catch5clara6detail6ParserorINS1_7ExeNameEEES2_RKT_
FN:5417,_ZNK5Catch5clara6detail6ParserorINS1_4HelpEEES2_RKT_
FN:5417,_ZNK5Catch5clara6detail6ParserorINS1_3ArgEEES2_RKT_
FN:5417,_ZNK5Catch5clara6detail6ParserorINS1_3OptEEES2_RKT_
FN:5421,_ZNK5Catch5clara6detail6Parser14getHelpColumnsEv
FN:5430,_ZNK5Catch5clara6detail6Parser13writeToStreamERSo
FN:5469,_ZN5Catch5clara6detaillsERSoRKNS1_6ParserE
FN:5474,_ZNK5Catch5clara6detail6Parser8validateEv
FN:5490,_ZNK5Catch5clara6detail6Parser5parseERKNSt7__cxx1112basic_stringIcSt11char_traitsIcESaIcEEERKNS1_11TokenStreamE
FN:5539,_ZNK5Catch5clara6detail20ComposableParserImplINS1_7ExeNameEEorINS1_4HelpEEENS1_6ParserERKT_
FN:5594,_ZN5Catch21makeCommandLineParserERNS_10ConfigDataE
FN:5598,_ZZN5Catch21makeCommandLineParserERNS_10ConfigDataEENKUlRKNSt7__cxx1112basic_stringIcSt11char_traitsIcESaIcEEEE_clES9_
FN:5604,_ZZN5Catch21makeCommandLineParserERNS_10ConfigDataEENKUlRKNSt7__cxx1112basic_stringIcSt11char_traitsIcESaIcEEEE0_clES9_
FN:5620,_ZZN5Catch21makeCommandLineParserERNS_10ConfigDataEENKUlRKNSt7__cxx1112basic_stringIcSt11char_traitsIcESaIcEEEE1_clES9_
FN:5631,_ZZN5Catch21makeCommandLineParserERNS_10ConfigDataEENKUlRKNSt7__cxx1112basic_stringIcSt11char_traitsIcESaIcEEEE2_clES9_
FN:5637,_ZZN5Catch21makeCommandLineParserERNS_10ConfigDataEENKUlRKNSt7__cxx1112basic_stringIcSt11char_traitsIcESaIcEEEE3_clES9_
FN:5650,_ZZN5Catch21makeCommandLineParserERNS_10ConfigDataEENKUlRKNSt7__cxx1112basic_stringIcSt11char_traitsIcESaIcEEEE4_clES9_
FN:5662,_ZZN5Catch21makeCommandLineParserERNS_10ConfigDataEENKUlRKNSt7__cxx1112basic_stringIcSt11char_traitsIcESaIcEEEE5_clES9_
FN:5705,_ZZN5Catch21makeCommandLineParserERNS_10ConfigDataEENKUlbE6_clEb
FN:5708,_ZZN5Catch21makeCommandLineParserERNS_10ConfigDataEENKUliE7_clEi
FN:5714,_ZZN5Catch21makeCommandLineParserERNS_10ConfigDataEENKUlbE8_clEb
FN:5769,_ZN5Catch14SourceLineInfoC2EPKcm
FN:5773,_ZNK5Catch14SourceLineInfo5emptyEv
FN:5776,_ZNK5Catch14SourceLineInfoeqERKS0_
FN:5779,_ZNK5Catch14SourceLineInfoltERKS0_
FN:5783,_ZN5CatchlsERSoRKNS_14SourceLineInfoE
FN:5792,_ZN5Catch6isTrueEb
FN:5793,_ZN5Catch10alwaysTrueEv
FN:5794,_ZN5Catch11alwaysFalseEv
FN:5796,_ZNK5Catch13StreamEndStoppsB5cxx11Ev
FN:5809,_ZN5Catch6ConfigC2ERKNS_10ConfigDataE
FN:5821,_ZNK5Catch6Config11getFilenameB5cxx11Ev
FN:5825,_ZNK5Catch6Config9listTestsEv
FN:5826,_ZNK5Catch6Config17listTestNamesOnlyEv
FN:5827,_ZNK5Catch6Config8listTagsEv
FN:5828,_ZNK5Catch6Config13listReportersEv
FN:5830,_ZNK5Catch6Config14getProcessNameB5cxx11Ev
FN:5832,_ZNK5Catch6Config16getReporterNamesB5cxx11Ev
FN:5833,_ZNK5Catch6Config16getSectionsToRunB5cxx11Ev
FN:5835,_ZNK5Catch6Config8testSpecEv
FN:5837,_ZNK5Catch6Config8showHelpEv
FN:5840,_ZNK5Catch6Config11allowThrowsEv
FN:5841,_ZNK5Catch6Config6streamEv
FN:5842,_ZNK5Catch6Config4nameB5cxx11Ev
FN:5843,_ZNK5Catch6Config24includeSuccessfulResultsEv
FN:5844,_ZNK5Catch6Config26warnAboutMissingAssertionsEv
FN:5845,_ZNK5Catch6Config13showDurationsEv
FN:5846,_ZNK5Catch6Config8runOrderEv
FN:5847,_ZNK5Catch6Config7rngSeedEv
FN:5848,_ZNK5Catch6Config27benchmarkResolutionMultipleEv
FN:5849,_ZNK5Catch6Config9useColourEv
FN:5850,_ZNK5Catch6Config16shouldDebugBreakEv
FN:5851,_ZNK5Catch6Config10abortAfterEv
FN:5852,_ZNK5Catch6Config14showInvisiblesEv
FN:5853,_ZNK5Catch6Config9verbosityEv
FN:5855,_ZN5Catch6Config10openStreamEv
FN:5926,_ZN5Catch12_GLOBAL__N_111IColourImplD2Ev
FN:5930,_ZN5Catch12_GLOBAL__N_112NoColourImplD2Ev
FN:5930,_ZN5Catch12_GLOBAL__N_112NoColourImplD0Ev
FN:5931,_ZN5Catch12_GLOBAL__N_112NoColourImpl3useENS_6Colour4CodeE
FN:5933,_ZN5Catch12_GLOBAL__N_112NoColourImpl8instanceEv
FN:6022,_ZN5Catch12_GLOBAL__N_115PosixColourImplD0Ev
FN:6022,_ZN5Catch12_GLOBAL__N_115PosixColourImplD2Ev
FN:6024,_ZN5Catch12_GLOBAL__N_115PosixColourImpl3useENS_6Colour4CodeE
FN:6043,_ZN5Catch12_GLOBAL__N_115PosixColourImpl8instanceEv
FN:6049,_ZN5Catch12_GLOBAL__N_115PosixColourImpl9setColourEPKc
FN:6054,_ZN5Catch12_GLOBAL__N_119useColourOnPlatformEv
FN:6061,_ZN5Catch12_GLOBAL__N_122platformColourInstanceEv
FN:6091,_ZN5Catch6ColourC2ENS0_4CodeE
FN:6092,_ZN5Catch6ColourC2EOS0_
FN:6096,_ZN5Catch6ColouraSEOS0_
FN:6102,_ZN5Catch6ColourD2Ev
FN:6104,_ZN5Catch6Colour3useENS0_4CodeE
FN:6109,_ZN5CatchlsERSoRKNS_6ColourE
FN:6124,_ZN5Catch7ContextC2Ev
FN:6124,_ZN5Catch7ContextD2Ev
FN:6124,_ZN5Catch7ContextD0Ev
FN:6127,_ZN5Catch7Context16getResultCaptureEv
FN:6130,_ZN5Catch7Context9getRunnerEv
FN:6134,_ZNK5Catch7Context9getConfigEv
FN:6141,_ZN5Catch7Context16setResultCaptureEPNS_14IResultCaptureE
FN:6144,_ZN5Catch7Context9setRunnerEPNS_7IRunnerE
FN:6147,_ZN5Catch7Context9setConfigERKSt10shared_ptrIKNS_7IConfigEE
FN:6162,_ZN5Catch24getCurrentMutableContextEv
FN:6167,_ZN5Catch17getCurrentContextEv
FN:6171,_ZN5Catch14cleanUpContextEv
FN:6200,_ZN5Catch19writeToDebugConsoleERKNSt7__cxx1112basic_stringIcSt11char_traitsIcESaIcEEE
FN:6269,_ZN5Catch16isDebuggerActiveEv
FN:6313,_ZN5Catch29formatReconstructedExpressionERSoRKNSt7__cxx1112basic_stringIcSt11char_traitsIcESaIcEEENS_9StringRefES8_
FN:6328,_ZN5Catch10ErrnoGuardC2Ev
FN:6329,_ZN5Catch10ErrnoGuardD2Ev
FN:6342,_ZN5Catch27ExceptionTranslatorRegistryC2Ev
FN:6361,_ZN5Catch27ExceptionTranslatorRegistryD0Ev
FN:6361,_ZN5Catch27ExceptionTranslatorRegistryD2Ev
FN:6364,_ZN5Catch27ExceptionTranslatorRegistry18registerTranslatorEPKNS_20IExceptionTranslatorE
FN:6368,_ZNK5Catch27ExceptionTranslatorRegistry24translateActiveExceptionB5cxx11Ev
FN:6399,_ZNK5Catch27ExceptionTranslatorRegistry14tryTranslatorsB5cxx11Ev
FN:6483,_ZN12_GLOBAL__N_111reportFatalEPKc
FN:6583,_ZN5Catch21FatalConditionHandler12handleSignalEi
FN:6596,_ZN5Catch21FatalConditionHandlerC2Ev
FN:6612,_ZN5Catch21FatalConditionHandlerD2Ev
FN:6616,_ZN5Catch21FatalConditionHandler5resetEv
FN:6671,_ZN5Catch17MultipleReportersD0Ev
FN:6671,_ZN5Catch17MultipleReportersD2Ev
FN:6671,_ZN5Catch17MultipleReportersC2Ev
FN:6712,_ZN5Catch14ReporterConfigC2ERKSt10shared_ptrIKNS_7IConfigEE
FN:6715,_ZN5Catch14ReporterConfigC2ERKSt10shared_ptrIKNS_7IConfigEERSo
FN:6718,_ZNK5Catch14ReporterConfig6streamEv
FN:6719,_ZNK5Catch14ReporterConfig10fullConfigEv
FN:6721,_ZN5Catch11TestRunInfoC2ERKNSt7__cxx1112basic_stringIcSt11char_traitsIcESaIcEEE
FN:6723,_ZN5Catch9GroupInfoC2ERKNSt7__cxx1112basic_stringIcSt11char_traitsIcESaIcEEEmm
FN:6731,_ZN5Catch14AssertionStatsC2ERKNS_15AssertionResultERKSt6vectorINS_11MessageInfoESaIS5_EERKNS_6TotalsE
FN:6753,_ZN5Catch12SectionStatsC2ERKNS_11SectionInfoERKNS_6CountsEdb
FN:6765,_ZN5Catch13TestCaseStatsC2ERKNS_12TestCaseInfoERKNS_6TotalsERKNSt7__cxx1112basic_stringIcSt11char_traitsIcESaIcEEESE_b
FN:6779,_ZN5Catch14TestGroupStatsC2ERKNS_9GroupInfoERKNS_6TotalsEb
FN:6787,_ZN5Catch14TestGroupStatsC2ERKNS_9GroupInfoE
FN:6794,_ZN5Catch12TestRunStatsC2ERKNS_11TestRunInfoERKNS_6TotalsEb
FN:6804,_ZN5Catch18IStreamingReporter21fatalErrorEncounteredENS_9StringRefE
FN:6805,_ZNK5Catch18IStreamingReporter7isMultiEv
FN:6810,_ZN5Catch11addReporterERSt10unique_ptrINS_18IStreamingReporterESt14default_deleteIS1_EEOS4_
FN:6866,_ZN5Catch12LeakDetectorC2Ev
FN:6884,_ZN5Catch7TagInfoD2Ev
FN:6884,_ZN5Catch7TagInfoC2EOS0_
FN:6884,_ZN5Catch7TagInfoC2Ev
FN:6914,_ZN5Catch9listTestsERKNS_6ConfigE
FN:6949,_ZN5Catch18listTestsNamesOnlyERKNS_6ConfigE
FN:6968,_ZN5Catch7TagInfo3addERKNSt7__cxx1112basic_stringIcSt11char_traitsIcESaIcEEE
FN:6973,_ZNK5Catch7TagInfo3allB5cxx11Ev
FN:6980,_ZN5Catch8listTagsERKNS_6ConfigE
FN:7015,_ZN5Catch13listReportersERKNS_6ConfigE
FN:7037,_ZN5Catch4listERKNS_6ConfigE
FN:7058,_ZNK5Catch8Matchers4Impl18MatcherUntypedBase8toStringB5cxx11Ev
FN:7081,_ZN5Catch8Matchers9StdString11CasedStringC2ERKNSt7__cxx1112basic_stringIcSt11char_traitsIcESaIcEEENS_13CaseSensitive6ChoiceE
FN:7085,_ZNK5Catch8Matchers9StdString11CasedString12adjustStringERKNSt7__cxx1112basic_stringIcSt11char_traitsIcESaIcEEE
FN:7090,_ZNK5Catch8Matchers9StdString11CasedString21caseSensitivitySuffixB5cxx11Ev
FN:7096,_ZN5Catch8Matchers9StdString17StringMatcherBaseC2ERKNSt7__cxx1112basic_stringIcSt11char_traitsIcESaIcEEERKNS1_11CasedStringE
FN:7101,_ZNK5Catch8Matchers9StdString17StringMatcherBase8describeB5cxx11Ev
FN:7113,_ZN5Catch8Matchers9StdString13EqualsMatcherC2ERKNS1_11CasedStringE
FN:7115,_ZNK5Catch8Matchers9StdString13EqualsMatcher5matchERKNSt7__cxx1112basic_stringIcSt11char_traitsIcESaIcEEE
FN:7119,_ZN5Catch8Matchers9StdString15ContainsMatcherC2ERKNS1_11CasedStringE
FN:7121,_ZNK5Catch8Matchers9StdString15ContainsMatcher5matchERKNSt7__cxx1112basic_stringIcSt11char_traitsIcESaIcEEE
FN:7125,_ZN5Catch8Matchers9StdString17StartsWithMatcherC2ERKNS1_11CasedStringE
FN:7127,_ZNK5Catch8Matchers9StdString17StartsWithMatcher5matchERKNSt7__cxx1112basic_stringIcSt11char_traitsIcESaIcEEE
FN:7131,_ZN5Catch8Matchers9StdString15EndsWithMatcherC2ERKNS1_11CasedStringE
FN:7133,_ZNK5Catch8Matchers9StdString15EndsWithMatcher5matchERKNSt7__cxx1112basic_stringIcSt11char_traitsIcESaIcEEE
FN:7139,_ZN5Catch8Matchers6EqualsERKNSt7__cxx1112basic_stringIcSt11char_traitsIcESaIcEEENS_13CaseSensitive6ChoiceE
FN:7142,_ZN5Catch8Matchers8ContainsERKNSt7__cxx1112basic_stringIcSt11char_traitsIcESaIcEEENS_13CaseSensitive6ChoiceE
FN:7145,_ZN5Catch8Matchers8EndsWithERKNSt7__cxx1112basic_stringIcSt11char_traitsIcESaIcEEENS_13CaseSensitive6ChoiceE
FN:7148,_ZN5Catch8Matchers10StartsWithERKNSt7__cxx1112basic_stringIcSt11char_traitsIcESaIcEEENS_13CaseSensitive6ChoiceE
FN:7159,_ZN5Catch11MessageInfoC2ERKNSt7__cxx1112basic_stringIcSt11char_traitsIcESaIcEEERKNS_14SourceLineInfoENS_9ResultWas6OfTypeE
FN:7168,_ZNK5Catch11MessageInfoeqERKS0_
FN:7172,_ZNK5Catch11MessageInfoltERKS0_
FN:7181,_ZN5Catch14MessageBuilderC2ERKNSt7__cxx1112basic_stringIcSt11char_traitsIcESaIcEEERKNS_14SourceLineInfoENS_9ResultWas6OfTypeE
FN:7188,_ZN5Catch13ScopedMessageC2ERKNS_14MessageBuilderE
FN:7195,_ZN5Catch13ScopedMessageD2Ev
FN:7221,_ZN5Catch21RandomNumberGenerator3maxEv
FN:7227,_ZN5Catch21RandomNumberGenerator7shuffleISt6vectorINS_8TestCaseESaIS3_EEEEvRT_
FN:7240,_ZN5Catch7seedRngERKNS_7IConfigE
FN:7244,_ZN5Catch7rngSeedEv
FN:7248,_ZNK5Catch21RandomNumberGeneratorclEj
FN:7251,_ZNK5Catch21RandomNumberGeneratorclEv
FN:7279,_ZN5Catch12TestRegistryC2Ev
FN:7281,_ZN5Catch12TestRegistryD2Ev
FN:7281,_ZN5Catch12TestRegistryD0Ev
FN:7298,_ZN5Catch21TestInvokerAsFunctionD2Ev
FN:7298,_ZN5Catch21TestInvokerAsFunctionD0Ev
FN:7319,_ZN5Catch16ReporterRegistryD0Ev
FN:7319,_ZN5Catch16ReporterRegistryC2Ev
FN:7319,_ZN5Catch16ReporterRegistryD2Ev
FN:7348,_ZN5Catch8TagAliasD2Ev
FN:7348,_ZN5Catch8TagAliasC2EOS0_
FN:7362,_ZN5Catch16TagAliasRegistryC2Ev
FN:7383,_ZN5Catch24StartupExceptionRegistryC2Ev
FN:7383,_ZN5Catch24StartupExceptionRegistryD2Ev
FN:7398,_ZN5Catch12_GLOBAL__N_111RegistryHubD2Ev
FN:7398,_ZN5Catch12_GLOBAL__N_111RegistryHubD0Ev
FN:7402,_ZN5Catch12_GLOBAL__N_111RegistryHubC2Ev
FN:7403,_ZNK5Catch12_GLOBAL__N_111RegistryHub19getReporterRegistryEv
FN:7406,_ZNK5Catch12_GLOBAL__N_111RegistryHub19getTestCaseRegistryEv
FN:7409,_ZN5Catch12_GLOBAL__N_111RegistryHub30getExceptionTranslatorRegistryEv
FN:7412,_ZNK5Catch12_GLOBAL__N_111RegistryHub19getTagAliasRegistryEv
FN:7415,_ZNK5Catch12_GLOBAL__N_111RegistryHub27getStartupExceptionRegistryEv
FN:7420,_ZN5Catch12_GLOBAL__N_111RegistryHub16registerReporterERKNSt7__cxx1112basic_stringIcSt11char_traitsIcESaIcEEERKSt10shared_ptrINS_16IReporterFactoryEE
FN:7423,_ZN5Catch12_GLOBAL__N_111RegistryHub16registerListenerERKSt10shared_ptrINS_16IReporterFactoryEE
FN:7426,_ZN5Catch12_GLOBAL__N_111RegistryHub12registerTestERKNS_8TestCaseE
FN:7429,_ZN5Catch12_GLOBAL__N_111RegistryHub18registerTranslatorEPKNS_20IExceptionTranslatorE
FN:7432,_ZN5Catch12_GLOBAL__N_111RegistryHub16registerTagAliasERKNSt7__cxx1112basic_stringIcSt11char_traitsIcESaIcEEES9_RKNS_14SourceLineInfoE
FN:7435,_ZN5Catch12_GLOBAL__N_111RegistryHub24registerStartupExceptionEv
FN:7448,_ZN5Catch12_GLOBAL__N_117getTheRegistryHubEv
FN:7456,_ZN5Catch14getRegistryHubEv
FN:7459,_ZN5Catch21getMutableRegistryHubEv
FN:7462,_ZN5Catch7cleanUpEv
FN:7467,_ZN5Catch24translateActiveExceptionB5cxx11Ev
FN:7479,_ZNK5Catch16ReporterRegistry6createERKNSt7__cxx1112basic_stringIcSt11char_traitsIcESaIcEEERKSt10shared_ptrIKNS_7IConfigEE
FN:7486,_ZN5Catch16ReporterRegistry16registerReporterERKNSt7__cxx1112basic_stringIcSt11char_traitsIcESaIcEEERKSt10shared_ptrINS_16IReporterFactoryEE
FN:7489,_ZN5Catch16ReporterRegistry16registerListenerERKSt10shared_ptrINS_16IReporterFactoryEE
FN:7493,_ZNK5Catch16ReporterRegistry12getFactoriesB5cxx11Ev
FN:7496,_ZNK5Catch16ReporterRegistry12getListenersEv
FN:7506,_ZN5Catch4isOkENS_9ResultWas6OfTypeE
FN:7509,_ZN5Catch10isJustInfoEi
FN:7513,_ZN5CatchorENS_17ResultDisposition5FlagsES1_
FN:7517,_ZN5Catch23shouldContinueOnFailureEi
FN:7518,_ZN5Catch11isFalseTestEi
FN:7519,_ZN5Catch21shouldSuppressFailureEi
FN:7653,_ZN5Catch14StreamRedirectC2ERSoRNSt7__cxx1112basic_stringIcSt11char_traitsIcESaIcEEE
FN:7660,_ZN5Catch14StreamRedirectD2Ev
FN:7665,_ZN5Catch14StdErrRedirectC2ERNSt7__cxx1112basic_stringIcSt11char_traitsIcESaIcEEE
FN:7672,_ZN5Catch14StdErrRedirectD2Ev
FN:7678,_ZN5Catch10RunContextC2ERKSt10shared_ptrIKNS_7IConfigEEOSt10unique_ptrINS_18IStreamingReporterESt14default_deleteIS8_EE
FN:7691,_ZN5Catch10RunContextD2Ev
FN:7691,_ZN5Catch10RunContextD0Ev
FN:7695,_ZN5Catch10RunContext17testGroupStartingERKNSt7__cxx1112basic_stringIcSt11char_traitsIcESaIcEEEmm
FN:7699,_ZN5Catch10RunContext14testGroupEndedERKNSt7__cxx1112basic_stringIcSt11char_traitsIcESaIcEEERKNS_6TotalsEmm
FN:7703,_ZN5Catch10RunContext7runTestERKNS_8TestCaseE
FN:7743,_ZNK5Catch10RunContext6configEv
FN:7747,_ZNK5Catch10RunContext8reporterEv
FN:7751,_ZN5Catch10RunContext17assertionStartingERKNS_13AssertionInfoE
FN:7754,_ZN5Catch10RunContext14assertionEndedERKNS_15AssertionResultE
FN:7773,_ZN5Catch10RunContext14sectionStartedERKNS_11SectionInfoERNS_6CountsE
FN:7788,_ZN5Catch10RunContext24testForMissingAssertionsERNS_6CountsE
FN:7800,_ZN5Catch10RunContext12sectionEndedERKNS_14SectionEndInfoE
FN:7813,_ZN5Catch10RunContext17sectionEndedEarlyERKNS_14SectionEndInfoE
FN:7822,_ZN5Catch10RunContext17benchmarkStartingERKNS_13BenchmarkInfoE
FN:7825,_ZN5Catch10RunContext14benchmarkEndedERKNS_14BenchmarkStatsE
FN:7829,_ZN5Catch10RunContext17pushScopedMessageERKNS_11MessageInfoE
FN:7833,_ZN5Catch10RunContext16popScopedMessageERKNS_11MessageInfoE
FN:7837,_ZNK5Catch10RunContext18getCurrentTestNameB5cxx11Ev
FN:7843,_ZNK5Catch10RunContext13getLastResultEv
FN:7847,_ZN5Catch10RunContext22exceptionEarlyReportedEv
FN:7851,_ZN5Catch10RunContext25handleFatalErrorConditionENS_9StringRefE
FN:7889,_ZN5Catch10RunContext19lastAssertionPassedEv
FN:7893,_ZN5Catch10RunContext15assertionPassedEv
FN:7899,_ZN5Catch10RunContext12assertionRunEv
FN:7903,_ZNK5Catch10RunContext8abortingEv
FN:7907,_ZN5Catch10RunContext14runCurrentTestERNSt7__cxx1112basic_stringIcSt11char_traitsIcESaIcEEES7_
FN:7952,_ZN5Catch10RunContext20invokeActiveTestCaseEv
FN:7958,_ZN5Catch10RunContext24handleUnfinishedSectionsEv
FN:7969,_ZN5Catch16getResultCaptureEv
FN:7981,_ZN5Catch7SectionC2ERKNS_11SectionInfoE
FN:7992,_ZN5Catch7SectionD0Ev
FN:7992,_ZN5Catch7SectionD2Ev
FN:8006,_ZNK5Catch7SectioncvbEv
FN:8016,_ZN5Catch11SectionInfoC2ERKNS_14SourceLineInfoERKNSt7__cxx1112basic_stringIcSt11char_traitsIcESaIcEEESB_
FN:8025,_ZN5Catch14SectionEndInfoC2ERKNS_11SectionInfoERKNS_6CountsEd
FN:8114,_ZN12_GLOBAL__N_114createReporterERKNSt7__cxx1112basic_stringIcSt11char_traitsIcESaIcEEERKSt10shared_ptrIKN5Catch7IConfigEE
FN:8125,_ZN12_GLOBAL__N_112makeReporterERKSt10shared_ptrIN5Catch6ConfigEE
FN:8138,_ZN12_GLOBAL__N_112addListenersERSt10unique_ptrIN5Catch18IStreamingReporterESt14default_deleteIS2_EERKSt10shared_ptrIKNS1_7IConfigEE
FN:8144,_ZN12_GLOBAL__N_18runTestsERKSt10shared_ptrIN5Catch6ConfigEE
FN:8171,_ZN12_GLOBAL__N_120applyFilenamesAsTagsERKN5Catch7IConfigE
FN:8198,_ZN5Catch7SessionC2Ev
FN:8223,_ZN5Catch7SessionD2Ev
FN:8223,_ZN5Catch7SessionD0Ev
FN:8227,_ZNK5Catch7Session8showHelpEv
FN:8233,_ZN5Catch7Session11libIdentifyEv
FN:8241,_ZN5Catch7Session16applyCommandLineEiPPc
FN:8264,_ZN5Catch7Session13useConfigDataERKNS_10ConfigDataE
FN:8269,_ZN5Catch7Session3runEiPPc
FN:8301,_ZN5Catch7Session3runEv
FN:8314,_ZNK5Catch7Session3cliEv
FN:8317,_ZN5Catch7Session3cliERKNS_5clara6detail6ParserE
FN:8320,_ZN5Catch7Session10configDataEv
FN:8323,_ZN5Catch7Session6configEv
FN:8329,_ZN5Catch7Session11runInternalEv
FN:8362,_ZN5Catch24StartupExceptionRegistry3addERKNSt15__exception_ptr13exception_ptrE
FN:8372,_ZNK5Catch24StartupExceptionRegistry13getExceptionsEv
FN:8392,_ZN5Catch13StreamBufImplINS_17OutputDebugWriterELm256EEC2Ev
FN:8396,_ZN5Catch13StreamBufImplINS_17OutputDebugWriterELm256EED2Ev
FN:8396,_ZN5Catch13StreamBufImplINS_17OutputDebugWriterELm256EED0Ev
FN:8401,_ZN5Catch13StreamBufImplINS_17OutputDebugWriterELm256EE8overflowEi
FN:8413,_ZN5Catch13StreamBufImplINS_17OutputDebugWriterELm256EE4syncEv
FN:8426,_ZN5Catch10FileStreamC2ERKNSt7__cxx1112basic_stringIcSt11char_traitsIcESaIcEEE
FN:8431,_ZNK5Catch10FileStream6streamEv
FN:8437,_ZN5Catch17OutputDebugWriterclERKNSt7__cxx1112basic_stringIcSt11char_traitsIcESaIcEEE
FN:8442,_ZN5Catch14DebugOutStreamC2Ev
FN:8447,_ZNK5Catch14DebugOutStream6streamEv
FN:8453,_ZN5Catch10CoutStreamC2Ev
FN:8457,_ZNK5Catch10CoutStream6streamEv
FN:8462,_ZN5Catch4coutEv
FN:8465,_ZN5Catch4cerrEv
FN:8468,_ZN5Catch4clogEv
FN:8489,_ZN5Catch10startsWithERKNSt7__cxx1112basic_stringIcSt11char_traitsIcESaIcEEES7_
FN:8492,_ZN5Catch10startsWithERKNSt7__cxx1112basic_stringIcSt11char_traitsIcESaIcEEEc
FN:8495,_ZN5Catch8endsWithERKNSt7__cxx1112basic_stringIcSt11char_traitsIcESaIcEEES7_
FN:8498,_ZN5Catch8endsWithERKNSt7__cxx1112basic_stringIcSt11char_traitsIcESaIcEEEc
FN:8501,_ZN5Catch8containsERKNSt7__cxx1112basic_stringIcSt11char_traitsIcESaIcEEES7_
FN:8504,_ZN5Catch9toLowerChEc
FN:8507,_ZN5Catch14toLowerInPlaceERNSt7__cxx1112basic_stringIcSt11char_traitsIcESaIcEEE
FN:8510,_ZN5Catch7toLowerERKNSt7__cxx1112basic_stringIcSt11char_traitsIcESaIcEEE
FN:8515,_ZN5Catch4trimERKNSt7__cxx1112basic_stringIcSt11char_traitsIcESaIcEEE
FN:8523,_ZN5Catch14replaceInPlaceERNSt7__cxx1112basic_stringIcSt11char_traitsIcESaIcEEERKS5_S8_
FN:8537,_ZN5Catch9pluraliseC2EmRKNSt7__cxx1112basic_stringIcSt11char_traitsIcESaIcEEE
FN:8542,_ZN5CatchlsERSoRKNS_9pluraliseE
FN:8564,_ZN5Catch17getEmptyStringRefEv
FN:8569,_ZN5Catch9StringRefC2Ev
FN:8573,_ZN5Catch9StringRefC2ERKS0_
FN:8578,_ZN5Catch9StringRefC2EOS0_
FN:8586,_ZN5Catch9StringRefC2EPKc
FN:8593,_ZN5Catch9StringRefC2EPKcm
FN:8602,_ZN5Catch9StringRefC2ERKNSt7__cxx1112basic_stringIcSt11char_traitsIcESaIcEEE
FN:8607,_ZN5Catch9StringRefD2Ev
FN:8611,_ZN5Catch9StringRefaSES0_
FN:8615,_ZNK5Catch9StringRefcvNSt7__cxx1112basic_stringIcSt11char_traitsIcESaIcEEEB5cxx11Ev
FN:8619,_ZN5Catch9StringRef4swapERS0_
FN:8625,_ZNK5Catch9StringRef5c_strEv
FN:8630,_ZNK5Catch9StringRef4dataEv
FN:8634,_ZNK5Catch9StringRef7isOwnedEv
FN:8637,_ZNK5Catch9StringRef11isSubstringEv
FN:8641,_ZN5Catch9StringRef13takeOwnershipEv
FN:8649,_ZNK5Catch9StringRef6substrEmm
FN:8655,_ZNK5Catch9StringRefeqERKS0_
FN:8660,_ZNK5Catch9StringRefneERKS0_
FN:8664,_ZNK5Catch9StringRefixEm
FN:8668,_ZNK5Catch9StringRef5emptyEv
FN:8672,_ZNK5Catch9StringRef4sizeEv
FN:8675,_ZNK5Catch9StringRef18numberOfCharactersEv
FN:8692,_ZN5CatchplB5cxx11ERKNS_9StringRefES2_
FN:8699,_ZN5CatchplB5cxx11ERKNS_9StringRefEPKc
FN:8702,_ZN5CatchplB5cxx11EPKcRKNS_9StringRefE
FN:8706,_ZN5CatchlsERSoRKNS_9StringRefE
FN:8719,_ZN5Catch8TagAliasC2ERKNSt7__cxx1112basic_stringIcSt11char_traitsIcESaIcEEENS_14SourceLineInfoE
FN:8726,_ZN5Catch22RegistrarForTagAliasesC2EPKcS2_RKNS_14SourceLineInfoE
FN:8741,_ZN5Catch16TagAliasRegistryD2Ev
FN:8741,_ZN5Catch16TagAliasRegistryD0Ev
FN:8743,_ZNK5Catch16TagAliasRegistry4findERKNSt7__cxx1112basic_stringIcSt11char_traitsIcESaIcEEE
FN:8751,_ZNK5Catch16TagAliasRegistry13expandAliasesERKNSt7__cxx1112basic_stringIcSt11char_traitsIcESaIcEEE
FN:8764,_ZN5Catch16TagAliasRegistry3addERKNSt7__cxx1112basic_stringIcSt11char_traitsIcESaIcEEES8_RKNS_14SourceLineInfoE
FN:8774,_ZN5Catch17ITagAliasRegistryD0Ev
FN:8774,_ZN5Catch17ITagAliasRegistryD2Ev
FN:8776,_ZN5Catch17ITagAliasRegistry3getEv
FN:8790,_ZN5Catch15parseSpecialTagERKNSt7__cxx1112basic_stringIcSt11char_traitsIcESaIcEEE
FN:8807,_ZN5Catch13isReservedTagERKNSt7__cxx1112basic_stringIcSt11char_traitsIcESaIcEEE
FN:8810,_ZN5Catch21enforceNotReservedTagERKNSt7__cxx1112basic_stringIcSt11char_traitsIcESaIcEEERKNS_14SourceLineInfoE
FN:8817,_ZN5Catch12makeTestCaseEPNS_12ITestInvokerERKNSt7__cxx1112basic_stringIcSt11char_traitsIcESaIcEEES9_S9_RKNS_14SourceLineInfoE
FN:8860,_ZN5Catch7setTagsERNS_12TestCaseInfoESt6vectorINSt7__cxx1112basic_stringIcSt11char_traitsIcESaIcEEESaIS8_EE
FN:8873,_ZN5Catch12TestCaseInfoC2ERKNSt7__cxx1112basic_stringIcSt11char_traitsIcESaIcEEES8_S8_RKSt6vectorIS6_SaIS6_EERKNS_14SourceLineInfoE
FN:8887,_ZNK5Catch12TestCaseInfo8isHiddenEv
FN:8890,_ZNK5Catch12TestCaseInfo6throwsEv
FN:8893,_ZNK5Catch12TestCaseInfo8okToFailEv
FN:8896,_ZNK5Catch12TestCaseInfo14expectedToFailEv
FN:8900,_ZNK5Catch12TestCaseInfo12tagsAsStringB5cxx11Ev
FN:8917,_ZN5Catch8TestCaseC2EPNS_12ITestInvokerERKNS_12TestCaseInfoE
FN:8919,_ZNK5Catch8TestCase8withNameERKNSt7__cxx1112basic_stringIcSt11char_traitsIcESaIcEEE
FN:8925,_ZNK5Catch8TestCase6invokeEv
FN:8929,_ZNK5Catch8TestCaseeqERKS0_
FN:8935,_ZNK5Catch8TestCaseltERKS0_
FN:8939,_ZNK5Catch8TestCase15getTestCaseInfoEv
FN:8952,_ZN5Catch9sortTestsERKNS_7IConfigERKSt6vectorINS_8TestCaseESaIS4_EE
FN:8970,_ZN5Catch9matchTestERKNS_8TestCaseERKNS_8TestSpecERKNS_7IConfigE
FN:8974,_ZN5Catch27enforceNoDuplicateTestCasesERKSt6vectorINS_8TestCaseESaIS1_EE
FN:8985,_ZN5Catch11filterTestsERKSt6vectorINS_8TestCaseESaIS1_EERKNS_8TestSpecERKNS_7IConfigE
FN:8993,_ZN5Catch21getAllTestCasesSortedERKNS_7IConfigE
FN:8997,_ZN5Catch12TestRegistry12registerTestERKNS_8TestCaseE
FN:9007,_ZNK5Catch12TestRegistry11getAllTestsEv
FN:9010,_ZNK5Catch12TestRegistry17getAllTestsSortedERKNS_7IConfigE
FN:9022,_ZN5Catch21TestInvokerAsFunctionC2EPFvvE
FN:9024,_ZNK5Catch21TestInvokerAsFunction6invokeEv
FN:9028,_ZN5Catch16extractClassNameERKNSt7__cxx1112basic_stringIcSt11char_traitsIcESaIcEEE
FN:9058,_ZN5Catch16TestCaseTracking15NameAndLocationC2ERKNSt7__cxx1112basic_stringIcSt11char_traitsIcESaIcEEERKNS_14SourceLineInfoE
FN:9065,_ZN5Catch16TestCaseTracking14TrackerContext8instanceEv
FN:9070,_ZN5Catch16TestCaseTracking14TrackerContext8startRunEv
FN:9077,_ZN5Catch16TestCaseTracking14TrackerContext6endRunEv
FN:9083,_ZN5Catch16TestCaseTracking14TrackerContext10startCycleEv
FN:9087,_ZN5Catch16TestCaseTracking14TrackerContext13completeCycleEv
FN:9091,_ZNK5Catch16TestCaseTracking14TrackerContext14completedCycleEv
FN:9094,_ZN5Catch16TestCaseTracking14TrackerContext14currentTrackerEv
FN:9097,_ZN5Catch16TestCaseTracking14TrackerContext17setCurrentTrackerEPNS0_8ITrackerE
FN:9101,_ZN5Catch16TestCaseTracking11TrackerBase14TrackerHasNameC2ERKNS0_15NameAndLocationE
FN:9102,_ZNK5Catch16TestCaseTracking11TrackerBase14TrackerHasNameclERKSt10shared_ptrINS0_8ITrackerEE
FN:9108,_ZN5Catch16TestCaseTracking11TrackerBaseC2ERKNS0_15NameAndLocationERNS0_14TrackerContextEPNS0_8ITrackerE
FN:9114,_ZNK5Catch16TestCaseTracking11TrackerBase15nameAndLocationEv
FN:9117,_ZNK5Catch16TestCaseTracking11TrackerBase10isCompleteEv
FN:9120,_ZNK5Catch16TestCaseTracking11TrackerBase23isSuccessfullyCompletedEv
FN:9123,_ZNK5Catch16TestCaseTracking11TrackerBase6isOpenEv
FN:9126,_ZNK5Catch16TestCaseTracking11TrackerBase11hasChildrenEv
FN:9130,_ZN5Catch16TestCaseTracking11TrackerBase8addChildERKSt10shared_ptrINS0_8ITrackerEE
FN:9134,_ZN5Catch16TestCaseTracking11TrackerBase9findChildERKNS0_15NameAndLocationE
FN:9140,_ZN5Catch16TestCaseTracking11TrackerBase6parentEv
FN:9145,_ZN5Catch16TestCaseTracking11TrackerBase9openChildEv
FN:9153,_ZNK5Catch16TestCaseTracking11TrackerBase16isSectionTrackerEv
FN:9154,_ZNK5Catch16TestCaseTracking11TrackerBase14isIndexTrackerEv
FN:9156,_ZN5Catch16TestCaseTracking11TrackerBase4openEv
FN:9163,_ZN5Catch16TestCaseTracking11TrackerBase5closeEv
FN:9192,_ZN5Catch16TestCaseTracking11TrackerBase4failEv
FN:9199,_ZN5Catch16TestCaseTracking11TrackerBase23markAsNeedingAnotherRunEv
FN:9203,_ZN5Catch16TestCaseTracking11TrackerBase12moveToParentEv
FN:9207,_ZN5Catch16TestCaseTracking11TrackerBase10moveToThisEv
FN:9211,_ZN5Catch16TestCaseTracking14SectionTrackerC2ERKNS0_15NameAndLocationERNS0_14TrackerContextEPNS0_8ITrackerE
FN:9223,_ZNK5Catch16TestCaseTracking14SectionTracker16isSectionTrackerEv
FN:9225,_ZN5Catch16TestCaseTracking14SectionTracker7acquireERNS0_14TrackerContextERKNS0_15NameAndLocationE
FN:9243,_ZN5Catch16TestCaseTracking14SectionTracker7tryOpenEv
FN:9248,_ZN5Catch16TestCaseTracking14SectionTracker17addInitialFiltersERKSt6vectorINSt7__cxx1112basic_stringIcSt11char_traitsIcESaIcEEESaIS8_EE
FN:9255,_ZN5Catch16TestCaseTracking14SectionTracker14addNextFiltersERKSt6vectorINSt7__cxx1112basic_stringIcSt11char_traitsIcESaIcEEESaIS8_EE
FN:9260,_ZN5Catch16TestCaseTracking12IndexTrackerC2ERKNS0_15NameAndLocationERNS0_14TrackerContextEPNS0_8ITrackerEi
FN:9265,_ZNK5Catch16TestCaseTracking12IndexTracker14isIndexTrackerEv
FN:9267,_ZN5Catch16TestCaseTracking12IndexTracker7acquireERNS0_14TrackerContextERKNS0_15NameAndLocationEi
FN:9290,_ZNK5Catch16TestCaseTracking12IndexTracker5indexEv
FN:9292,_ZN5Catch16TestCaseTracking12IndexTracker8moveNextEv
FN:9297,_ZN5Catch16TestCaseTracking12IndexTracker5closeEv
FN:9320,_ZN5Catch15makeTestInvokerEPFvvE
FN:9324,_ZN5Catch11NameAndTagsC2ENS_9StringRefES1_
FN:9326,_ZN5Catch7AutoRegC2EPNS_12ITestInvokerERKNS_14SourceLineInfoENS_9StringRefERKNS_11NameAndTagsE
FN:9359,_ZN5Catch8TestSpec11NamePatternC2ERKNSt7__cxx1112basic_stringIcSt11char_traitsIcESaIcEEE
FN:9362,_ZNK5Catch8TestSpec11NamePattern7matchesERKNS_12TestCaseInfoE
FN:9366,_ZN5Catch8TestSpec10TagPatternC2ERKNSt7__cxx1112basic_stringIcSt11char_traitsIcESaIcEEE
FN:9367,_ZNK5Catch8TestSpec10TagPattern7matchesERKNS_12TestCaseInfoE
FN:9373,_ZN5Catch8TestSpec15ExcludedPatternC2ERKSt10shared_ptrINS0_7PatternEE
FN:9374,_ZNK5Catch8TestSpec15ExcludedPattern7matchesERKNS_12TestCaseInfoE
FN:9376,_ZNK5Catch8TestSpec6Filter7matchesERKNS_12TestCaseInfoE
FN:9385,_ZNK5Catch8TestSpec10hasFiltersEv
FN:9388,_ZNK5Catch8TestSpec7matchesERKNS_12TestCaseInfoE
FN:9401,_ZN5Catch14TestSpecParserC2ERKNS_17ITagAliasRegistryE
FN:9403,_ZN5Catch14TestSpecParser5parseERKNSt7__cxx1112basic_stringIcSt11char_traitsIcESaIcEEE
FN:9415,_ZN5Catch14TestSpecParser8testSpecEv
FN:9420,_ZN5Catch14TestSpecParser9visitCharEc
FN:9453,_ZN5Catch14TestSpecParser12startNewModeENS0_4ModeEm
FN:9457,_ZN5Catch14TestSpecParser6escapeEv
FN:9463,_ZNK5Catch14TestSpecParser9subStringB5cxx11Ev
FN:9465,_ZN5Catch14TestSpecParser9addFilterEv
FN:9472,_ZN5Catch13parseTestSpecERKNSt7__cxx1112basic_stringIcSt11char_traitsIcESaIcEEE
FN:9484,_ZN5Catch31getCurrentNanosecondsSinceEpochEv
FN:9488,_ZN5Catch23estimateClockResolutionEv
FN:9509,_ZN5Catch27getEstimatedClockResolutionEv
FN:9514,_ZN5Catch5Timer5startEv
FN:9517,_ZNK5Catch5Timer21getElapsedNanosecondsEv
FN:9520,_ZNK5Catch5Timer22getElapsedMicrosecondsEv
FN:9523,_ZNK5Catch5Timer22getElapsedMillisecondsEv
FN:9526,_ZNK5Catch5Timer17getElapsedSecondsEv
FN:9554,_ZN5Catch6Detail12_GLOBAL__N_110Endianness5whichEv
FN:9566,_ZN5Catch6Detail17rawMemoryToStringB5cxx11EPKvm
FN:9584,_ZN5Catch10fpToStringIdEENSt7__cxx1112basic_stringIcSt11char_traitsIcESaIcEEET_i
FN:9584,_ZN5Catch10fpToStringIfEENSt7__cxx1112basic_stringIcSt11char_traitsIcESaIcEEET_i
FN:9605,_ZN5Catch11StringMakerINSt7__cxx1112basic_stringIcSt11char_traitsIcESaIcEEEE7convertERKS6_
FN:9628,_ZN5Catch11StringMakerINSt7__cxx1112basic_stringIwSt11char_traitsIwESaIwEEEE7convertERKS6_
FN:9637,_ZN5Catch11StringMakerIPKcE7convertB5cxx11ES2_
FN:9644,_ZN5Catch11StringMakerIPcE7convertB5cxx11ES1_
FN:9651,_ZN5Catch11StringMakerIPKwE7convertB5cxx11ES2_
FN:9658,_ZN5Catch11StringMakerIPwE7convertB5cxx11ES1_
FN:9666,_ZN5Catch11StringMakerIiE7convertB5cxx11Ei
FN:9669,_ZN5Catch11StringMakerIlE7convertB5cxx11El
FN:9672,_ZN5Catch11StringMakerIxE7convertB5cxx11Ex
FN:9681,_ZN5Catch11StringMakerIjE7convertB5cxx11Ej
FN:9684,_ZN5Catch11StringMakerImE7convertB5cxx11Em
FN:9687,_ZN5Catch11StringMakerIyE7convertB5cxx11Ey
FN:9696,_ZN5Catch11StringMakerIbE7convertB5cxx11Eb
FN:9700,_ZN5Catch11StringMakerIcE7convertB5cxx11Ec
FN:9717,_ZN5Catch11StringMakerIaE7convertB5cxx11Ea
FN:9720,_ZN5Catch11StringMakerIhE7convertB5cxx11Eh
FN:9724,_ZN5Catch11StringMakerIDnE7convertB5cxx11EDn
FN:9728,_ZN5Catch11StringMakerIfE7convertB5cxx11Ef
FN:9731,_ZN5Catch11StringMakerIdE7convertB5cxx11Ed
FN:9746,_ZNK5Catch6CountsmiERKS0_
FN:9754,_ZN5Catch6CountspLERKS0_
FN:9761,_ZNK5Catch6Counts5totalEv
FN:9764,_ZNK5Catch6Counts9allPassedEv
FN:9767,_ZNK5Catch6Counts5allOkEv
FN:9771,_ZNK5Catch6TotalsmiERKS0_
FN:9778,_ZN5Catch6TotalspLERKS0_
FN:9784,_ZNK5Catch6Totals5deltaERKS0_
FN:9803,_ZN5Catch7VersionC2EjjjPKcj
FN:9816,_ZN5CatchlsERSoRKNS_7VersionE
FN:9828,_ZN5Catch14libraryVersionEv
FN:9839,_ZN5Catch15WildcardPatternC2ERKNSt7__cxx1112basic_stringIcSt11char_traitsIcESaIcEEENS_13CaseSensitive6ChoiceE
FN:9854,_ZNK5Catch15WildcardPattern7matchesERKNSt7__cxx1112basic_stringIcSt11char_traitsIcESaIcEEE
FN:9869,_ZNK5Catch15WildcardPattern10adjustCaseERKNSt7__cxx1112basic_stringIcSt11char_traitsIcESaIcEEE
FN:9883,_ZN5Catch9XmlEncodeD2Ev
FN:9913,_ZN5Catch9XmlWriter13ScopedElement14writeAttributeImEERS1_RKNSt7__cxx1112basic_stringIcSt11char_traitsIcESaIcEEERKT_
FN:9913,_ZN5Catch9XmlWriter13ScopedElement14writeAttributeIbEERS1_RKNSt7__cxx1112basic_stringIcSt11char_traitsIcESaIcEEERKT_
FN:9913,_ZN5Catch9XmlWriter13ScopedElement14writeAttributeIdEERS1_RKNSt7__cxx1112basic_stringIcSt11char_traitsIcESaIcEEERKT_
FN:9939,_ZN5Catch9XmlWriter14writeAttributeIjEERS0_RKNSt7__cxx1112basic_stringIcSt11char_traitsIcESaIcEEERKT_
FN:9939,_ZN5Catch9XmlWriter14writeAttributeIA4_cEERS0_RKNSt7__cxx1112basic_stringIcSt11char_traitsIcESaIcEEERKT_
FN:9939,_ZN5Catch9XmlWriter14writeAttributeIPKcEERS0_RKNSt7__cxx1112basic_stringIcSt11char_traitsIcESaIcEEERKT_
FN:9939,_ZN5Catch9XmlWriter14writeAttributeIdEERS0_RKNSt7__cxx1112basic_stringIcSt11char_traitsIcESaIcEEERKT_
FN:9939,_ZN5Catch9XmlWriter14writeAttributeIA5_cEERS0_RKNSt7__cxx1112basic_stringIcSt11char_traitsIcESaIcEEERKT_
FN:9939,_ZN5Catch9XmlWriter14writeAttributeImEERS0_RKNSt7__cxx1112basic_stringIcSt11char_traitsIcESaIcEEERKT_
FN:9939,_ZN5Catch9XmlWriter14writeAttributeIA1_cEERS0_RKNSt7__cxx1112basic_stringIcSt11char_traitsIcESaIcEEERKT_
FN:9977,_ZN5Catch9XmlEncodeC2ERKNSt7__cxx1112basic_stringIcSt11char_traitsIcESaIcEEENS0_7ForWhatE
FN:9982,_ZNK5Catch9XmlEncode8encodeToERSo
FN:10022,_ZN5CatchlsERSoRKNS_9XmlEncodeE
FN:10027,_ZN5Catch9XmlWriter13ScopedElementC2EPS0_
FN:10031,_ZN5Catch9XmlWriter13ScopedElementC2EOS1_
FN:10035,_ZN5Catch9XmlWriter13ScopedElementaSEOS1_
FN:10044,_ZN5Catch9XmlWriter13ScopedElementD2Ev
FN:10049,_ZN5Catch9XmlWriter13ScopedElement9writeTextERKNSt7__cxx1112basic_stringIcSt11char_traitsIcESaIcEEEb
FN:10054,_ZN5Catch9XmlWriterC2ERSo
FN:10059,_ZN5Catch9XmlWriterD2Ev
FN:10064,_ZN5Catch9XmlWriter12startElementERKNSt7__cxx1112basic_stringIcSt11char_traitsIcESaIcEEE
FN:10074,_ZN5Catch9XmlWriter13scopedElementERKNSt7__cxx1112basic_stringIcSt11char_traitsIcESaIcEEE
FN:10080,_ZN5Catch9XmlWriter10endElementEv
FN:10095,_ZN5Catch9XmlWriter14writeAttributeERKNSt7__cxx1112basic_stringIcSt11char_traitsIcESaIcEEES8_
FN:10101,_ZN5Catch9XmlWriter14writeAttributeERKNSt7__cxx1112basic_stringIcSt11char_traitsIcESaIcEEEb
FN:10106,_ZN5Catch9XmlWriter9writeTextERKNSt7__cxx1112basic_stringIcSt11char_traitsIcESaIcEEEb
FN:10118,_ZN5Catch9XmlWriter12writeCommentERKNSt7__cxx1112basic_stringIcSt11char_traitsIcESaIcEEE
FN:10125,_ZN5Catch9XmlWriter18writeStylesheetRefERKNSt7__cxx1112basic_stringIcSt11char_traitsIcESaIcEEE
FN:10129,_ZN5Catch9XmlWriter14writeBlankLineEv
FN:10135,_ZN5Catch9XmlWriter15ensureTagClosedEv
FN:10142,_ZN5Catch9XmlWriter16writeDeclarationEv
FN:10146,_ZN5Catch9XmlWriter18newlineIfNecessaryEv
FN:10163,_ZN5Catch25prepareExpandedExpressionERNS_15AssertionResultE
FN:10169,_ZN5Catch20getFormattedDurationB5cxx11Ed
FN:10187,_ZN5Catch21TestEventListenerBaseC2ERKNS_14ReporterConfigE
FN:10190,_ZN5Catch21TestEventListenerBase17assertionStartingERKNS_13AssertionInfoE
FN:10192,_ZN5Catch21TestEventListenerBase14assertionEndedERKNS_14AssertionStatsE
FN:10206,_ZN12_GLOBAL__N_112failedStringEv
FN:10207,_ZN12_GLOBAL__N_112passedStringEv
FN:10211,_ZN12_GLOBAL__N_19dimColourEv
FN:10213,_ZN12_GLOBAL__N_19bothOrAllEm
FN:10223,_ZN5Catch15CompactReporterC2ERKNS_14ReporterConfigE
FN:10227,_ZN5Catch15CompactReporter14getDescriptionB5cxx11Ev
FN:10231,_ZNK5Catch15CompactReporter14getPreferencesEv
FN:10237,_ZN5Catch15CompactReporter19noMatchingTestCasesERKNSt7__cxx1112basic_stringIcSt11char_traitsIcESaIcEEE
FN:10241,_ZN5Catch15CompactReporter17assertionStartingERKNS_13AssertionInfoE
FN:10243,_ZN5Catch15CompactReporter14assertionEndedERKNS_14AssertionStatsE
FN:10262,_ZN5Catch15CompactReporter12sectionEndedERKNS_12SectionStatsE
FN:10268,_ZN5Catch15CompactReporter12testRunEndedERKNS_12TestRunStatsE
FN:10275,_ZN5Catch15CompactReporter16AssertionPrinterD2Ev
FN:10279,_ZN5Catch15CompactReporter16AssertionPrinterC2ERSoRKNS_14AssertionStatsEb
FN:10287,_ZN5Catch15CompactReporter16AssertionPrinter5printEv
FN:10356,_ZNK5Catch15CompactReporter16AssertionPrinter15printSourceInfoEv
FN:10361,_ZNK5Catch15CompactReporter16AssertionPrinter15printResultTypeENS_6Colour4CodeERKNSt7__cxx1112basic_stringIcSt11char_traitsIcESaIcEEE
FN:10371,_ZNK5Catch15CompactReporter16AssertionPrinter10printIssueERKNSt7__cxx1112basic_stringIcSt11char_traitsIcESaIcEEE
FN:10375,_ZN5Catch15CompactReporter16AssertionPrinter18printExpressionWasEv
FN:10386,_ZNK5Catch15CompactReporter16AssertionPrinter23printOriginalExpressionEv
FN:10392,_ZNK5Catch15CompactReporter16AssertionPrinter28printReconstructedExpressionEv
FN:10402,_ZN5Catch15CompactReporter16AssertionPrinter12printMessageEv
FN:10409,_ZN5Catch15CompactReporter16AssertionPrinter22printRemainingMessagesENS_6Colour4CodeE
FN:10449,_ZNK5Catch15CompactReporter11printTotalsERKNS_6TotalsE
FN:10486,_ZN5Catch15CompactReporterD2Ev
FN:10486,_ZN5Catch15CompactReporterD0Ev
FN:10507,_ZN5Catch12_GLOBAL__N_19makeRatioEmm
FN:10512,_ZN5Catch12_GLOBAL__N_17findMaxERmS1_S1_
FN:10521,_ZN5Catch12_GLOBAL__N_110ColumnInfoC2ERKS1_
FN:10521,_ZN5Catch12_GLOBAL__N_110ColumnInfoD2Ev
FN:10530,_ZN5Catch12_GLOBAL__N_112TablePrinterD2Ev
FN:10538,_ZN5Catch12_GLOBAL__N_112TablePrinterC2ERSoRKSt6vectorINS0_10ColumnInfoESaIS4_EE
FN:10543,_ZNK5Catch12_GLOBAL__N_112TablePrinter11columnInfosEv
FN:10547,_ZN5Catch12_GLOBAL__N_112TablePrinter4openEv
FN:10557,_ZN5Catch12_GLOBAL__N_112TablePrinter5closeEv
FN:10566,_ZN5Catch12_GLOBAL__N_1lsImEERNS0_12TablePrinterES3_RKT_
FN:10566,_ZN5Catch12_GLOBAL__N_1lsINS0_8DurationEEERNS0_12TablePrinterES4_RKT_
FN:10566,_ZN5Catch12_GLOBAL__N_1lsINSt7__cxx1112basic_stringIcSt11char_traitsIcESaIcEEEEERNS0_12TablePrinterES9_RKT_
FN:10571,_ZN5Catch12_GLOBAL__N_1lsERNS0_12TablePrinterENS0_11ColumnBreakE
FN:10594,_ZN5Catch12_GLOBAL__N_1lsERNS0_12TablePrinterENS0_8RowBreakE
FN:10621,_ZN5Catch12_GLOBAL__N_18DurationC2EmNS1_4UnitE
FN:10640,_ZNK5Catch12_GLOBAL__N_18Duration5valueEv
FN:10654,_ZNK5Catch12_GLOBAL__N_18Duration13unitsAsStringEv
FN:10671,_ZN5Catch12_GLOBAL__N_1lsERSoRKNS0_8DurationE
FN:10680,_ZN5Catch15ConsoleReporterC2ERKNS_14ReporterConfigE
FN:10691,_ZN5Catch15ConsoleReporter14getDescriptionB5cxx11Ev
FN:10695,_ZN5Catch15ConsoleReporter19noMatchingTestCasesERKNSt7__cxx1112basic_stringIcSt11char_traitsIcESaIcEEE
FN:10699,_ZN5Catch15ConsoleReporter17assertionStartingERKNS_13AssertionInfoE
FN:10702,_ZN5Catch15ConsoleReporter14assertionEndedERKNS_14AssertionStatsE
FN:10719,_ZN5Catch15ConsoleReporter15sectionStartingERKNS_11SectionInfoE
FN:10723,_ZN5Catch15ConsoleReporter12sectionEndedERKNS_12SectionStatsE
FN:10743,_ZN5Catch15ConsoleReporter17benchmarkStartingERKNS_13BenchmarkInfoE
FN:10758,_ZN5Catch15ConsoleReporter14benchmarkEndedERKNS_14BenchmarkStatsE
FN:10766,_ZN5Catch15ConsoleReporter13testCaseEndedERKNS_13TestCaseStatsE
FN:10771,_ZN5Catch15ConsoleReporter14testGroupEndedERKNS_14TestGroupStatsE
FN:10780,_ZN5Catch15ConsoleReporter12testRunEndedERKNS_12TestRunStatsE
FN:10789,_ZN5Catch15ConsoleReporter16AssertionPrinterD2Ev
FN:10793,_ZN5Catch15ConsoleReporter16AssertionPrinterC2ERSoRKNS_14AssertionStatsEb
FN:10869,_ZNK5Catch15ConsoleReporter16AssertionPrinter5printEv
FN:10885,_ZNK5Catch15ConsoleReporter16AssertionPrinter15printResultTypeEv
FN:10891,_ZNK5Catch15ConsoleReporter16AssertionPrinter23printOriginalExpressionEv
FN:10899,_ZNK5Catch15ConsoleReporter16AssertionPrinter28printReconstructedExpressionEv
FN:10906,_ZNK5Catch15ConsoleReporter16AssertionPrinter12printMessageEv
FN:10915,_ZNK5Catch15ConsoleReporter16AssertionPrinter15printSourceInfoEv
FN:10931,_ZN5Catch15ConsoleReporter9lazyPrintEv
FN:10937,_ZN5Catch15ConsoleReporter37lazyPrintWithoutClosingBenchmarkTableEv
FN:10949,_ZN5Catch15ConsoleReporter16lazyPrintRunInfoEv
FN:10961,_ZN5Catch15ConsoleReporter18lazyPrintGroupInfoEv
FN:10967,_ZN5Catch15ConsoleReporter29printTestCaseAndSectionHeaderEv
FN:10991,_ZN5Catch15ConsoleReporter17printClosedHeaderERKNSt7__cxx1112basic_stringIcSt11char_traitsIcESaIcEEE
FN:10995,_ZN5Catch15ConsoleReporter15printOpenHeaderERKNSt7__cxx1112basic_stringIcSt11char_traitsIcESaIcEEE
FN:11005,_ZN5Catch15ConsoleReporter17printHeaderStringERKNSt7__cxx1112basic_stringIcSt11char_traitsIcESaIcEEEm
FN:11014,_ZN5Catch15ConsoleReporter13SummaryColumnC2EOS1_
FN:11014,_ZN5Catch15ConsoleReporter13SummaryColumnD2Ev
FN:11014,_ZN5Catch15ConsoleReporter13SummaryColumnC2ERKS1_
FN:11016,_ZN5Catch15ConsoleReporter13SummaryColumnC2ERKNSt7__cxx1112basic_stringIcSt11char_traitsIcESaIcEEENS_6Colour4CodeE
FN:11020,_ZN5Catch15ConsoleReporter13SummaryColumn6addRowEm
FN:11040,_ZN5Catch15ConsoleReporter11printTotalsERKNS_6TotalsE
FN:11071,_ZN5Catch15ConsoleReporter15printSummaryRowERKNSt7__cxx1112basic_stringIcSt11char_traitsIcESaIcEEERKSt6vectorINS0_13SummaryColumnESaISA_EEm
FN:11090,_ZN5Catch15ConsoleReporter18printTotalsDividerERKNS_6TotalsE
FN:11112,_ZN5Catch15ConsoleReporter19printSummaryDividerEv
FN:11122,_ZN5Catch15ConsoleReporterD2Ev
FN:11122,_ZN5Catch15ConsoleReporterD0Ev
FN:11140,_ZN5Catch12_GLOBAL__N_119getCurrentTimestampEv
FN:11166,_ZN5Catch12_GLOBAL__N_111fileNameTagERKSt6vectorINSt7__cxx1112basic_stringIcSt11char_traitsIcESaIcEEESaIS7_EE
FN:11169,_ZZN5Catch12_GLOBAL__N_111fileNameTagERKSt6vectorINSt7__cxx1112basic_stringIcSt11char_traitsIcESaIcEEESaIS7_EEENKUlRKS7_E_clESD_
FN:11178,_ZN5Catch13JunitReporterC2ERKNS_14ReporterConfigE
FN:11187,_ZN5Catch13JunitReporter14getDescriptionB5cxx11Ev
FN:11191,_ZN5Catch13JunitReporter19noMatchingTestCasesERKNSt7__cxx1112basic_stringIcSt11char_traitsIcESaIcEEE
FN:11193,_ZN5Catch13JunitReporter15testRunStartingERKNS_11TestRunInfoE
FN:11198,_ZN5Catch13JunitReporter17testGroupStartingERKNS_9GroupInfoE
FN:11206,_ZN5Catch13JunitReporter16testCaseStartingERKNS_12TestCaseInfoE
FN:11209,_ZN5Catch13JunitReporter14assertionEndedERKNS_14AssertionStatsE
FN:11215,_ZN5Catch13JunitReporter13testCaseEndedERKNS_13TestCaseStatsE
FN:11221,_ZN5Catch13JunitReporter14testGroupEndedERKNS_14TestGroupStatsE
FN:11227,_ZN5Catch13JunitReporter22testRunEndedCumulativeEv
FN:11231,_ZN5Catch13JunitReporter10writeGroupERKNS_22CumulativeReporterBaseIS0_E4NodeINS_14TestGroupStatsENS3_INS_13TestCaseStatsENS2_11SectionNodeEEEEEd
FN:11253,_ZN5Catch13JunitReporter13writeTestCaseERKNS_22CumulativeReporterBaseIS0_E4NodeINS_13TestCaseStatsENS2_11SectionNodeEEE
FN:11275,_ZN5Catch13JunitReporter12writeSectionERKNSt7__cxx1112basic_stringIcSt11char_traitsIcESaIcEEES8_RKNS_22CumulativeReporterBaseIS0_E11SectionNodeE
FN:11310,_ZN5Catch13JunitReporter15writeAssertionsERKNS_22CumulativeReporterBaseIS0_E11SectionNodeE
FN:11314,_ZN5Catch13JunitReporter14writeAssertionERKNS_14AssertionStatsE
FN:11369,_ZN5Catch13JunitReporterD2Ev
FN:11369,_ZN5Catch13JunitReporterD0Ev
FN:11378,_ZN5Catch17MultipleReporters3addEOSt10unique_ptrINS_18IStreamingReporterESt14default_deleteIS2_EE
FN:11382,_ZNK5Catch17MultipleReporters14getPreferencesEv
FN:11386,_ZN5Catch17MultipleReporters23getSupportedVerbositiesEv
FN:11390,_ZN5Catch17MultipleReporters19noMatchingTestCasesERKNSt7__cxx1112basic_stringIcSt11char_traitsIcESaIcEEE
FN:11395,_ZN5Catch17MultipleReporters17benchmarkStartingERKNS_13BenchmarkInfoE
FN:11399,_ZN5Catch17MultipleReporters14benchmarkEndedERKNS_14BenchmarkStatsE
FN:11404,_ZN5Catch17MultipleReporters15testRunStartingERKNS_11TestRunInfoE
FN:11409,_ZN5Catch17MultipleReporters17testGroupStartingERKNS_9GroupInfoE
FN:11414,_ZN5Catch17MultipleReporters16testCaseStartingERKNS_12TestCaseInfoE
FN:11419,_ZN5Catch17MultipleReporters15sectionStartingERKNS_11SectionInfoE
FN:11424,_ZN5Catch17MultipleReporters17assertionStartingERKNS_13AssertionInfoE
FN:11430,_ZN5Catch17MultipleReporters14assertionEndedERKNS_14AssertionStatsE
FN:11437,_ZN5Catch17MultipleReporters12sectionEndedERKNS_12SectionStatsE
FN:11442,_ZN5Catch17MultipleReporters13testCaseEndedERKNS_13TestCaseStatsE
FN:11447,_ZN5Catch17MultipleReporters14testGroupEndedERKNS_14TestGroupStatsE
FN:11452,_ZN5Catch17MultipleReporters12testRunEndedERKNS_12TestRunStatsE
FN:11457,_ZN5Catch17MultipleReporters8skipTestERKNS_12TestCaseInfoE
FN:11462,_ZNK5Catch17MultipleReporters7isMultiEv
FN:11480,_ZN5Catch11XmlReporterC2ERKNS_14ReporterConfigE
FN:11489,_ZN5Catch11XmlReporter14getDescriptionB5cxx11Ev
FN:11493,_ZNK5Catch11XmlReporter16getStylesheetRefB5cxx11Ev
FN:11497,_ZN5Catch11XmlReporter15writeSourceInfoERKNS_14SourceLineInfoE
FN:11505,_ZN5Catch11XmlReporter19noMatchingTestCasesERKNSt7__cxx1112basic_stringIcSt11char_traitsIcESaIcEEE
FN:11509,_ZN5Catch11XmlReporter15testRunStartingERKNS_11TestRunInfoE
FN:11519,_ZN5Catch11XmlReporter17testGroupStartingERKNS_9GroupInfoE
FN:11525,_ZN5Catch11XmlReporter16testCaseStartingERKNS_12TestCaseInfoE
FN:11539,_ZN5Catch11XmlReporter15sectionStartingERKNS_11SectionInfoE
FN:11550,_ZN5Catch11XmlReporter17assertionStartingERKNS_13AssertionInfoE
FN:11552,_ZN5Catch11XmlReporter14assertionEndedERKNS_14AssertionStatsE
FN:11626,_ZN5Catch11XmlReporter12sectionEndedERKNS_12SectionStatsE
FN:11641,_ZN5Catch11XmlReporter13testCaseEndedERKNS_13TestCaseStatsE
FN:11657,_ZN5Catch11XmlReporter14testGroupEndedERKNS_14TestGroupStatsE
FN:11667,_ZN5Catch11XmlReporter12testRunEndedERKNS_12TestRunStatsE
FN:11682,_ZN5Catch11XmlReporterD0Ev
FN:11682,_ZN5Catch11XmlReporterD2Ev
FN:11713,main
FN:12006,_Z41__static_initialization_and_destruction_0ii
FN:12006,_GLOBAL__sub_I__ZN5Catch6Detail6ApproxC2Ed
FNDA:0,_ZN5Catch11NonCopyableD0Ev
FNDA:13,_ZN5Catch11NonCopyableD2Ev
FNDA:13,_ZN5Catch11NonCopyableC2Ev
FNDA:3,_ZN5Catch12ITestInvokerC2Ev
FNDA:0,_ZN5Catch12ITestInvokerD0Ev
FNDA:3,_ZN5Catch12ITestInvokerD2Ev
FNDA:1,_ZN5Catch17ITestCaseRegistryC2Ev
FNDA:0,_ZN5Catch17ITestCaseRegistryD0Ev
FNDA:1,_ZN5Catch17ITestCaseRegistryD2Ev
FNDA:0,_ZN5Catch7AutoRegD0Ev
FNDA:3,_ZN5Catch7AutoRegD2Ev
FNDA:0,_ZN5Catch11StringMakerINS_14SourceLineInfoEE7convertIS1_EENSt9enable_ifIXsrNS_6Detail18IsStreamInsertableIT_EE5valueENSt7__cxx1112basic_stringIcSt11char_traitsIcESaIcEEEE4typeERKS7_
FNDA:0,_ZN5Catch6Detail9stringifyIcEENSt7__cxx1112basic_stringIcSt11char_traitsIcESaIcEEERKT_
FNDA:0,_ZN5Catch6Detail9stringifyIjEENSt7__cxx1112basic_stringIcSt11char_traitsIcESaIcEEERKT_
FNDA:0,_ZN5Catch6Detail9stringifyIyEENSt7__cxx1112basic_stringIcSt11char_traitsIcESaIcEEERKT_
FNDA:0,_ZN5Catch6Detail9stringifyIxEENSt7__cxx1112basic_stringIcSt11char_traitsIcESaIcEEERKT_
FNDA:0,_ZN5Catch6Detail9stringifyINSt7__cxx1112basic_stringIwSt11char_traitsIwESaIwEEEEENS3_IcS4_IcESaIcEEERKT_
FNDA:0,_ZN5Catch6Detail9stringifyINSt7__cxx1112basic_stringIcSt11char_traitsIcESaIcEEEEES7_RKT_
FNDA:0,_ZN5Catch6Detail9stringifyINS_14SourceLineInfoEEENSt7__cxx1112basic_stringIcSt11char_traitsIcESaIcEEERKT_
FNDA:0,_ZN5Catch6Detail9stringifyIdEENSt7__cxx1112basic_stringIcSt11char_traitsIcESaIcEEERKT_
FNDA:4,_ZN5Catch20ITransientExpressionC2Ev
FNDA:0,_ZN5Catch20ITransientExpressionD0Ev
FNDA:4,_ZN5Catch20ITransientExpressionD2Ev
FNDA:8,_ZN5Catch13AssertionInfoaSEOS0_
FNDA:12,_ZN5Catch13AssertionInfoC2ERKS0_
FNDA:25,_ZN5Catch13AssertionInfoD2Ev
FNDA:0,_ZN5Catch11MessageInfoC2EOS0_
FNDA:0,_ZN5Catch11MessageInfoaSEOS0_
FNDA:0,_ZN5Catch11MessageInfoC2ERKS0_
FNDA:0,_ZN5Catch11MessageInfoD2Ev
FNDA:0,_ZN5Catch13MessageStreamC2Ev
FNDA:0,_ZN5Catch13MessageStreamD2Ev
FNDA:0,_ZN5Catch14MessageBuilderD2Ev
FNDA:0,_ZN5Catch14MessageBuilderlsINSt7__cxx1112basic_stringIcSt11char_traitsIcESaIcEEEEERS0_RKT_
FNDA:1,_ZN5Catch14IResultCaptureC2Ev
FNDA:0,_ZN5Catch14IResultCaptureD0Ev
FNDA:1,_ZN5Catch14IResultCaptureD2Ev
FNDA:8,_ZN5Catch6CountsC2Ev
FNDA:1,_ZN5Catch6TotalsC2Ev
FNDA:0,_ZN5Catch11SectionInfoaSERKS0_
FNDA:1,_ZN5Catch11SectionInfoC2EOS0_
FNDA:37,_ZN5Catch11SectionInfoD2Ev
FNDA:26,_ZN5Catch11SectionInfoC2ERKS0_
FNDA:0,_ZN5Catch14SectionEndInfoC2EOS0_
FNDA:0,_ZN5Catch14SectionEndInfoC2ERKS0_
FNDA:4,_ZN5Catch14SectionEndInfoD2Ev
FNDA:6,_ZN5Catch5TimerC2Ev
FNDA:1,_ZN5Catch12IRegistryHubC2Ev
FNDA:0,_ZN5Catch12IRegistryHubD0Ev
FNDA:1,_ZN5Catch12IRegistryHubD2Ev
FNDA:1,_ZN5Catch19IMutableRegistryHubC2Ev
FNDA:0,_ZN5Catch19IMutableRegistryHubD0Ev
FNDA:1,_ZN5Catch19IMutableRegistryHubD2Ev
FNDA:0,_ZN5Catch20IExceptionTranslatorD0Ev
FNDA:0,_ZN5Catch20IExceptionTranslatorD2Ev
FNDA:1,_ZN5Catch28IExceptionTranslatorRegistryC2Ev
FNDA:0,_ZN5Catch28IExceptionTranslatorRegistryD0Ev
FNDA:1,_ZN5Catch28IExceptionTranslatorRegistryD2Ev
FNDA:0,_ZN5Catch6Detail6ApproxC2IivEERKT_
FNDA:2,_ZN5Catch9pluraliseD2Ev
FNDA:0,_ZN5Catch8Matchers4Impl18MatcherUntypedBaseD0Ev
FNDA:0,_ZN5Catch8Matchers4Impl18MatcherUntypedBaseD2Ev
FNDA:0,_ZN5Catch8Matchers4Impl18MatcherUntypedBaseC2Ev
FNDA:0,_ZN5Catch8Matchers4Impl13MatcherMethodINSt7__cxx1112basic_stringIcSt11char_traitsIcESaIcEEEEC2Ev
FNDA:0,_ZN5Catch8Matchers4Impl11MatcherBaseINSt7__cxx1112basic_stringIcSt11char_traitsIcESaIcEEES8_ED0Ev
FNDA:0,_ZN5Catch8Matchers4Impl11MatcherBaseINSt7__cxx1112basic_stringIcSt11char_traitsIcESaIcEEES8_ED2Ev
FNDA:0,_ZN5Catch8Matchers4Impl11MatcherBaseINSt7__cxx1112basic_stringIcSt11char_traitsIcESaIcEEES8_EC2Ev
FNDA:0,_ZN5Catch8Matchers9StdString11CasedStringD2Ev
FNDA:0,_ZN5Catch8Matchers9StdString11CasedStringC2ERKS2_
FNDA:0,_ZN5Catch8Matchers9StdString17StringMatcherBaseD0Ev
FNDA:0,_ZN5Catch8Matchers9StdString17StringMatcherBaseD2Ev
FNDA:0,_ZN5Catch8Matchers9StdString13EqualsMatcherD0Ev
FNDA:0,_ZN5Catch8Matchers9StdString13EqualsMatcherD2Ev
FNDA:0,_ZN5Catch8Matchers9StdString15ContainsMatcherD0Ev
FNDA:0,_ZN5Catch8Matchers9StdString15ContainsMatcherD2Ev
FNDA:0,_ZN5Catch8Matchers9StdString17StartsWithMatcherD0Ev
FNDA:0,_ZN5Catch8Matchers9StdString17StartsWithMatcherD2Ev
FNDA:0,_ZN5Catch8Matchers9StdString15EndsWithMatcherD0Ev
FNDA:0,_ZN5Catch8Matchers9StdString15EndsWithMatcherD2Ev
FNDA:0,_ZN5Catch9MatchExprINSt7__cxx1112basic_stringIcSt11char_traitsIcESaIcEEERKNS_8Matchers4Impl11MatcherBaseIS6_S6_EEED0Ev
FNDA:0,_ZN5Catch9MatchExprINSt7__cxx1112basic_stringIcSt11char_traitsIcESaIcEEERKNS_8Matchers4Impl11MatcherBaseIS6_S6_EEED2Ev
FNDA:0,_ZN5Catch9MatchExprINSt7__cxx1112basic_stringIcSt11char_traitsIcESaIcEEERKNS_8Matchers4Impl11MatcherBaseIS6_S6_EEEC2ERKS6_SC_NS_9StringRefE
FNDA:0,_ZNK5Catch9MatchExprINSt7__cxx1112basic_stringIcSt11char_traitsIcESaIcEEERKNS_8Matchers4Impl11MatcherBaseIS6_S6_EEE18isBinaryExpressionEv
FNDA:0,_ZNK5Catch9MatchExprINSt7__cxx1112basic_stringIcSt11char_traitsIcESaIcEEERKNS_8Matchers4Impl11MatcherBaseIS6_S6_EEE9getResultEv
FNDA:0,_ZNK5Catch9MatchExprINSt7__cxx1112basic_stringIcSt11char_traitsIcESaIcEEERKNS_8Matchers4Impl11MatcherBaseIS6_S6_EEE29streamReconstructedExpressionERSo
FNDA:0,_ZN5Catch12TestCaseInfoaSEOS0_
FNDA:3,_ZN5Catch12TestCaseInfoC2EOS0_
FNDA:27,_ZN5Catch12TestCaseInfoD2Ev
FNDA:21,_ZN5Catch12TestCaseInfoC2ERKS0_
FNDA:0,_ZN5Catch8TestCaseaSEOS0_
FNDA:9,_ZN5Catch8TestCaseC2ERKS0_
FNDA:3,_ZN5Catch8TestCaseC2EOS0_
FNDA:15,_ZN5Catch8TestCaseD2Ev
FNDA:1,_ZN5Catch7IRunnerC2Ev
FNDA:0,_ZN5Catch7IRunnerD0Ev
FNDA:1,_ZN5Catch7IRunnerD2Ev
FNDA:0,_ZN5Catch15WildcardPatternD0Ev
FNDA:0,_ZN5Catch15WildcardPatternD2Ev
FNDA:2,_ZN5Catch8TestSpecC2ERKS0_
FNDA:1,_ZN5Catch8TestSpecaSEOS0_
FNDA:4,_ZN5Catch8TestSpecD2Ev
FNDA:2,_ZN5Catch8TestSpecC2Ev
FNDA:2,_ZN5Catch8TestSpec7PatternC2Ev
FNDA:0,_ZN5Catch8TestSpec7PatternD0Ev
FNDA:2,_ZN5Catch8TestSpec7PatternD2Ev
FNDA:0,_ZN5Catch8TestSpec11NamePatternD0Ev
FNDA:0,_ZN5Catch8TestSpec11NamePatternD2Ev
FNDA:0,_ZN5Catch8TestSpec10TagPatternD0Ev
FNDA:1,_ZN5Catch8TestSpec10TagPatternD2Ev
FNDA:0,_ZN5Catch8TestSpec15ExcludedPatternD0Ev
FNDA:1,_ZN5Catch8TestSpec15ExcludedPatternD2Ev
FNDA:0,_ZN5Catch8TestSpec6FilterC2EOS1_
FNDA:2,_ZN5Catch8TestSpec6FilterC2ERKS1_
FNDA:1,_ZN5Catch8TestSpec6FilteraSEOS1_
FNDA:2,_ZN5Catch8TestSpec6FilterC2Ev
FNDA:4,_ZN5Catch8TestSpec6FilterD2Ev
FNDA:1,_ZN5Catch17ITagAliasRegistryC2Ev
FNDA:1,_ZN5Catch14TestSpecParserD2Ev
FNDA:1,_ZN5Catch14TestSpecParser10addPatternINS_8TestSpec10TagPatternEEEvv
FNDA:0,_ZN5Catch14TestSpecParser10addPatternINS_8TestSpec11NamePatternEEEvv
FNDA:0,_ZN5Catch7IConfigD0Ev
FNDA:1,_ZN5Catch7IConfigD2Ev
FNDA:1,_ZN5Catch7IConfigC2Ev
FNDA:0,_ZN5Catch13StreamBufBaseC2Ev
FNDA:0,_ZN5Catch13StreamBufBaseD0Ev
FNDA:0,_ZN5Catch13StreamBufBaseD2Ev
FNDA:1,_ZN5Catch7IStreamC2Ev
FNDA:0,_ZN5Catch7IStreamD0Ev
FNDA:1,_ZN5Catch7IStreamD2Ev
FNDA:0,_ZN5Catch10FileStreamD0Ev
FNDA:0,_ZN5Catch10FileStreamD2Ev
FNDA:1,_ZN5Catch10CoutStreamD0Ev
FNDA:1,_ZN5Catch10CoutStreamD2Ev
FNDA:0,_ZN5Catch14DebugOutStreamD0Ev
FNDA:0,_ZN5Catch14DebugOutStreamD2Ev
FNDA:0,_ZN5Catch10ConfigDataaSERKS0_
FNDA:1,_ZN5Catch10ConfigDataC2Ev
FNDA:2,_ZN5Catch10ConfigDataD2Ev
FNDA:1,_ZN5Catch10ConfigDataC2ERKS0_
FNDA:0,_ZN5Catch6ConfigD0Ev
FNDA:1,_ZN5Catch6ConfigD2Ev
FNDA:12,_ZN5Catch19AssertionResultDataC2ERKS0_
FNDA:16,_ZN5Catch19AssertionResultDataD2Ev
FNDA:8,_ZN5Catch15AssertionResultC2ERKS0_
FNDA:12,_ZN5Catch15AssertionResultD2Ev
FNDA:1,_ZN5Catch6OptionINS_12TestCaseInfoEEC2Ev
FNDA:1,_ZN5Catch6OptionINS_9GroupInfoEEC2Ev
FNDA:1,_ZN5Catch6OptionINS_11TestRunInfoEEC2Ev
FNDA:1,_ZN5Catch6OptionINS_15AssertionResultEEC2Ev
FNDA:1,_ZN5Catch6OptionImEC2Ev
FNDA:1,_ZN5Catch6OptionINS_12TestCaseInfoEED2Ev
FNDA:1,_ZN5Catch6OptionINS_9GroupInfoEED2Ev
FNDA:1,_ZN5Catch6OptionINS_11TestRunInfoEED2Ev
FNDA:1,_ZN5Catch6OptionINS_15AssertionResultEED2Ev
FNDA:1,_ZN5Catch6OptionImED2Ev
FNDA:3,_ZN5Catch6OptionINS_12TestCaseInfoEEaSERKS1_
FNDA:1,_ZN5Catch6OptionINS_9GroupInfoEEaSERKS1_
FNDA:1,_ZN5Catch6OptionINS_11TestRunInfoEEaSERKS1_
FNDA:4,_ZN5Catch6OptionINS_15AssertionResultEEaSERKS1_
FNDA:0,_ZN5Catch6OptionImEaSERKm
FNDA:8,_ZN5Catch6OptionINS_12TestCaseInfoEE5resetEv
FNDA:4,_ZN5Catch6OptionINS_9GroupInfoEE5resetEv
FNDA:3,_ZN5Catch6OptionINS_11TestRunInfoEE5resetEv
FNDA:5,_ZN5Catch6OptionINS_15AssertionResultEE5resetEv
FNDA:1,_ZN5Catch6OptionImE5resetEv
FNDA:0,_ZN5Catch6OptionImEdeEv
FNDA:0,_ZNK5Catch6OptionINS_15AssertionResultEEdeEv
FNDA:0,_ZN5Catch6OptionINS_12TestCaseInfoEEptEv
FNDA:0,_ZN5Catch6OptionINS_9GroupInfoEEptEv
FNDA:0,_ZN5Catch6OptionINS_11TestRunInfoEEptEv
FNDA:0,_ZNK5Catch6OptionImE7valueOrERKm
FNDA:1,_ZNK5Catch6OptionImE4someEv
FNDA:1,_ZNK5Catch6OptionImEcvbEv
FNDA:1,_ZN5Catch14ReporterConfigD2Ev
FNDA:1,_ZN5Catch19ReporterPreferencesC2Ev
FNDA:1,_ZN5Catch8LazyStatINS_12TestCaseInfoEEC2Ev
FNDA:1,_ZN5Catch8LazyStatINS_9GroupInfoEEC2Ev
FNDA:1,_ZN5Catch8LazyStatINS_11TestRunInfoEEC2Ev
FNDA:1,_ZN5Catch8LazyStatINS_12TestCaseInfoEED2Ev
FNDA:1,_ZN5Catch8LazyStatINS_9GroupInfoEED2Ev
FNDA:1,_ZN5Catch8LazyStatINS_11TestRunInfoEED2Ev
FNDA:3,_ZN5Catch8LazyStatINS_12TestCaseInfoEEaSERKS1_
FNDA:1,_ZN5Catch8LazyStatINS_9GroupInfoEEaSERKS1_
FNDA:1,_ZN5Catch8LazyStatINS_11TestRunInfoEEaSERKS1_
FNDA:1,_ZN5Catch8LazyStatINS_11TestRunInfoEE5resetEv
FNDA:2,_ZN5Catch8LazyStatINS_9GroupInfoEE5resetEv
FNDA:4,_ZN5Catch8LazyStatINS_12TestCaseInfoEE5resetEv
FNDA:3,_ZN5Catch11TestRunInfoD2Ev
FNDA:2,_ZN5Catch11TestRunInfoC2ERKS0_
FNDA:4,_ZN5Catch9GroupInfoD2Ev
FNDA:2,_ZN5Catch9GroupInfoC2ERKS0_
FNDA:0,_ZN5Catch14AssertionStatsD0Ev
FNDA:4,_ZN5Catch14AssertionStatsD2Ev
FNDA:0,_ZN5Catch14AssertionStatsC2ERKS0_
FNDA:0,_ZN5Catch12SectionStatsaSERKS0_
FNDA:0,_ZN5Catch12SectionStatsD0Ev
FNDA:8,_ZN5Catch12SectionStatsD2Ev
FNDA:0,_ZN5Catch12SectionStatsC2ERKS0_
FNDA:0,_ZN5Catch13TestCaseStatsD0Ev
FNDA:3,_ZN5Catch13TestCaseStatsD2Ev
FNDA:0,_ZN5Catch13TestCaseStatsC2ERKS0_
FNDA:0,_ZN5Catch14TestGroupStatsD0Ev
FNDA:1,_ZN5Catch14TestGroupStatsD2Ev
FNDA:0,_ZN5Catch14TestGroupStatsC2ERKS0_
FNDA:0,_ZN5Catch12TestRunStatsD0Ev
FNDA:1,_ZN5Catch12TestRunStatsD2Ev
FNDA:0,_ZN5Catch12TestRunStatsC2ERKS0_
FNDA:0,_ZN5Catch13BenchmarkInfoD2Ev
FNDA:0,_ZN5Catch14BenchmarkStatsD2Ev
FNDA:1,_ZN5Catch18IStreamingReporterC2Ev
FNDA:0,_ZN5Catch18IStreamingReporterD0Ev
FNDA:1,_ZN5Catch18IStreamingReporterD2Ev
FNDA:0,_ZN5Catch18IStreamingReporter17benchmarkStartingERKNS_13BenchmarkInfoE
FNDA:0,_ZN5Catch18IStreamingReporter14benchmarkEndedERKNS_14BenchmarkStatsE
FNDA:4,_ZN5Catch16IReporterFactoryC2Ev
FNDA:0,_ZN5Catch16IReporterFactoryD0Ev
FNDA:4,_ZN5Catch16IReporterFactoryD2Ev
FNDA:1,_ZN5Catch17IReporterRegistryC2Ev
FNDA:0,_ZN5Catch17IReporterRegistryD0Ev
FNDA:1,_ZN5Catch17IReporterRegistryD2Ev
FNDA:0,_ZN5Catch21StreamingReporterBaseINS_15CompactReporterEEC2ERKNS_14ReporterConfigE
FNDA:0,_ZN5Catch21StreamingReporterBaseINS_11XmlReporterEEC2ERKNS_14ReporterConfigE
FNDA:1,_ZN5Catch21StreamingReporterBaseINS_15ConsoleReporterEEC2ERKNS_14ReporterConfigE
FNDA:0,_ZN5Catch21StreamingReporterBaseINS_21TestEventListenerBaseEEC2ERKNS_14ReporterConfigE
FNDA:0,_ZNK5Catch21StreamingReporterBaseINS_21TestEventListenerBaseEE14getPreferencesEv
FNDA:0,_ZNK5Catch21StreamingReporterBaseINS_15CompactReporterEE14getPreferencesEv
FNDA:4,_ZNK5Catch21StreamingReporterBaseINS_15ConsoleReporterEE14getPreferencesEv
FNDA:0,_ZNK5Catch21StreamingReporterBaseINS_11XmlReporterEE14getPreferencesEv
FNDA:0,_ZN5Catch21StreamingReporterBaseINS_15CompactReporterEE23getSupportedVerbositiesEv
FNDA:0,_ZN5Catch21StreamingReporterBaseINS_11XmlReporterEE23getSupportedVerbositiesEv
FNDA:1,_ZN5Catch21StreamingReporterBaseINS_15ConsoleReporterEE23getSupportedVerbositiesEv
FNDA:0,_ZN5Catch21StreamingReporterBaseINS_21TestEventListenerBaseEE23getSupportedVerbositiesEv
FNDA:0,_ZN5Catch21StreamingReporterBaseINS_11XmlReporterEED0Ev
FNDA:0,_ZN5Catch21StreamingReporterBaseINS_11XmlReporterEED2Ev
FNDA:0,_ZN5Catch21StreamingReporterBaseINS_15ConsoleReporterEED0Ev
FNDA:1,_ZN5Catch21StreamingReporterBaseINS_15ConsoleReporterEED2Ev
FNDA:0,_ZN5Catch21StreamingReporterBaseINS_15CompactReporterEED0Ev
FNDA:0,_ZN5Catch21StreamingReporterBaseINS_15CompactReporterEED2Ev
FNDA:0,_ZN5Catch21StreamingReporterBaseINS_21TestEventListenerBaseEED0Ev
FNDA:0,_ZN5Catch21StreamingReporterBaseINS_21TestEventListenerBaseEED2Ev
FNDA:0,_ZN5Catch21StreamingReporterBaseINS_21TestEventListenerBaseEE19noMatchingTestCasesERKNSt7__cxx1112basic_stringIcSt11char_traitsIcESaIcEEE
FNDA:0,_ZN5Catch21StreamingReporterBaseINS_15CompactReporterEE19noMatchingTestCasesERKNSt7__cxx1112basic_stringIcSt11char_traitsIcESaIcEEE
FNDA:0,_ZN5Catch21StreamingReporterBaseINS_15ConsoleReporterEE19noMatchingTestCasesERKNSt7__cxx1112basic_stringIcSt11char_traitsIcESaIcEEE
FNDA:0,_ZN5Catch21StreamingReporterBaseINS_11XmlReporterEE19noMatchingTestCasesERKNSt7__cxx1112basic_stringIcSt11char_traitsIcESaIcEEE
FNDA:0,_ZN5Catch21StreamingReporterBaseINS_21TestEventListenerBaseEE15testRunStartingERKNS_11TestRunInfoE
FNDA:0,_ZN5Catch21StreamingReporterBaseINS_15CompactReporterEE15testRunStartingERKNS_11TestRunInfoE
FNDA:1,_ZN5Catch21StreamingReporterBaseINS_15ConsoleReporterEE15testRunStartingERKNS_11TestRunInfoE
FNDA:0,_ZN5Catch21StreamingReporterBaseINS_11XmlReporterEE15testRunStartingERKNS_11TestRunInfoE
FNDA:0,_ZN5Catch21StreamingReporterBaseINS_21TestEventListenerBaseEE17testGroupStartingERKNS_9GroupInfoE
FNDA:0,_ZN5Catch21StreamingReporterBaseINS_15CompactReporterEE17testGroupStartingERKNS_9GroupInfoE
FNDA:1,_ZN5Catch21StreamingReporterBaseINS_15ConsoleReporterEE17testGroupStartingERKNS_9GroupInfoE
FNDA:0,_ZN5Catch21StreamingReporterBaseINS_11XmlReporterEE17testGroupStartingERKNS_9GroupInfoE
FNDA:0,_ZN5Catch21StreamingReporterBaseINS_21TestEventListenerBaseEE16testCaseStartingERKNS_12TestCaseInfoE
FNDA:0,_ZN5Catch21StreamingReporterBaseINS_15CompactReporterEE16testCaseStartingERKNS_12TestCaseInfoE
FNDA:3,_ZN5Catch21StreamingReporterBaseINS_15ConsoleReporterEE16testCaseStartingERKNS_12TestCaseInfoE
FNDA:0,_ZN5Catch21StreamingReporterBaseINS_11XmlReporterEE16testCaseStartingERKNS_12TestCaseInfoE
FNDA:0,_ZN5Catch21StreamingReporterBaseINS_21TestEventListenerBaseEE15sectionStartingERKNS_11SectionInfoE
FNDA:0,_ZN5Catch21StreamingReporterBaseINS_15CompactReporterEE15sectionStartingERKNS_11SectionInfoE
FNDA:0,_ZN5Catch21StreamingReporterBaseINS_11XmlReporterEE15sectionStartingERKNS_11SectionInfoE
FNDA:8,_ZN5Catch21StreamingReporterBaseINS_15ConsoleReporterEE15sectionStartingERKNS_11SectionInfoE
FNDA:0,_ZN5Catch21StreamingReporterBaseINS_21TestEventListenerBaseEE12sectionEndedERKNS_12SectionStatsE
FNDA:0,_ZN5Catch21StreamingReporterBaseINS_15CompactReporterEE12sectionEndedERKNS_12SectionStatsE
FNDA:0,_ZN5Catch21StreamingReporterBaseINS_11XmlReporterEE12sectionEndedERKNS_12SectionStatsE
FNDA:8,_ZN5Catch21StreamingReporterBaseINS_15ConsoleReporterEE12sectionEndedERKNS_12SectionStatsE
FNDA:0,_ZN5Catch21StreamingReporterBaseINS_21TestEventListenerBaseEE13testCaseEndedERKNS_13TestCaseStatsE
FNDA:0,_ZN5Catch21StreamingReporterBaseINS_15CompactReporterEE13testCaseEndedERKNS_13TestCaseStatsE
FNDA:0,_ZN5Catch21StreamingReporterBaseINS_11XmlReporterEE13testCaseEndedERKNS_13TestCaseStatsE
FNDA:3,_ZN5Catch21StreamingReporterBaseINS_15ConsoleReporterEE13testCaseEndedERKNS_13TestCaseStatsE
FNDA:0,_ZN5Catch21StreamingReporterBaseINS_21TestEventListenerBaseEE14testGroupEndedERKNS_14TestGroupStatsE
FNDA:0,_ZN5Catch21StreamingReporterBaseINS_15CompactReporterEE14testGroupEndedERKNS_14TestGroupStatsE
FNDA:0,_ZN5Catch21StreamingReporterBaseINS_11XmlReporterEE14testGroupEndedERKNS_14TestGroupStatsE
FNDA:1,_ZN5Catch21StreamingReporterBaseINS_15ConsoleReporterEE14testGroupEndedERKNS_14TestGroupStatsE
FNDA:0,_ZN5Catch21StreamingReporterBaseINS_21TestEventListenerBaseEE12testRunEndedERKNS_12TestRunStatsE
FNDA:0,_ZN5Catch21StreamingReporterBaseINS_11XmlReporterEE12testRunEndedERKNS_12TestRunStatsE
FNDA:1,_ZN5Catch21StreamingReporterBaseINS_15ConsoleReporterEE12testRunEndedERKNS_12TestRunStatsE
FNDA:0,_ZN5Catch21StreamingReporterBaseINS_15CompactReporterEE12testRunEndedERKNS_12TestRunStatsE
FNDA:0,_ZN5Catch21StreamingReporterBaseINS_21TestEventListenerBaseEE8skipTestERKNS_12TestCaseInfoE
FNDA:0,_ZN5Catch21StreamingReporterBaseINS_15CompactReporterEE8skipTestERKNS_12TestCaseInfoE
FNDA:0,_ZN5Catch21StreamingReporterBaseINS_15ConsoleReporterEE8skipTestERKNS_12TestCaseInfoE
FNDA:0,_ZN5Catch21StreamingReporterBaseINS_11XmlReporterEE8skipTestERKNS_12TestCaseInfoE
FNDA:0,_ZN5Catch22CumulativeReporterBaseINS_13JunitReporterEE4NodeINS_12TestRunStatsENS3_INS_14TestGroupStatsENS3_INS_13TestCaseStatsENS2_11SectionNodeEEEEEEC2ERKS4_
FNDA:0,_ZN5Catch22CumulativeReporterBaseINS_13JunitReporterEE4NodeINS_14TestGroupStatsENS3_INS_13TestCaseStatsENS2_11SectionNodeEEEEC2ERKS4_
FNDA:0,_ZN5Catch22CumulativeReporterBaseINS_13JunitReporterEE4NodeINS_13TestCaseStatsENS2_11SectionNodeEEC2ERKS4_
FNDA:0,_ZN5Catch22CumulativeReporterBaseINS_13JunitReporterEE4NodeINS_12TestRunStatsENS3_INS_14TestGroupStatsENS3_INS_13TestCaseStatsENS2_11SectionNodeEEEEEED0Ev
FNDA:0,_ZN5Catch22CumulativeReporterBaseINS_13JunitReporterEE4NodeINS_12TestRunStatsENS3_INS_14TestGroupStatsENS3_INS_13TestCaseStatsENS2_11SectionNodeEEEEEED2Ev
FNDA:0,_ZN5Catch22CumulativeReporterBaseINS_13JunitReporterEE4NodeINS_14TestGroupStatsENS3_INS_13TestCaseStatsENS2_11SectionNodeEEEED0Ev
FNDA:0,_ZN5Catch22CumulativeReporterBaseINS_13JunitReporterEE4NodeINS_14TestGroupStatsENS3_INS_13TestCaseStatsENS2_11SectionNodeEEEED2Ev
FNDA:0,_ZN5Catch22CumulativeReporterBaseINS_13JunitReporterEE4NodeINS_13TestCaseStatsENS2_11SectionNodeEED0Ev
FNDA:0,_ZN5Catch22CumulativeReporterBaseINS_13JunitReporterEE4NodeINS_13TestCaseStatsENS2_11SectionNodeEED2Ev
FNDA:0,_ZN5Catch22CumulativeReporterBaseINS_13JunitReporterEE11SectionNodeC2ERKNS_12SectionStatsE
FNDA:0,_ZN5Catch22CumulativeReporterBaseINS_13JunitReporterEE11SectionNodeD0Ev
FNDA:0,_ZN5Catch22CumulativeReporterBaseINS_13JunitReporterEE11SectionNodeD2Ev
FNDA:0,_ZN5Catch22CumulativeReporterBaseINS_13JunitReporterEE13BySectionInfoC2ERKNS_11SectionInfoE
FNDA:0,_ZN5Catch22CumulativeReporterBaseINS_13JunitReporterEE13BySectionInfoC2ERKS3_
FNDA:0,_ZNK5Catch22CumulativeReporterBaseINS_13JunitReporterEE13BySectionInfoclERKSt10shared_ptrINS2_11SectionNodeEE
FNDA:0,_ZN5Catch22CumulativeReporterBaseINS_13JunitReporterEEC2ERKNS_14ReporterConfigE
FNDA:0,_ZN5Catch22CumulativeReporterBaseINS_13JunitReporterEED0Ev
FNDA:0,_ZN5Catch22CumulativeReporterBaseINS_13JunitReporterEED2Ev
FNDA:0,_ZNK5Catch22CumulativeReporterBaseINS_13JunitReporterEE14getPreferencesEv
FNDA:0,_ZN5Catch22CumulativeReporterBaseINS_13JunitReporterEE23getSupportedVerbositiesEv
FNDA:0,_ZN5Catch22CumulativeReporterBaseINS_13JunitReporterEE15testRunStartingERKNS_11TestRunInfoE
FNDA:0,_ZN5Catch22CumulativeReporterBaseINS_13JunitReporterEE17testGroupStartingERKNS_9GroupInfoE
FNDA:0,_ZN5Catch22CumulativeReporterBaseINS_13JunitReporterEE16testCaseStartingERKNS_12TestCaseInfoE
FNDA:0,_ZN5Catch22CumulativeReporterBaseINS_13JunitReporterEE15sectionStartingERKNS_11SectionInfoE
FNDA:0,_ZN5Catch22CumulativeReporterBaseINS_13JunitReporterEE17assertionStartingERKNS_13AssertionInfoE
FNDA:0,_ZN5Catch22CumulativeReporterBaseINS_13JunitReporterEE14assertionEndedERKNS_14AssertionStatsE
FNDA:0,_ZN5Catch22CumulativeReporterBaseINS_13JunitReporterEE12sectionEndedERKNS_12SectionStatsE
FNDA:0,_ZN5Catch22CumulativeReporterBaseINS_13JunitReporterEE13testCaseEndedERKNS_13TestCaseStatsE
FNDA:0,_ZN5Catch22CumulativeReporterBaseINS_13JunitReporterEE14testGroupEndedERKNS_14TestGroupStatsE
FNDA:0,_ZN5Catch22CumulativeReporterBaseINS_13JunitReporterEE12testRunEndedERKNS_12TestRunStatsE
FNDA:0,_ZN5Catch22CumulativeReporterBaseINS_13JunitReporterEE8skipTestERKNS_12TestCaseInfoE
FNDA:0,_ZN5Catch14getLineOfCharsILc46EEEPKcv
FNDA:0,_ZN5Catch14getLineOfCharsILc126EEEPKcv
FNDA:0,_ZN5Catch14getLineOfCharsILc45EEEPKcv
FNDA:0,_ZN5Catch21TestEventListenerBaseD0Ev
FNDA:0,_ZN5Catch21TestEventListenerBaseD2Ev
FNDA:0,_ZN5Catch17ReporterRegistrarINS_15CompactReporterEE15ReporterFactoryD0Ev
FNDA:1,_ZN5Catch17ReporterRegistrarINS_15CompactReporterEE15ReporterFactoryD2Ev
FNDA:0,_ZN5Catch17ReporterRegistrarINS_15ConsoleReporterEE15ReporterFactoryD0Ev
FNDA:1,_ZN5Catch17ReporterRegistrarINS_15ConsoleReporterEE15ReporterFactoryD2Ev
FNDA:0,_ZN5Catch17ReporterRegistrarINS_13JunitReporterEE15ReporterFactoryD0Ev
FNDA:1,_ZN5Catch17ReporterRegistrarINS_13JunitReporterEE15ReporterFactoryD2Ev
FNDA:0,_ZN5Catch17ReporterRegistrarINS_11XmlReporterEE15ReporterFactoryD0Ev
FNDA:1,_ZN5Catch17ReporterRegistrarINS_11XmlReporterEE15ReporterFactoryD2Ev
FNDA:1,_ZN5Catch17ReporterRegistrarINS_11XmlReporterEE15ReporterFactoryC2Ev
FNDA:1,_ZN5Catch17ReporterRegistrarINS_13JunitReporterEE15ReporterFactoryC2Ev
FNDA:1,_ZN5Catch17ReporterRegistrarINS_15ConsoleReporterEE15ReporterFactoryC2Ev
FNDA:1,_ZN5Catch17ReporterRegistrarINS_15CompactReporterEE15ReporterFactoryC2Ev
FNDA:0,_ZNK5Catch17ReporterRegistrarINS_15CompactReporterEE15ReporterFactory6createERKNS_14ReporterConfigE
FNDA:1,_ZNK5Catch17ReporterRegistrarINS_15ConsoleReporterEE15ReporterFactory6createERKNS_14ReporterConfigE
FNDA:0,_ZNK5Catch17ReporterRegistrarINS_13JunitReporterEE15ReporterFactory6createERKNS_14ReporterConfigE
FNDA:0,_ZNK5Catch17ReporterRegistrarINS_11XmlReporterEE15ReporterFactory6createERKNS_14ReporterConfigE
FNDA:0,_ZNK5Catch17ReporterRegistrarINS_15CompactReporterEE15ReporterFactory14getDescriptionEv
FNDA:0,_ZNK5Catch17ReporterRegistrarINS_15ConsoleReporterEE15ReporterFactory14getDescriptionEv
FNDA:0,_ZNK5Catch17ReporterRegistrarINS_13JunitReporterEE15ReporterFactory14getDescriptionEv
FNDA:0,_ZNK5Catch17ReporterRegistrarINS_11XmlReporterEE15ReporterFactory14getDescriptionEv
FNDA:1,_ZN5Catch17ReporterRegistrarINS_11XmlReporterEEC2ERKNSt7__cxx1112basic_stringIcSt11char_traitsIcESaIcEEE
FNDA:1,_ZN5Catch17ReporterRegistrarINS_13JunitReporterEEC2ERKNSt7__cxx1112basic_stringIcSt11char_traitsIcESaIcEEE
FNDA:1,_ZN5Catch17ReporterRegistrarINS_15ConsoleReporterEEC2ERKNSt7__cxx1112basic_stringIcSt11char_traitsIcESaIcEEE
FNDA:1,_ZN5Catch17ReporterRegistrarINS_15CompactReporterEEC2ERKNSt7__cxx1112basic_stringIcSt11char_traitsIcESaIcEEE
FNDA:60,_ZN5Catch16TestCaseTracking15NameAndLocationC2ERKS1_
FNDA:73,_ZN5Catch16TestCaseTracking15NameAndLocationD2Ev
FNDA:10,_ZN5Catch16TestCaseTracking8ITrackerC2Ev
FNDA:0,_ZN5Catch16TestCaseTracking8ITrackerD0Ev
FNDA:10,_ZN5Catch16TestCaseTracking8ITrackerD2Ev
FNDA:1,_ZN5Catch16TestCaseTracking14TrackerContextD2Ev
FNDA:1,_ZN5Catch16TestCaseTracking14TrackerContextC2Ev
FNDA:0,_ZN5Catch16TestCaseTracking11TrackerBaseD0Ev
FNDA:10,_ZN5Catch16TestCaseTracking11TrackerBaseD2Ev
FNDA:40,_ZN5Catch16TestCaseTracking11TrackerBase14TrackerHasNameC2ERKS2_
FNDA:50,_ZN5Catch16TestCaseTracking11TrackerBase14TrackerHasNameD2Ev
FNDA:0,_ZN5Catch16TestCaseTracking14SectionTrackerD0Ev
FNDA:10,_ZN5Catch16TestCaseTracking14SectionTrackerD2Ev
FNDA:0,_ZN5Catch16TestCaseTracking12IndexTrackerD0Ev
FNDA:0,_ZN5Catch16TestCaseTracking12IndexTrackerD2Ev
FNDA:0,_ZN12_GLOBAL__N_116marginComparisonEddd
FNDA:0,_ZN5Catch6Detail6ApproxC2Ed
FNDA:0,_ZN5Catch6Detail6Approx6customEv
FNDA:0,_ZNK5Catch6Detail6Approx8toStringB5cxx11Ev
FNDA:0,_ZNK5Catch6Detail6Approx22equalityComparisonImplEd
FNDA:0,_ZN5Catch11StringMakerINS_6Detail6ApproxEE7convertB5cxx11ERKS2_
FNDA:0,_ZN5Catch8IContextD0Ev
FNDA:1,_ZN5Catch8IContextD2Ev
FNDA:1,_ZN5Catch8IContextC2Ev
FNDA:0,_ZN5Catch15IMutableContextD0Ev
FNDA:1,_ZN5Catch15IMutableContextD2Ev
FNDA:1,_ZN5Catch15IMutableContextC2Ev
FNDA:0,_ZN5CatchlsERSoRKNS_20ITransientExpressionE
FNDA:4,_ZN5Catch14LazyExpressionC2Eb
FNDA:16,_ZN5Catch14LazyExpressionC2ERKS0_
FNDA:0,_ZNK5Catch14LazyExpressioncvbEv
FNDA:0,_ZN5CatchlsERSoRKNS_14LazyExpressionE
FNDA:4,_ZN5Catch16AssertionHandlerC2ENS_9StringRefERKNS_14SourceLineInfoES1_NS_17ResultDisposition5FlagsE
FNDA:4,_ZN5Catch16AssertionHandlerD2Ev
FNDA:4,_ZN5Catch16AssertionHandler6handleERKNS_20ITransientExpressionE
FNDA:0,_ZN5Catch16AssertionHandler6handleENS_9ResultWas6OfTypeE
FNDA:0,_ZN5Catch16AssertionHandler6handleENS_9ResultWas6OfTypeERKNS_9StringRefE
FNDA:4,_ZN5Catch16AssertionHandler6handleENS_9ResultWas6OfTypeEPKNS_20ITransientExpressionEb
FNDA:4,_ZN5Catch16AssertionHandler6handleERKNS_19AssertionResultDataEPKNS_20ITransientExpressionE
FNDA:0,_ZNK5Catch16AssertionHandler11allowThrowsEv
FNDA:4,_ZNK5Catch16AssertionHandler16shouldDebugBreakEv
FNDA:0,_ZNK5Catch16AssertionHandler19reactWithDebugBreakEv
FNDA:4,_ZNK5Catch16AssertionHandler22reactWithoutDebugBreakEv
FNDA:0,_ZN5Catch16AssertionHandler18useActiveExceptionEv
FNDA:0,_ZN5Catch16AssertionHandler17setExceptionGuardEv
FNDA:0,_ZN5Catch16AssertionHandler19unsetExceptionGuardEv
FNDA:0,_ZN5Catch24handleExceptionMatchExprERNS_16AssertionHandlerERKNSt7__cxx1112basic_stringIcSt11char_traitsIcESaIcEEENS_9StringRefE
FNDA:4,_ZN5Catch19AssertionResultDataC2ENS_9ResultWas6OfTypeERKNS_14LazyExpressionE
FNDA:0,_ZNK5Catch19AssertionResultData21reconstructExpressionB5cxx11Ev
FNDA:4,_ZN5Catch15AssertionResultC2ERKNS_13AssertionInfoERKNS_19AssertionResultDataE
FNDA:0,_ZNK5Catch15AssertionResult9succeededEv
FNDA:8,_ZNK5Catch15AssertionResult4isOkEv
FNDA:8,_ZNK5Catch15AssertionResult13getResultTypeEv
FNDA:0,_ZNK5Catch15AssertionResult13hasExpressionEv
FNDA:4,_ZNK5Catch15AssertionResult10hasMessageEv
FNDA:0,_ZNK5Catch15AssertionResult13getExpressionB5cxx11Ev
FNDA:0,_ZNK5Catch15AssertionResult20getExpressionInMacroB5cxx11Ev
FNDA:0,_ZNK5Catch15AssertionResult21hasExpandedExpressionEv
FNDA:0,_ZNK5Catch15AssertionResult21getExpandedExpressionB5cxx11Ev
FNDA:0,_ZNK5Catch15AssertionResult10getMessageB5cxx11Ev
FNDA:0,_ZNK5Catch15AssertionResult13getSourceInfoEv
FNDA:0,_ZNK5Catch15AssertionResult16getTestMacroNameB5cxx11Ev
FNDA:0,_ZN5Catch15BenchmarkLooper13getResolutionEv
FNDA:0,_ZN5Catch15BenchmarkLooper11reportStartEv
FNDA:0,_ZN5Catch15BenchmarkLooper19needsMoreIterationsEv
FNDA:0,_ZN5Catch24handleExceptionMatchExprERNS_16AssertionHandlerERKNS_8Matchers4Impl11MatcherBaseINSt7__cxx1112basic_stringIcSt11char_traitsIcESaIcEEESA_EENS_9StringRefE
FNDA:0,_ZN5Catch5clara8TextFlow12isWhitespaceEc
FNDA:0,_ZN5Catch5clara8TextFlow17isBreakableBeforeEc
FNDA:0,_ZN5Catch5clara8TextFlow16isBreakableAfterEc
FNDA:0,_ZN5Catch5clara8TextFlow6ColumnC2EOS2_
FNDA:0,_ZN5Catch5clara8TextFlow6ColumnC2ERKS2_
FNDA:0,_ZN5Catch5clara8TextFlow6ColumnD2Ev
FNDA:0,_ZN5Catch5clara8TextFlow6Column8iteratorC2ERKS2_m
FNDA:0,_ZNK5Catch5clara8TextFlow6Column8iterator4lineB5cxx11Ev
FNDA:0,_ZNK5Catch5clara8TextFlow6Column8iterator10isBoundaryEm
FNDA:0,_ZN5Catch5clara8TextFlow6Column8iterator10calcLengthEv
FNDA:0,_ZNK5Catch5clara8TextFlow6Column8iterator6indentEv
FNDA:0,_ZNK5Catch5clara8TextFlow6Column8iterator18addIndentAndSuffixERKNSt7__cxx1112basic_stringIcSt11char_traitsIcESaIcEEE
FNDA:0,_ZN5Catch5clara8TextFlow6Column8iteratorC2ERKS2_
FNDA:0,_ZNK5Catch5clara8TextFlow6Column8iteratordeB5cxx11Ev
FNDA:0,_ZN5Catch5clara8TextFlow6Column8iteratorppEv
FNDA:0,_ZNK5Catch5clara8TextFlow6Column8iteratoreqERKS3_
FNDA:0,_ZNK5Catch5clara8TextFlow6Column8iteratorneERKS3_
FNDA:0,_ZN5Catch5clara8TextFlow6ColumnC2ERKNSt7__cxx1112basic_stringIcSt11char_traitsIcESaIcEEE
FNDA:0,_ZN5Catch5clara8TextFlow6Column5widthEm
FNDA:0,_ZN5Catch5clara8TextFlow6Column6indentEm
FNDA:0,_ZN5Catch5clara8TextFlow6Column13initialIndentEm
FNDA:0,_ZNK5Catch5clara8TextFlow6Column5widthEv
FNDA:0,_ZNK5Catch5clara8TextFlow6Column5beginEv
FNDA:0,_ZNK5Catch5clara8TextFlow6Column3endEv
FNDA:0,_ZN5Catch5clara8TextFlowlsERSoRKNS1_6ColumnE
FNDA:0,_ZN5Catch5clara8TextFlow6SpacerD2Ev
FNDA:0,_ZN5Catch5clara8TextFlow6SpacerC2Em
FNDA:0,_ZN5Catch5clara8TextFlow7ColumnsC2Ev
FNDA:0,_ZN5Catch5clara8TextFlow7ColumnsD2Ev
FNDA:0,_ZN5Catch5clara8TextFlow7ColumnsC2ERKS2_
FNDA:0,_ZN5Catch5clara8TextFlow7Columns8iteratorD2Ev
FNDA:0,_ZN5Catch5clara8TextFlow7Columns8iteratorC2ERKS2_NS3_6EndTagE
FNDA:0,_ZN5Catch5clara8TextFlow7Columns8iteratorC2ERKS2_
FNDA:0,_ZNK5Catch5clara8TextFlow7Columns8iteratorneERKS3_
FNDA:0,_ZNK5Catch5clara8TextFlow7Columns8iteratordeB5cxx11Ev
FNDA:0,_ZN5Catch5clara8TextFlow7Columns8iteratorppEv
FNDA:0,_ZNK5Catch5clara8TextFlow7Columns5beginEv
FNDA:0,_ZNK5Catch5clara8TextFlow7Columns3endEv
FNDA:0,_ZN5Catch5clara8TextFlow7ColumnspLERKNS1_6ColumnE
FNDA:0,_ZN5Catch5clara8TextFlow7ColumnsplERKNS1_6ColumnE
FNDA:0,_ZN5Catch5clara8TextFlowlsERSoRKNS1_7ColumnsE
FNDA:0,_ZN5Catch5clara8TextFlow6ColumnplERKS2_
FNDA:1,_ZN5Catch5clara6detail4ArgsD2Ev
FNDA:1,_ZN5Catch5clara6detail4ArgsC2EiPPc
FNDA:1,_ZNK5Catch5clara6detail4Args7exeNameB5cxx11Ev
FNDA:0,_ZN5Catch5clara6detail5TokenaSEOS2_
FNDA:0,_ZN5Catch5clara6detail5TokenC2Ev
FNDA:0,_ZN5Catch5clara6detail5TokenC2EOS2_
FNDA:0,_ZN5Catch5clara6detail5TokenC2ERKS2_
FNDA:0,_ZN5Catch5clara6detail5TokenD2Ev
FNDA:0,_ZN5Catch5clara6detail11isOptPrefixEc
FNDA:4,_ZN5Catch5clara6detail11TokenStreamC2ERKS2_
FNDA:5,_ZN5Catch5clara6detail11TokenStreamD2Ev
FNDA:1,_ZN5Catch5clara6detail11TokenStream10loadBufferEv
FNDA:1,_ZN5Catch5clara6detail11TokenStreamC2ERKNS1_4ArgsE
FNDA:1,_ZN5Catch5clara6detail11TokenStreamC2EN9__gnu_cxx17__normal_iteratorIPKNSt7__cxx1112basic_stringIcSt11char_traitsIcESaIcEEESt6vectorISA_SaISA_EEEESG_
FNDA:1,_ZNK5Catch5clara6detail11TokenStreamcvbEv
FNDA:0,_ZNK5Catch5clara6detail11TokenStreamdeEv
FNDA:0,_ZNK5Catch5clara6detail11TokenStreamptEv
FNDA:0,_ZN5Catch5clara6detail11TokenStreamppEv
FNDA:0,_ZN5Catch5clara6detail10ResultBaseaSERKS2_
FNDA:1,_ZN5Catch5clara6detail10ResultBaseC2ERKS2_
FNDA:2,_ZN5Catch5clara6detail10ResultBaseC2ENS2_4TypeE
FNDA:0,_ZN5Catch5clara6detail10ResultBaseD0Ev
FNDA:3,_ZN5Catch5clara6detail10ResultBaseD2Ev
FNDA:1,_ZNK5Catch5clara6detail15ResultValueBaseINS1_10ParseStateEE5valueEv
FNDA:0,_ZNK5Catch5clara6detail15ResultValueBaseINS1_15ParseResultTypeEE5valueEv
FNDA:0,_ZN5Catch5clara6detail15ResultValueBaseINS1_15ParseResultTypeEEC2ENS1_10ResultBase4TypeE
FNDA:0,_ZN5Catch5clara6detail15ResultValueBaseINS1_10ParseStateEEC2ENS1_10ResultBase4TypeE
FNDA:1,_ZN5Catch5clara6detail15ResultValueBaseINS1_10ParseStateEEC2ERKS4_
FNDA:0,_ZN5Catch5clara6detail15ResultValueBaseINS1_15ParseResultTypeEEC2ERKS4_
FNDA:1,_ZN5Catch5clara6detail15ResultValueBaseINS1_10ParseStateEEC2ENS1_10ResultBase4TypeERKS3_
FNDA:1,_ZN5Catch5clara6detail15ResultValueBaseINS1_15ParseResultTypeEEC2ENS1_10ResultBase4TypeERKS3_
FNDA:0,_ZN5Catch5clara6detail15ResultValueBaseINS1_10ParseStateEEaSERKS4_
FNDA:0,_ZN5Catch5clara6detail15ResultValueBaseINS1_10ParseStateEED0Ev
FNDA:2,_ZN5Catch5clara6detail15ResultValueBaseINS1_10ParseStateEED2Ev
FNDA:0,_ZN5Catch5clara6detail15ResultValueBaseINS1_15ParseResultTypeEED0Ev
FNDA:1,_ZN5Catch5clara6detail15ResultValueBaseINS1_15ParseResultTypeEED2Ev
FNDA:0,_ZN5Catch5clara6detail15ResultValueBaseIvED0Ev
FNDA:0,_ZN5Catch5clara6detail15ResultValueBaseIvED2Ev
FNDA:0,_ZN5Catch5clara6detail15ResultValueBaseIvEC2EOS3_
FNDA:0,_ZN5Catch5clara6detail15ResultValueBaseIvEC2ENS1_10ResultBase4TypeE
FNDA:0,_ZN5Catch5clara6detail11BasicResultINS1_15ParseResultTypeEEC2ERKS4_
FNDA:0,_ZN5Catch5clara6detail11BasicResultINS1_15ParseResultTypeEED0Ev
FNDA:1,_ZN5Catch5clara6detail11BasicResultINS1_15ParseResultTypeEED2Ev
FNDA:0,_ZN5Catch5clara6detail11BasicResultIvED0Ev
FNDA:0,_ZN5Catch5clara6detail11BasicResultIvED2Ev
FNDA:0,_ZN5Catch5clara6detail11BasicResultINS1_10ParseStateEED0Ev
FNDA:2,_ZN5Catch5clara6detail11BasicResultINS1_10ParseStateEED2Ev
FNDA:0,_ZN5Catch5clara6detail11BasicResultINS1_10ParseStateEEaSEOS4_
FNDA:1,_ZN5Catch5clara6detail11BasicResultINS1_10ParseStateEEC2EOS4_
FNDA:0,_ZN5Catch5clara6detail11BasicResultIvEC2EOS3_
FNDA:0,_ZN5Catch5clara6detail11BasicResultINS1_10ParseStateEEC2INS1_15ParseResultTypeEEERKNS2_IT_EE
FNDA:0,_ZN5Catch5clara6detail11BasicResultINS1_10ParseStateEEC2IvEERKNS2_IT_EE
FNDA:1,_ZN5Catch5clara6detail11BasicResultINS1_10ParseStateEE2okIS3_EES4_RKT_
FNDA:1,_ZN5Catch5clara6detail11BasicResultINS1_15ParseResultTypeEE2okIS3_EES4_RKT_
FNDA:0,_ZN5Catch5clara6detail11BasicResultIvE2okEv
FNDA:0,_ZN5Catch5clara6detail11BasicResultIvE10logicErrorERKNSt7__cxx1112basic_stringIcSt11char_traitsIcESaIcEEE
FNDA:0,_ZN5Catch5clara6detail11BasicResultINS1_15ParseResultTypeEE10logicErrorERKNSt7__cxx1112basic_stringIcSt11char_traitsIcESaIcEEE
FNDA:0,_ZN5Catch5clara6detail11BasicResultINS1_10ParseStateEE12runtimeErrorERKNSt7__cxx1112basic_stringIcSt11char_traitsIcESaIcEEE
FNDA:0,_ZN5Catch5clara6detail11BasicResultINS1_15ParseResultTypeEE12runtimeErrorERKNSt7__cxx1112basic_stringIcSt11char_traitsIcESaIcEEE
FNDA:1,_ZNK5Catch5clara6detail11BasicResultINS1_10ParseStateEEcvbEv
FNDA:0,_ZNK5Catch5clara6detail11BasicResultIvEcvbEv
FNDA:0,_ZNK5Catch5clara6detail11BasicResultINS1_15ParseResultTypeEEcvbEv
FNDA:0,_ZNK5Catch5clara6detail11BasicResultINS1_15ParseResultTypeEE4typeEv
FNDA:0,_ZNK5Catch5clara6detail11BasicResultINS1_10ParseStateEE4typeEv
FNDA:0,_ZNK5Catch5clara6detail11BasicResultIvE4typeEv
FNDA:0,_ZNK5Catch5clara6detail11BasicResultINS1_15ParseResultTypeEE12errorMessageEv
FNDA:0,_ZNK5Catch5clara6detail11BasicResultIvE12errorMessageEv
FNDA:0,_ZNK5Catch5clara6detail11BasicResultINS1_10ParseStateEE12errorMessageEv
FNDA:0,_ZNK5Catch5clara6detail11BasicResultINS1_15ParseResultTypeEE9enforceOkEv
FNDA:0,_ZNK5Catch5clara6detail11BasicResultIvE9enforceOkEv
FNDA:1,_ZNK5Catch5clara6detail11BasicResultINS1_10ParseStateEE9enforceOkEv
FNDA:0,_ZN5Catch5clara6detail11BasicResultIvEC2ENS1_10ResultBase4TypeERKNSt7__cxx1112basic_stringIcSt11char_traitsIcESaIcEEE
FNDA:0,_ZN5Catch5clara6detail11BasicResultINS1_10ParseStateEEC2ENS1_10ResultBase4TypeERKNSt7__cxx1112basic_stringIcSt11char_traitsIcESaIcEEE
FNDA:0,_ZN5Catch5clara6detail11BasicResultINS1_15ParseResultTypeEEC2ENS1_10ResultBase4TypeERKNSt7__cxx1112basic_stringIcSt11char_traitsIcESaIcEEE
FNDA:1,_ZN5Catch5clara6detail11BasicResultINS1_10ParseStateEEC2ENS1_10ResultBase4TypeERKS3_
FNDA:0,_ZN5Catch5clara6detail11BasicResultIvEC2ENS1_10ResultBase4TypeE
FNDA:1,_ZN5Catch5clara6detail11BasicResultINS1_15ParseResultTypeEEC2ENS1_10ResultBase4TypeERKS3_
FNDA:2,_ZN5Catch5clara6detail10ParseStateC2ERKS2_
FNDA:3,_ZN5Catch5clara6detail10ParseStateD2Ev
FNDA:1,_ZN5Catch5clara6detail10ParseStateC2ENS1_15ParseResultTypeERKNS1_11TokenStreamE
FNDA:0,_ZNK5Catch5clara6detail10ParseState4typeEv
FNDA:1,_ZNK5Catch5clara6detail10ParseState15remainingTokensEv
FNDA:0,_ZN5Catch5clara6detail11HelpColumnsC2EOS2_
FNDA:0,_ZN5Catch5clara6detail11HelpColumnsaSERKS2_
FNDA:0,_ZN5Catch5clara6detail11HelpColumnsaSEOS2_
FNDA:0,_ZN5Catch5clara6detail11HelpColumnsC2ERKS2_
FNDA:0,_ZN5Catch5clara6detail11HelpColumnsD2Ev
FNDA:0,_ZN5Catch5clara6detail11convertIntoIiEENS1_11BasicResultINS1_15ParseResultTypeEEERKNSt7__cxx1112basic_stringIcSt11char_traitsIcESaIcEEERT_
FNDA:0,_ZN5Catch5clara6detail11convertIntoIjEENS1_11BasicResultINS1_15ParseResultTypeEEERKNSt7__cxx1112basic_stringIcSt11char_traitsIcESaIcEEERT_
FNDA:1,_ZN5Catch5clara6detail11convertIntoERKNSt7__cxx1112basic_stringIcSt11char_traitsIcESaIcEEERS7_
FNDA:0,_ZN5Catch5clara6detail11convertIntoERKNSt7__cxx1112basic_stringIcSt11char_traitsIcESaIcEEERb
FNDA:0,_ZZN5Catch5clara6detail11convertIntoERKNSt7__cxx1112basic_stringIcSt11char_traitsIcESaIcEEERbENUlcE_4_FUNEc
FNDA:0,_ZZN5Catch5clara6detail11convertIntoERKNSt7__cxx1112basic_stringIcSt11char_traitsIcESaIcEEERbENKUlcE_clEc
FNDA:28,_ZN5Catch5clara6detail12BoundRefBaseC2Ev
FNDA:0,_ZN5Catch5clara6detail12BoundRefBaseD0Ev
FNDA:28,_ZN5Catch5clara6detail12BoundRefBaseD2Ev
FNDA:0,_ZNK5Catch5clara6detail12BoundRefBase11isContainerEv
FNDA:0,_ZN5Catch5clara6detail17BoundValueRefBaseD0Ev
FNDA:16,_ZN5Catch5clara6detail17BoundValueRefBaseD2Ev
FNDA:16,_ZN5Catch5clara6detail17BoundValueRefBaseC2Ev
FNDA:0,_ZNK5Catch5clara6detail17BoundValueRefBase6isFlagEv
FNDA:0,_ZN5Catch5clara6detail17BoundValueRefBase7setFlagEb
FNDA:0,_ZN5Catch5clara6detail16BoundFlagRefBaseD0Ev
FNDA:12,_ZN5Catch5clara6detail16BoundFlagRefBaseD2Ev
FNDA:12,_ZN5Catch5clara6detail16BoundFlagRefBaseC2Ev
FNDA:0,_ZNK5Catch5clara6detail16BoundFlagRefBase6isFlagEv
FNDA:0,_ZN5Catch5clara6detail16BoundFlagRefBase8setValueERKNSt7__cxx1112basic_stringIcSt11char_traitsIcESaIcEEE
FNDA:0,_ZN5Catch5clara6detail8BoundRefINSt7__cxx1112basic_stringIcSt11char_traitsIcESaIcEEEED0Ev
FNDA:3,_ZN5Catch5clara6detail8BoundRefINSt7__cxx1112basic_stringIcSt11char_traitsIcESaIcEEEED2Ev
FNDA:0,_ZN5Catch5clara6detail8BoundRefIiED0Ev
FNDA:1,_ZN5Catch5clara6detail8BoundRefIiED2Ev
FNDA:1,_ZN5Catch5clara6detail8BoundRefIiEC2ERi
FNDA:3,_ZN5Catch5clara6detail8BoundRefINSt7__cxx1112basic_stringIcSt11char_traitsIcESaIcEEEEC2ERS8_
FNDA:1,_ZN5Catch5clara6detail8BoundRefINSt7__cxx1112basic_stringIcSt11char_traitsIcESaIcEEEE8setValueERKS8_
FNDA:0,_ZN5Catch5clara6detail8BoundRefIiE8setValueERKNSt7__cxx1112basic_stringIcSt11char_traitsIcESaIcEEE
FNDA:0,_ZN5Catch5clara6detail8BoundRefISt6vectorINSt7__cxx1112basic_stringIcSt11char_traitsIcESaIcEEESaIS9_EEED0Ev
FNDA:3,_ZN5Catch5clara6detail8BoundRefISt6vectorINSt7__cxx1112basic_stringIcSt11char_traitsIcESaIcEEESaIS9_EEED2Ev
FNDA:3,_ZN5Catch5clara6detail8BoundRefISt6vectorINSt7__cxx1112basic_stringIcSt11char_traitsIcESaIcEEESaIS9_EEEC2ERSB_
FNDA:0,_ZNK5Catch5clara6detail8BoundRefISt6vectorINSt7__cxx1112basic_stringIcSt11char_traitsIcESaIcEEESaIS9_EEE11isContainerEv
FNDA:0,_ZN5Catch5clara6detail8BoundRefISt6vectorINSt7__cxx1112basic_stringIcSt11char_traitsIcESaIcEEESaIS9_EEE8setValueERKS9_
FNDA:0,_ZN5Catch5clara6detail12BoundFlagRefD0Ev
FNDA:10,_ZN5Catch5clara6detail12BoundFlagRefD2Ev
FNDA:10,_ZN5Catch5clara6detail12BoundFlagRefC2ERb
FNDA:0,_ZN5Catch5clara6detail12BoundFlagRef7setFlagEb
FNDA:0,_ZN5Catch5clara6detail13LambdaInvokerINS1_11BasicResultINS1_15ParseResultTypeEEEE6invokeIZNS_21makeCommandLineParserERNS_10ConfigDataEEUlRKNSt7__cxx1112basic_stringIcSt11char_traitsIcESaIcEEEE_SF_EES5_RKT_RKT0_
FNDA:0,_ZN5Catch5clara6detail13LambdaInvokerINS1_11BasicResultINS1_15ParseResultTypeEEEE6invokeIZNS_21makeCommandLineParserERNS_10ConfigDataEEUlRKNSt7__cxx1112basic_stringIcSt11char_traitsIcESaIcEEEE0_SF_EES5_RKT_RKT0_
FNDA:0,_ZN5Catch5clara6detail13LambdaInvokerINS1_11BasicResultINS1_15ParseResultTypeEEEE6invokeIZNS_21makeCommandLineParserERNS_10ConfigDataEEUlRKNSt7__cxx1112basic_stringIcSt11char_traitsIcESaIcEEEE5_SF_EES5_RKT_RKT0_
FNDA:0,_ZN5Catch5clara6detail13LambdaInvokerINS1_11BasicResultINS1_15ParseResultTypeEEEE6invokeIZNS_21makeCommandLineParserERNS_10ConfigDataEEUlRKNSt7__cxx1112basic_stringIcSt11char_traitsIcESaIcEEEE1_SF_EES5_RKT_RKT0_
FNDA:0,_ZN5Catch5clara6detail13LambdaInvokerINS1_11BasicResultINS1_15ParseResultTypeEEEE6invokeIZNS_21makeCommandLineParserERNS_10ConfigDataEEUlRKNSt7__cxx1112basic_stringIcSt11char_traitsIcESaIcEEEE2_SF_EES5_RKT_RKT0_
FNDA:0,_ZN5Catch5clara6detail13LambdaInvokerINS1_11BasicResultINS1_15ParseResultTypeEEEE6invokeIZNS_21makeCommandLineParserERNS_10ConfigDataEEUlRKNSt7__cxx1112basic_stringIcSt11char_traitsIcESaIcEEEE3_SF_EES5_RKT_RKT0_
FNDA:0,_ZN5Catch5clara6detail13LambdaInvokerINS1_11BasicResultINS1_15ParseResultTypeEEEE6invokeIZNS_21makeCommandLineParserERNS_10ConfigDataEEUlRKNSt7__cxx1112basic_stringIcSt11char_traitsIcESaIcEEEE4_SF_EES5_RKT_RKT0_
FNDA:0,_ZN5Catch5clara6detail13LambdaInvokerINS1_11BasicResultINS1_15ParseResultTypeEEEE6invokeIZNS1_4HelpC4ERbEUlbE_bEES5_RKT_RKT0_
FNDA:0,_ZN5Catch5clara6detail13LambdaInvokerIvE6invokeIZNS_21makeCommandLineParserERNS_10ConfigDataEEUliE7_iEENS1_11BasicResultINS1_15ParseResultTypeEEERKT_RKT0_
FNDA:0,_ZN5Catch5clara6detail13LambdaInvokerIvE6invokeIZNS_21makeCommandLineParserERNS_10ConfigDataEEUlbE8_bEENS1_11BasicResultINS1_15ParseResultTypeEEERKT_RKT0_
FNDA:0,_ZN5Catch5clara6detail13LambdaInvokerIvE6invokeIZNS_21makeCommandLineParserERNS_10ConfigDataEEUlbE6_bEENS1_11BasicResultINS1_15ParseResultTypeEEERKT_RKT0_
FNDA:0,_ZN5Catch5clara6detail12invokeLambdaIiZNS_21makeCommandLineParserERNS_10ConfigDataEEUliE7_EENS1_11BasicResultINS1_15ParseResultTypeEEERKT0_RKNSt7__cxx1112basic_stringIcSt11char_traitsIcESaIcEEE
FNDA:0,_ZN5Catch5clara6detail12invokeLambdaINSt7__cxx1112basic_stringIcSt11char_traitsIcESaIcEEEZNS_21makeCommandLineParserERNS_10ConfigDataEEUlRKS8_E_EENS1_11BasicResultINS1_15ParseResultTypeEEERKT0_SC_
FNDA:0,_ZN5Catch5clara6detail12invokeLambdaIbZNS_21makeCommandLineParserERNS_10ConfigDataEEUlbE8_EENS1_11BasicResultINS1_15ParseResultTypeEEERKT0_RKNSt7__cxx1112basic_stringIcSt11char_traitsIcESaIcEEE
FNDA:0,_ZN5Catch5clara6detail12invokeLambdaINSt7__cxx1112basic_stringIcSt11char_traitsIcESaIcEEEZNS_21makeCommandLineParserERNS_10ConfigDataEEUlRKS8_E0_EENS1_11BasicResultINS1_15ParseResultTypeEEERKT0_SC_
FNDA:0,_ZN5Catch5clara6detail12invokeLambdaINSt7__cxx1112basic_stringIcSt11char_traitsIcESaIcEEEZNS_21makeCommandLineParserERNS_10ConfigDataEEUlRKS8_E5_EENS1_11BasicResultINS1_15ParseResultTypeEEERKT0_SC_
FNDA:0,_ZN5Catch5clara6detail12invokeLambdaINSt7__cxx1112basic_stringIcSt11char_traitsIcESaIcEEEZNS_21makeCommandLineParserERNS_10ConfigDataEEUlRKS8_E1_EENS1_11BasicResultINS1_15ParseResultTypeEEERKT0_SC_
FNDA:0,_ZN5Catch5clara6detail12invokeLambdaINSt7__cxx1112basic_stringIcSt11char_traitsIcESaIcEEEZNS_21makeCommandLineParserERNS_10ConfigDataEEUlRKS8_E2_EENS1_11BasicResultINS1_15ParseResultTypeEEERKT0_SC_
FNDA:0,_ZN5Catch5clara6detail12invokeLambdaINSt7__cxx1112basic_stringIcSt11char_traitsIcESaIcEEEZNS_21makeCommandLineParserERNS_10ConfigDataEEUlRKS8_E3_EENS1_11BasicResultINS1_15ParseResultTypeEEERKT0_SC_
FNDA:0,_ZN5Catch5clara6detail12invokeLambdaINSt7__cxx1112basic_stringIcSt11char_traitsIcESaIcEEEZNS_21makeCommandLineParserERNS_10ConfigDataEEUlRKS8_E4_EENS1_11BasicResultINS1_15ParseResultTypeEEERKT0_SC_
FNDA:0,_ZN5Catch5clara6detail11BoundLambdaIZNS_21makeCommandLineParserERNS_10ConfigDataEEUliE7_ED0Ev
FNDA:1,_ZN5Catch5clara6detail11BoundLambdaIZNS_21makeCommandLineParserERNS_10ConfigDataEEUliE7_ED2Ev
FNDA:0,_ZN5Catch5clara6detail11BoundLambdaIZNS_21makeCommandLineParserERNS_10ConfigDataEEUlRKNSt7__cxx1112basic_stringIcSt11char_traitsIcESaIcEEEE_ED0Ev
FNDA:1,_ZN5Catch5clara6detail11BoundLambdaIZNS_21makeCommandLineParserERNS_10ConfigDataEEUlRKNSt7__cxx1112basic_stringIcSt11char_traitsIcESaIcEEEE_ED2Ev
FNDA:0,_ZN5Catch5clara6detail11BoundLambdaIZNS_21makeCommandLineParserERNS_10ConfigDataEEUlbE8_ED0Ev
FNDA:1,_ZN5Catch5clara6detail11BoundLambdaIZNS_21makeCommandLineParserERNS_10ConfigDataEEUlbE8_ED2Ev
FNDA:0,_ZN5Catch5clara6detail11BoundLambdaIZNS_21makeCommandLineParserERNS_10ConfigDataEEUlRKNSt7__cxx1112basic_stringIcSt11char_traitsIcESaIcEEEE0_ED0Ev
FNDA:1,_ZN5Catch5clara6detail11BoundLambdaIZNS_21makeCommandLineParserERNS_10ConfigDataEEUlRKNSt7__cxx1112basic_stringIcSt11char_traitsIcESaIcEEEE0_ED2Ev
FNDA:0,_ZN5Catch5clara6detail11BoundLambdaIZNS_21makeCommandLineParserERNS_10ConfigDataEEUlRKNSt7__cxx1112basic_stringIcSt11char_traitsIcESaIcEEEE5_ED0Ev
FNDA:1,_ZN5Catch5clara6detail11BoundLambdaIZNS_21makeCommandLineParserERNS_10ConfigDataEEUlRKNSt7__cxx1112basic_stringIcSt11char_traitsIcESaIcEEEE5_ED2Ev
FNDA:0,_ZN5Catch5clara6detail11BoundLambdaIZNS_21makeCommandLineParserERNS_10ConfigDataEEUlRKNSt7__cxx1112basic_stringIcSt11char_traitsIcESaIcEEEE1_ED0Ev
FNDA:1,_ZN5Catch5clara6detail11BoundLambdaIZNS_21makeCommandLineParserERNS_10ConfigDataEEUlRKNSt7__cxx1112basic_stringIcSt11char_traitsIcESaIcEEEE1_ED2Ev
FNDA:0,_ZN5Catch5clara6detail11BoundLambdaIZNS_21makeCommandLineParserERNS_10ConfigDataEEUlRKNSt7__cxx1112basic_stringIcSt11char_traitsIcESaIcEEEE2_ED0Ev
FNDA:1,_ZN5Catch5clara6detail11BoundLambdaIZNS_21makeCommandLineParserERNS_10ConfigDataEEUlRKNSt7__cxx1112basic_stringIcSt11char_traitsIcESaIcEEEE2_ED2Ev
FNDA:0,_ZN5Catch5clara6detail11BoundLambdaIZNS_21makeCommandLineParserERNS_10ConfigDataEEUlRKNSt7__cxx1112basic_stringIcSt11char_traitsIcESaIcEEEE3_ED0Ev
FNDA:1,_ZN5Catch5clara6detail11BoundLambdaIZNS_21makeCommandLineParserERNS_10ConfigDataEEUlRKNSt7__cxx1112basic_stringIcSt11char_traitsIcESaIcEEEE3_ED2Ev
FNDA:0,_ZN5Catch5clara6detail11BoundLambdaIZNS_21makeCommandLineParserERNS_10ConfigDataEEUlRKNSt7__cxx1112basic_stringIcSt11char_traitsIcESaIcEEEE4_ED0Ev
FNDA:1,_ZN5Catch5clara6detail11BoundLambdaIZNS_21makeCommandLineParserERNS_10ConfigDataEEUlRKNSt7__cxx1112basic_stringIcSt11char_traitsIcESaIcEEEE4_ED2Ev
FNDA:1,_ZN5Catch5clara6detail11BoundLambdaIZNS_21makeCommandLineParserERNS_10ConfigDataEEUlRKNSt7__cxx1112basic_stringIcSt11char_traitsIcESaIcEEEE4_EC2ERKSD_
FNDA:1,_ZN5Catch5clara6detail11BoundLambdaIZNS_21makeCommandLineParserERNS_10ConfigDataEEUlRKNSt7__cxx1112basic_stringIcSt11char_traitsIcESaIcEEEE3_EC2ERKSD_
FNDA:1,_ZN5Catch5clara6detail11BoundLambdaIZNS_21makeCommandLineParserERNS_10ConfigDataEEUlRKNSt7__cxx1112basic_stringIcSt11char_traitsIcESaIcEEEE2_EC2ERKSD_
FNDA:1,_ZN5Catch5clara6detail11BoundLambdaIZNS_21makeCommandLineParserERNS_10ConfigDataEEUlRKNSt7__cxx1112basic_stringIcSt11char_traitsIcESaIcEEEE1_EC2ERKSD_
FNDA:1,_ZN5Catch5clara6detail11BoundLambdaIZNS_21makeCommandLineParserERNS_10ConfigDataEEUlRKNSt7__cxx1112basic_stringIcSt11char_traitsIcESaIcEEEE5_EC2ERKSD_
FNDA:1,_ZN5Catch5clara6detail11BoundLambdaIZNS_21makeCommandLineParserERNS_10ConfigDataEEUlRKNSt7__cxx1112basic_stringIcSt11char_traitsIcESaIcEEEE0_EC2ERKSD_
FNDA:1,_ZN5Catch5clara6detail11BoundLambdaIZNS_21makeCommandLineParserERNS_10ConfigDataEEUlbE8_EC2ERKS5_
FNDA:1,_ZN5Catch5clara6detail11BoundLambdaIZNS_21makeCommandLineParserERNS_10ConfigDataEEUlRKNSt7__cxx1112basic_stringIcSt11char_traitsIcESaIcEEEE_EC2ERKSD_
FNDA:1,_ZN5Catch5clara6detail11BoundLambdaIZNS_21makeCommandLineParserERNS_10ConfigDataEEUliE7_EC2ERKS5_
FNDA:0,_ZN5Catch5clara6detail11BoundLambdaIZNS_21makeCommandLineParserERNS_10ConfigDataEEUliE7_E8setValueERKNSt7__cxx1112basic_stringIcSt11char_traitsIcESaIcEEE
FNDA:0,_ZN5Catch5clara6detail11BoundLambdaIZNS_21makeCommandLineParserERNS_10ConfigDataEEUlRKNSt7__cxx1112basic_stringIcSt11char_traitsIcESaIcEEEE_E8setValueESC_
FNDA:0,_ZN5Catch5clara6detail11BoundLambdaIZNS_21makeCommandLineParserERNS_10ConfigDataEEUlbE8_E8setValueERKNSt7__cxx1112basic_stringIcSt11char_traitsIcESaIcEEE
FNDA:0,_ZN5Catch5clara6detail11BoundLambdaIZNS_21makeCommandLineParserERNS_10ConfigDataEEUlRKNSt7__cxx1112basic_stringIcSt11char_traitsIcESaIcEEEE0_E8setValueESC_
FNDA:0,_ZN5Catch5clara6detail11BoundLambdaIZNS_21makeCommandLineParserERNS_10ConfigDataEEUlRKNSt7__cxx1112basic_stringIcSt11char_traitsIcESaIcEEEE5_E8setValueESC_
FNDA:0,_ZN5Catch5clara6detail11BoundLambdaIZNS_21makeCommandLineParserERNS_10ConfigDataEEUlRKNSt7__cxx1112basic_stringIcSt11char_traitsIcESaIcEEEE1_E8setValueESC_
FNDA:0,_ZN5Catch5clara6detail11BoundLambdaIZNS_21makeCommandLineParserERNS_10ConfigDataEEUlRKNSt7__cxx1112basic_stringIcSt11char_traitsIcESaIcEEEE2_E8setValueESC_
FNDA:0,_ZN5Catch5clara6detail11BoundLambdaIZNS_21makeCommandLineParserERNS_10ConfigDataEEUlRKNSt7__cxx1112basic_stringIcSt11char_traitsIcESaIcEEEE3_E8setValueESC_
FNDA:0,_ZN5Catch5clara6detail11BoundLambdaIZNS_21makeCommandLineParserERNS_10ConfigDataEEUlRKNSt7__cxx1112basic_stringIcSt11char_traitsIcESaIcEEEE4_E8setValueESC_
FNDA:0,_ZN5Catch5clara6detail15BoundFlagLambdaIZNS1_4HelpC4ERbEUlbE_ED0Ev
FNDA:1,_ZN5Catch5clara6detail15BoundFlagLambdaIZNS1_4HelpC4ERbEUlbE_ED2Ev
FNDA:0,_ZN5Catch5clara6detail15BoundFlagLambdaIZNS_21makeCommandLineParserERNS_10ConfigDataEEUlbE6_ED0Ev
FNDA:1,_ZN5Catch5clara6detail15BoundFlagLambdaIZNS_21makeCommandLineParserERNS_10ConfigDataEEUlbE6_ED2Ev
FNDA:1,_ZN5Catch5clara6detail15BoundFlagLambdaIZNS_21makeCommandLineParserERNS_10ConfigDataEEUlbE6_EC2ERKS5_
FNDA:1,_ZN5Catch5clara6detail15BoundFlagLambdaIZNS1_4HelpC4ERbEUlbE_EC2ERKS5_
FNDA:0,_ZN5Catch5clara6detail15BoundFlagLambdaIZNS1_4HelpC4ERbEUlbE_E7setFlagEb
FNDA:0,_ZN5Catch5clara6detail15BoundFlagLambdaIZNS_21makeCommandLineParserERNS_10ConfigDataEEUlbE6_E7setFlagEb
FNDA:1193,_ZN5Catch5clara6detail10ParserBaseC2ERKS2_
FNDA:3,_ZN5Catch5clara6detail10ParserBaseaSERKS2_
FNDA:32,_ZN5Catch5clara6detail10ParserBaseC2Ev
FNDA:0,_ZN5Catch5clara6detail10ParserBaseD0Ev
FNDA:1225,_ZN5Catch5clara6detail10ParserBaseD2Ev
FNDA:0,_ZNK5Catch5clara6detail10ParserBase8validateEv
FNDA:0,_ZNK5Catch5clara6detail10ParserBase11cardinalityEv
FNDA:1,_ZNK5Catch5clara6detail10ParserBase5parseERKNS1_4ArgsE
FNDA:325,_ZN5Catch5clara6detail20ComposableParserImplINS1_3OptEEC2EOS4_
FNDA:0,_ZN5Catch5clara6detail20ComposableParserImplINS1_3ArgEEC2EOS4_
FNDA:0,_ZN5Catch5clara6detail20ComposableParserImplINS1_3ArgEEaSERKS4_
FNDA:0,_ZN5Catch5clara6detail20ComposableParserImplINS1_3OptEEaSERKS4_
FNDA:754,_ZN5Catch5clara6detail20ComposableParserImplINS1_3OptEEC2ERKS4_
FNDA:2,_ZN5Catch5clara6detail20ComposableParserImplINS1_3ArgEEC2ERKS4_
FNDA:1,_ZN5Catch5clara6detail20ComposableParserImplINS1_3ArgEEC2Ev
FNDA:56,_ZN5Catch5clara6detail20ComposableParserImplINS1_7ExeNameEEC2ERKS4_
FNDA:26,_ZN5Catch5clara6detail20ComposableParserImplINS1_3OptEEC2Ev
FNDA:1,_ZN5Catch5clara6detail20ComposableParserImplINS1_7ExeNameEEaSEOS4_
FNDA:0,_ZN5Catch5clara6detail20ComposableParserImplINS1_3ArgEED0Ev
FNDA:3,_ZN5Catch5clara6detail20ComposableParserImplINS1_3ArgEED2Ev
FNDA:1,_ZN5Catch5clara6detail20ComposableParserImplINS1_7ExeNameEEaSERKS4_
FNDA:0,_ZN5Catch5clara6detail20ComposableParserImplINS1_3OptEED0Ev
FNDA:1105,_ZN5Catch5clara6detail20ComposableParserImplINS1_3OptEED2Ev
FNDA:0,_ZN5Catch5clara6detail20ComposableParserImplINS1_7ExeNameEED0Ev
FNDA:59,_ZN5Catch5clara6detail20ComposableParserImplINS1_7ExeNameEED2Ev
FNDA:3,_ZN5Catch5clara6detail20ComposableParserImplINS1_7ExeNameEEC2Ev
FNDA:325,_ZN5Catch5clara6detail13ParserRefImplINS1_3OptEEC2EOS4_
FNDA:0,_ZN5Catch5clara6detail13ParserRefImplINS1_3ArgEEC2EOS4_
FNDA:0,_ZN5Catch5clara6detail13ParserRefImplINS1_3ArgEEaSERKS4_
FNDA:0,_ZN5Catch5clara6detail13ParserRefImplINS1_3OptEEaSERKS4_
FNDA:754,_ZN5Catch5clara6detail13ParserRefImplINS1_3OptEEC2ERKS4_
FNDA:2,_ZN5Catch5clara6detail13ParserRefImplINS1_3ArgEEC2ERKS4_
FNDA:0,_ZN5Catch5clara6detail13ParserRefImplINS1_3ArgEED0Ev
FNDA:3,_ZN5Catch5clara6detail13ParserRefImplINS1_3ArgEED2Ev
FNDA:0,_ZN5Catch5clara6detail13ParserRefImplINS1_3OptEED0Ev
FNDA:1105,_ZN5Catch5clara6detail13ParserRefImplINS1_3OptEED2Ev
FNDA:12,_ZN5Catch5clara6detail13ParserRefImplINS1_3OptEEC2ERKSt10shared_ptrINS1_12BoundRefBaseEE
FNDA:1,_ZN5Catch5clara6detail13ParserRefImplINS1_3OptEEC2IiEERT_RKNSt7__cxx1112basic_stringIcSt11char_traitsIcESaIcEEE
FNDA:2,_ZN5Catch5clara6detail13ParserRefImplINS1_3OptEEC2ISt6vectorINSt7__cxx1112basic_stringIcSt11char_traitsIcESaIcEEESaISC_EEEERT_RKSC_
FNDA:2,_ZN5Catch5clara6detail13ParserRefImplINS1_3OptEEC2INSt7__cxx1112basic_stringIcSt11char_traitsIcESaIcEEEEERT_RKSB_
FNDA:1,_ZN5Catch5clara6detail13ParserRefImplINS1_3ArgEEC2ISt6vectorINSt7__cxx1112basic_stringIcSt11char_traitsIcESaIcEEESaISC_EEEERT_RKSC_
FNDA:1,_ZN5Catch5clara6detail13ParserRefImplINS1_3OptEEC2IZNS_21makeCommandLineParserERNS_10ConfigDataEEUlRKNSt7__cxx1112basic_stringIcSt11char_traitsIcESaIcEEEE4_EERKT_SF_
FNDA:1,_ZN5Catch5clara6detail13ParserRefImplINS1_3OptEEC2IZNS_21makeCommandLineParserERNS_10ConfigDataEEUlRKNSt7__cxx1112basic_stringIcSt11char_traitsIcESaIcEEEE3_EERKT_SF_
FNDA:1,_ZN5Catch5clara6detail13ParserRefImplINS1_3OptEEC2IZNS_21makeCommandLineParserERNS_10ConfigDataEEUlRKNSt7__cxx1112basic_stringIcSt11char_traitsIcESaIcEEEE2_EERKT_SF_
FNDA:1,_ZN5Catch5clara6detail13ParserRefImplINS1_3OptEEC2IZNS_21makeCommandLineParserERNS_10ConfigDataEEUlRKNSt7__cxx1112basic_stringIcSt11char_traitsIcESaIcEEEE1_EERKT_SF_
FNDA:1,_ZN5Catch5clara6detail13ParserRefImplINS1_3OptEEC2IZNS_21makeCommandLineParserERNS_10ConfigDataEEUlRKNSt7__cxx1112basic_stringIcSt11char_traitsIcESaIcEEEE5_EERKT_SF_
FNDA:1,_ZN5Catch5clara6detail13ParserRefImplINS1_3OptEEC2IZNS_21makeCommandLineParserERNS_10ConfigDataEEUlRKNSt7__cxx1112basic_stringIcSt11char_traitsIcESaIcEEEE0_EERKT_SF_
FNDA:1,_ZN5Catch5clara6detail13ParserRefImplINS1_3OptEEC2IZNS_21makeCommandLineParserERNS_10ConfigDataEEUlbE8_EERKT_RKNSt7__cxx1112basic_stringIcSt11char_traitsIcESaIcEEE
FNDA:1,_ZN5Catch5clara6detail13ParserRefImplINS1_3OptEEC2IZNS_21makeCommandLineParserERNS_10ConfigDataEEUlRKNSt7__cxx1112basic_stringIcSt11char_traitsIcESaIcEEEE_EERKT_SF_
FNDA:1,_ZN5Catch5clara6detail13ParserRefImplINS1_3OptEEC2IZNS_21makeCommandLineParserERNS_10ConfigDataEEUliE7_EERKT_RKNSt7__cxx1112basic_stringIcSt11char_traitsIcESaIcEEE
FNDA:1,_ZN5Catch5clara6detail13ParserRefImplINS1_3ArgEEclERKNSt7__cxx1112basic_stringIcSt11char_traitsIcESaIcEEE
FNDA:26,_ZN5Catch5clara6detail13ParserRefImplINS1_3OptEEclERKNSt7__cxx1112basic_stringIcSt11char_traitsIcESaIcEEE
FNDA:1,_ZN5Catch5clara6detail13ParserRefImplINS1_3OptEE8optionalEv
FNDA:0,_ZNK5Catch5clara6detail13ParserRefImplINS1_3ArgEE10isOptionalEv
FNDA:0,_ZNK5Catch5clara6detail13ParserRefImplINS1_3OptEE11cardinalityEv
FNDA:0,_ZNK5Catch5clara6detail13ParserRefImplINS1_3ArgEE11cardinalityEv
FNDA:0,_ZNK5Catch5clara6detail13ParserRefImplINS1_3ArgEE4hintEv
FNDA:0,_ZN5Catch5clara6detail7ExeNameD0Ev
FNDA:59,_ZN5Catch5clara6detail7ExeNameD2Ev
FNDA:56,_ZN5Catch5clara6detail7ExeNameC2ERKS2_
FNDA:1,_ZN5Catch5clara6detail7ExeNameaSEOS2_
FNDA:1,_ZN5Catch5clara6detail7ExeNameaSERKS2_
FNDA:3,_ZN5Catch5clara6detail7ExeNameC2Ev
FNDA:1,_ZN5Catch5clara6detail7ExeNameC2ERNSt7__cxx1112basic_stringIcSt11char_traitsIcESaIcEEE
FNDA:0,_ZNK5Catch5clara6detail7ExeName5parseERKNSt7__cxx1112basic_stringIcSt11char_traitsIcESaIcEEERKNS1_11TokenStreamE
FNDA:0,_ZNK5Catch5clara6detail7ExeName4nameB5cxx11Ev
FNDA:1,_ZN5Catch5clara6detail7ExeName3setERKNSt7__cxx1112basic_stringIcSt11char_traitsIcESaIcEEE
FNDA:0,_ZN5Catch5clara6detail3ArgD0Ev
FNDA:3,_ZN5Catch5clara6detail3ArgD2Ev
FNDA:0,_ZN5Catch5clara6detail3ArgC2EOS2_
FNDA:0,_ZN5Catch5clara6detail3ArgaSERKS2_
FNDA:2,_ZN5Catch5clara6detail3ArgC2ERKS2_
FNDA:1,_ZN5Catch5clara6detail3ArgC2ISt6vectorINSt7__cxx1112basic_stringIcSt11char_traitsIcESaIcEEESaISA_EEEERT_RKSA_
FNDA:0,_ZNK5Catch5clara6detail3Arg5parseERKNSt7__cxx1112basic_stringIcSt11char_traitsIcESaIcEEERKNS1_11TokenStreamE
FNDA:0,_ZN5Catch5clara6detail12normaliseOptERKNSt7__cxx1112basic_stringIcSt11char_traitsIcESaIcEEE
FNDA:325,_ZN5Catch5clara6detail3OptC2EOS2_
FNDA:0,_ZN5Catch5clara6detail3OptaSERKS2_
FNDA:754,_ZN5Catch5clara6detail3OptC2ERKS2_
FNDA:0,_ZN5Catch5clara6detail3OptD0Ev
FNDA:1105,_ZN5Catch5clara6detail3OptD2Ev
FNDA:1,_ZN5Catch5clara6detail3OptC2IZNS_21makeCommandLineParserERNS_10ConfigDataEEUlbE6_EERKT_
FNDA:1,_ZN5Catch5clara6detail3OptC2IZNS1_4HelpC4ERbEUlbE_EERKT_
FNDA:10,_ZN5Catch5clara6detail3OptC2ERb
FNDA:1,_ZN5Catch5clara6detail3OptC2IZNS_21makeCommandLineParserERNS_10ConfigDataEEUlRKNSt7__cxx1112basic_stringIcSt11char_traitsIcESaIcEEEE4_EERKT_SD_
FNDA:1,_ZN5Catch5clara6detail3OptC2IZNS_21makeCommandLineParserERNS_10ConfigDataEEUlRKNSt7__cxx1112basic_stringIcSt11char_traitsIcESaIcEEEE3_EERKT_SD_
FNDA:1,_ZN5Catch5clara6detail3OptC2IZNS_21makeCommandLineParserERNS_10ConfigDataEEUlRKNSt7__cxx1112basic_stringIcSt11char_traitsIcESaIcEEEE2_EERKT_SD_
FNDA:1,_ZN5Catch5clara6detail3OptC2IZNS_21makeCommandLineParserERNS_10ConfigDataEEUlRKNSt7__cxx1112basic_stringIcSt11char_traitsIcESaIcEEEE1_EERKT_SD_
FNDA:1,_ZN5Catch5clara6detail3OptC2IZNS_21makeCommandLineParserERNS_10ConfigDataEEUlRKNSt7__cxx1112basic_stringIcSt11char_traitsIcESaIcEEEE5_EERKT_SD_
FNDA:1,_ZN5Catch5clara6detail3OptC2IZNS_21makeCommandLineParserERNS_10ConfigDataEEUlRKNSt7__cxx1112basic_stringIcSt11char_traitsIcESaIcEEEE0_EERKT_SD_
FNDA:1,_ZN5Catch5clara6detail3OptC2IZNS_21makeCommandLineParserERNS_10ConfigDataEEUlbE8_EERKT_RKNSt7__cxx1112basic_stringIcSt11char_traitsIcESaIcEEE
FNDA:1,_ZN5Catch5clara6detail3OptC2IZNS_21makeCommandLineParserERNS_10ConfigDataEEUlRKNSt7__cxx1112basic_stringIcSt11char_traitsIcESaIcEEEE_EERKT_SD_
FNDA:1,_ZN5Catch5clara6detail3OptC2IZNS_21makeCommandLineParserERNS_10ConfigDataEEUliE7_EERKT_RKNSt7__cxx1112basic_stringIcSt11char_traitsIcESaIcEEE
FNDA:1,_ZN5Catch5clara6detail3OptC2IiEERT_RKNSt7__cxx1112basic_stringIcSt11char_traitsIcESaIcEEE
FNDA:2,_ZN5Catch5clara6detail3OptC2ISt6vectorINSt7__cxx1112basic_stringIcSt11char_traitsIcESaIcEEESaISA_EEEERT_RKSA_
FNDA:2,_ZN5Catch5clara6detail3OptC2INSt7__cxx1112basic_stringIcSt11char_traitsIcESaIcEEEEERT_RKS9_
FNDA:45,_ZN5Catch5clara6detail3OptixERKNSt7__cxx1112basic_stringIcSt11char_traitsIcESaIcEEE
FNDA:0,_ZNK5Catch5clara6detail3Opt14getHelpColumnsEv
FNDA:0,_ZNK5Catch5clara6detail3Opt7isMatchERKNSt7__cxx1112basic_stringIcSt11char_traitsIcESaIcEEE
FNDA:0,_ZNK5Catch5clara6detail3Opt5parseERKNSt7__cxx1112basic_stringIcSt11char_traitsIcESaIcEEERKNS1_11TokenStreamE
FNDA:0,_ZNK5Catch5clara6detail3Opt8validateEv
FNDA:0,_ZN5Catch5clara6detail4HelpD0Ev
FNDA:1,_ZN5Catch5clara6detail4HelpD2Ev
FNDA:1,_ZN5Catch5clara6detail4HelpC2ERb
FNDA:0,_ZZN5Catch5clara6detail4HelpC4ERbENKUlbE_clEb
FNDA:0,_ZN5Catch5clara6detail6ParserD0Ev
FNDA:58,_ZN5Catch5clara6detail6ParserD2Ev
FNDA:56,_ZN5Catch5clara6detail6ParserC2ERKS2_
FNDA:0,_ZN5Catch5clara6detail6ParseraSERKS2_
FNDA:1,_ZN5Catch5clara6detail6ParseraSEOS2_
FNDA:2,_ZN5Catch5clara6detail6ParserC2Ev
FNDA:1,_ZN5Catch5clara6detail6ParseroRERKNS1_7ExeNameE
FNDA:1,_ZN5Catch5clara6detail6ParseroRERKNS1_3ArgE
FNDA:26,_ZN5Catch5clara6detail6ParseroRERKNS1_3OptE
FNDA:1,_ZNK5Catch5clara6detail6ParserorINS1_4HelpEEES2_RKT_
FNDA:1,_ZNK5Catch5clara6detail6ParserorINS1_7ExeNameEEES2_RKT_
FNDA:1,_ZNK5Catch5clara6detail6ParserorINS1_3ArgEEES2_RKT_
FNDA:25,_ZNK5Catch5clara6detail6ParserorINS1_3OptEEES2_RKT_
FNDA:0,_ZNK5Catch5clara6detail6Parser14getHelpColumnsEv
FNDA:0,_ZNK5Catch5clara6detail6Parser13writeToStreamERSo
FNDA:0,_ZN5Catch5clara6detaillsERSoRKNS1_6ParserE
FNDA:0,_ZNK5Catch5clara6detail6Parser8validateEv
FNDA:1,_ZNK5Catch5clara6detail6Parser5parseERKNSt7__cxx1112basic_stringIcSt11char_traitsIcESaIcEEERKNS1_11TokenStreamE
FNDA:1,_ZNK5Catch5clara6detail20ComposableParserImplINS1_7ExeNameEEorINS1_4HelpEEENS1_6ParserERKT_
FNDA:1,_ZN5Catch21makeCommandLineParserERNS_10ConfigDataE
FNDA:0,_ZZN5Catch21makeCommandLineParserERNS_10ConfigDataEENKUlRKNSt7__cxx1112basic_stringIcSt11char_traitsIcESaIcEEEE_clES9_
FNDA:0,_ZZN5Catch21makeCommandLineParserERNS_10ConfigDataEENKUlRKNSt7__cxx1112basic_stringIcSt11char_traitsIcESaIcEEEE0_clES9_
FNDA:0,_ZZN5Catch21makeCommandLineParserERNS_10ConfigDataEENKUlRKNSt7__cxx1112basic_stringIcSt11char_traitsIcESaIcEEEE1_clES9_
FNDA:0,_ZZN5Catch21makeCommandLineParserERNS_10ConfigDataEENKUlRKNSt7__cxx1112basic_stringIcSt11char_traitsIcESaIcEEEE2_clES9_
FNDA:0,_ZZN5Catch21makeCommandLineParserERNS_10ConfigDataEENKUlRKNSt7__cxx1112basic_stringIcSt11char_traitsIcESaIcEEEE3_clES9_
FNDA:0,_ZZN5Catch21makeCommandLineParserERNS_10ConfigDataEENKUlRKNSt7__cxx1112basic_stringIcSt11char_traitsIcESaIcEEEE4_clES9_
FNDA:0,_ZZN5Catch21makeCommandLineParserERNS_10ConfigDataEENKUlRKNSt7__cxx1112basic_stringIcSt11char_traitsIcESaIcEEEE5_clES9_
FNDA:0,_ZZN5Catch21makeCommandLineParserERNS_10ConfigDataEENKUlbE6_clEb
FNDA:0,_ZZN5Catch21makeCommandLineParserERNS_10ConfigDataEENKUliE7_clEi
FNDA:0,_ZZN5Catch21makeCommandLineParserERNS_10ConfigDataEENKUlbE8_clEb
FNDA:17,_ZN5Catch14SourceLineInfoC2EPKcm
FNDA:0,_ZNK5Catch14SourceLineInfo5emptyEv
FNDA:3,_ZNK5Catch14SourceLineInfoeqERKS0_
FNDA:0,_ZNK5Catch14SourceLineInfoltERKS0_
FNDA:0,_ZN5CatchlsERSoRKNS_14SourceLineInfoE
FNDA:4,_ZN5Catch6isTrueEb
FNDA:0,_ZN5Catch10alwaysTrueEv
FNDA:0,_ZN5Catch11alwaysFalseEv
FNDA:0,_ZNK5Catch13StreamEndStoppsB5cxx11Ev
FNDA:1,_ZN5Catch6ConfigC2ERKNS_10ConfigDataE
FNDA:0,_ZNK5Catch6Config11getFilenameB5cxx11Ev
FNDA:1,_ZNK5Catch6Config9listTestsEv
FNDA:1,_ZNK5Catch6Config17listTestNamesOnlyEv
FNDA:1,_ZNK5Catch6Config8listTagsEv
FNDA:1,_ZNK5Catch6Config13listReportersEv
FNDA:0,_ZNK5Catch6Config14getProcessNameB5cxx11Ev
FNDA:1,_ZNK5Catch6Config16getReporterNamesB5cxx11Ev
FNDA:3,_ZNK5Catch6Config16getSectionsToRunB5cxx11Ev
FNDA:1,_ZNK5Catch6Config8testSpecEv
FNDA:0,_ZNK5Catch6Config8showHelpEv
FNDA:3,_ZNK5Catch6Config11allowThrowsEv
FNDA:1,_ZNK5Catch6Config6streamEv
FNDA:3,_ZNK5Catch6Config4nameB5cxx11Ev
FNDA:4,_ZNK5Catch6Config24includeSuccessfulResultsEv
FNDA:0,_ZNK5Catch6Config26warnAboutMissingAssertionsEv
FNDA:8,_ZNK5Catch6Config13showDurationsEv
FNDA:3,_ZNK5Catch6Config8runOrderEv
FNDA:5,_ZNK5Catch6Config7rngSeedEv
FNDA:0,_ZNK5Catch6Config27benchmarkResolutionMultipleEv
FNDA:1,_ZNK5Catch6Config9useColourEv
FNDA:0,_ZNK5Catch6Config16shouldDebugBreakEv
FNDA:9,_ZNK5Catch6Config10abortAfterEv
FNDA:0,_ZNK5Catch6Config14showInvisiblesEv
FNDA:1,_ZNK5Catch6Config9verbosityEv
FNDA:1,_ZN5Catch6Config10openStreamEv
FNDA:1,_ZN5Catch12_GLOBAL__N_111IColourImplD2Ev
FNDA:0,_ZN5Catch12_GLOBAL__N_112NoColourImplD0Ev
FNDA:1,_ZN5Catch12_GLOBAL__N_112NoColourImplD2Ev
FNDA:8,_ZN5Catch12_GLOBAL__N_112NoColourImpl3useENS_6Colour4CodeE
FNDA:1,_ZN5Catch12_GLOBAL__N_112NoColourImpl8instanceEv
FNDA:0,_ZN5Catch12_GLOBAL__N_115PosixColourImplD0Ev
FNDA:0,_ZN5Catch12_GLOBAL__N_115PosixColourImplD2Ev
FNDA:0,_ZN5Catch12_GLOBAL__N_115PosixColourImpl3useENS_6Colour4CodeE
FNDA:0,_ZN5Catch12_GLOBAL__N_115PosixColourImpl8instanceEv
FNDA:0,_ZN5Catch12_GLOBAL__N_115PosixColourImpl9setColourEPKc
FNDA:1,_ZN5Catch12_GLOBAL__N_119useColourOnPlatformEv
FNDA:1,_ZN5Catch12_GLOBAL__N_122platformColourInstanceEv
FNDA:4,_ZN5Catch6ColourC2ENS0_4CodeE
FNDA:0,_ZN5Catch6ColourC2EOS0_
FNDA:0,_ZN5Catch6ColouraSEOS0_
FNDA:4,_ZN5Catch6ColourD2Ev
FNDA:8,_ZN5Catch6Colour3useENS0_4CodeE
FNDA:4,_ZN5CatchlsERSoRKNS_6ColourE
FNDA:1,_ZN5Catch7ContextD0Ev
FNDA:1,_ZN5Catch7ContextD2Ev
FNDA:1,_ZN5Catch7ContextC2Ev
FNDA:22,_ZN5Catch7Context16getResultCaptureEv
FNDA:0,_ZN5Catch7Context9getRunnerEv
FNDA:1,_ZNK5Catch7Context9getConfigEv
FNDA:1,_ZN5Catch7Context16setResultCaptureEPNS_14IResultCaptureE
FNDA:1,_ZN5Catch7Context9setRunnerEPNS_7IRunnerE
FNDA:1,_ZN5Catch7Context9setConfigERKSt10shared_ptrIKNS_7IConfigEE
FNDA:24,_ZN5Catch24getCurrentMutableContextEv
FNDA:23,_ZN5Catch17getCurrentContextEv
FNDA:1,_ZN5Catch14cleanUpContextEv
FNDA:0,_ZN5Catch19writeToDebugConsoleERKNSt7__cxx1112basic_stringIcSt11char_traitsIcESaIcEEE
FNDA:0,_ZN5Catch16isDebuggerActiveEv
FNDA:0,_ZN5Catch29formatReconstructedExpressionERSoRKNSt7__cxx1112basic_stringIcSt11char_traitsIcESaIcEEENS_9StringRefES8_
FNDA:1,_ZN5Catch10ErrnoGuardC2Ev
FNDA:1,_ZN5Catch10ErrnoGuardD2Ev
FNDA:1,_ZN5Catch27ExceptionTranslatorRegistryC2Ev
FNDA:0,_ZN5Catch27ExceptionTranslatorRegistryD0Ev
FNDA:1,_ZN5Catch27ExceptionTranslatorRegistryD2Ev
FNDA:0,_ZN5Catch27ExceptionTranslatorRegistry18registerTranslatorEPKNS_20IExceptionTranslatorE
FNDA:0,_ZNK5Catch27ExceptionTranslatorRegistry24translateActiveExceptionB5cxx11Ev
FNDA:0,_ZNK5Catch27ExceptionTranslatorRegistry14tryTranslatorsB5cxx11Ev
FNDA:0,_ZN12_GLOBAL__N_111reportFatalEPKc
FNDA:0,_ZN5Catch21FatalConditionHandler12handleSignalEi
FNDA:4,_ZN5Catch21FatalConditionHandlerC2Ev
FNDA:4,_ZN5Catch21FatalConditionHandlerD2Ev
FNDA:8,_ZN5Catch21FatalConditionHandler5resetEv
FNDA:0,_ZN5Catch17MultipleReportersD0Ev
FNDA:0,_ZN5Catch17MultipleReportersD2Ev
FNDA:0,_ZN5Catch17MultipleReportersC2Ev
FNDA:1,_ZN5Catch14ReporterConfigC2ERKSt10shared_ptrIKNS_7IConfigEE
FNDA:0,_ZN5Catch14ReporterConfigC2ERKSt10shared_ptrIKNS_7IConfigEERSo
FNDA:2,_ZNK5Catch14ReporterConfig6streamEv
FNDA:1,_ZNK5Catch14ReporterConfig10fullConfigEv
FNDA:1,_ZN5Catch11TestRunInfoC2ERKNSt7__cxx1112basic_stringIcSt11char_traitsIcESaIcEEE
FNDA:2,_ZN5Catch9GroupInfoC2ERKNSt7__cxx1112basic_stringIcSt11char_traitsIcESaIcEEEmm
FNDA:4,_ZN5Catch14AssertionStatsC2ERKNS_15AssertionResultERKSt6vectorINS_11MessageInfoESaIS5_EERKNS_6TotalsE
FNDA:8,_ZN5Catch12SectionStatsC2ERKNS_11SectionInfoERKNS_6CountsEdb
FNDA:3,_ZN5Catch13TestCaseStatsC2ERKNS_12TestCaseInfoERKNS_6TotalsERKNSt7__cxx1112basic_stringIcSt11char_traitsIcESaIcEEESE_b
FNDA:1,_ZN5Catch14TestGroupStatsC2ERKNS_9GroupInfoERKNS_6TotalsEb
FNDA:0,_ZN5Catch14TestGroupStatsC2ERKNS_9GroupInfoE
FNDA:1,_ZN5Catch12TestRunStatsC2ERKNS_11TestRunInfoERKNS_6TotalsEb
FNDA:0,_ZN5Catch18IStreamingReporter21fatalErrorEncounteredENS_9StringRefE
FNDA:0,_ZNK5Catch18IStreamingReporter7isMultiEv
FNDA:0,_ZN5Catch11addReporterERSt10unique_ptrINS_18IStreamingReporterESt14default_deleteIS1_EEOS4_
FNDA:1,_ZN5Catch12LeakDetectorC2Ev
FNDA:0,_ZN5Catch7TagInfoC2EOS0_
FNDA:0,_ZN5Catch7TagInfoD2Ev
FNDA:0,_ZN5Catch7TagInfoC2Ev
FNDA:0,_ZN5Catch9listTestsERKNS_6ConfigE
FNDA:0,_ZN5Catch18listTestsNamesOnlyERKNS_6ConfigE
FNDA:0,_ZN5Catch7TagInfo3addERKNSt7__cxx1112basic_stringIcSt11char_traitsIcESaIcEEE
FNDA:0,_ZNK5Catch7TagInfo3allB5cxx11Ev
FNDA:0,_ZN5Catch8listTagsERKNS_6ConfigE
FNDA:0,_ZN5Catch13listReportersERKNS_6ConfigE
FNDA:1,_ZN5Catch4listERKNS_6ConfigE
FNDA:0,_ZNK5Catch8Matchers4Impl18MatcherUntypedBase8toStringB5cxx11Ev
FNDA:0,_ZN5Catch8Matchers9StdString11CasedStringC2ERKNSt7__cxx1112basic_stringIcSt11char_traitsIcESaIcEEENS_13CaseSensitive6ChoiceE
FNDA:0,_ZNK5Catch8Matchers9StdString11CasedString12adjustStringERKNSt7__cxx1112basic_stringIcSt11char_traitsIcESaIcEEE
FNDA:0,_ZNK5Catch8Matchers9StdString11CasedString21caseSensitivitySuffixB5cxx11Ev
FNDA:0,_ZN5Catch8Matchers9StdString17StringMatcherBaseC2ERKNSt7__cxx1112basic_stringIcSt11char_traitsIcESaIcEEERKNS1_11CasedStringE
FNDA:0,_ZNK5Catch8Matchers9StdString17StringMatcherBase8describeB5cxx11Ev
FNDA:0,_ZN5Catch8Matchers9StdString13EqualsMatcherC2ERKNS1_11CasedStringE
FNDA:0,_ZNK5Catch8Matchers9StdString13EqualsMatcher5matchERKNSt7__cxx1112basic_stringIcSt11char_traitsIcESaIcEEE
FNDA:0,_ZN5Catch8Matchers9StdString15ContainsMatcherC2ERKNS1_11CasedStringE
FNDA:0,_ZNK5Catch8Matchers9StdString15ContainsMatcher5matchERKNSt7__cxx1112basic_stringIcSt11char_traitsIcESaIcEEE
FNDA:0,_ZN5Catch8Matchers9StdString17StartsWithMatcherC2ERKNS1_11CasedStringE
FNDA:0,_ZNK5Catch8Matchers9StdString17StartsWithMatcher5matchERKNSt7__cxx1112basic_stringIcSt11char_traitsIcESaIcEEE
FNDA:0,_ZN5Catch8Matchers9StdString15EndsWithMatcherC2ERKNS1_11CasedStringE
FNDA:0,_ZNK5Catch8Matchers9StdString15EndsWithMatcher5matchERKNSt7__cxx1112basic_stringIcSt11char_traitsIcESaIcEEE
FNDA:0,_ZN5Catch8Matchers6EqualsERKNSt7__cxx1112basic_stringIcSt11char_traitsIcESaIcEEENS_13CaseSensitive6ChoiceE
FNDA:0,_ZN5Catch8Matchers8ContainsERKNSt7__cxx1112basic_stringIcSt11char_traitsIcESaIcEEENS_13CaseSensitive6ChoiceE
FNDA:0,_ZN5Catch8Matchers8EndsWithERKNSt7__cxx1112basic_stringIcSt11char_traitsIcESaIcEEENS_13CaseSensitive6ChoiceE
FNDA:0,_ZN5Catch8Matchers10StartsWithERKNSt7__cxx1112basic_stringIcSt11char_traitsIcESaIcEEENS_13CaseSensitive6ChoiceE
FNDA:0,_ZN5Catch11MessageInfoC2ERKNSt7__cxx1112basic_stringIcSt11char_traitsIcESaIcEEERKNS_14SourceLineInfoENS_9ResultWas6OfTypeE
FNDA:0,_ZNK5Catch11MessageInfoeqERKS0_
FNDA:0,_ZNK5Catch11MessageInfoltERKS0_
FNDA:0,_ZN5Catch14MessageBuilderC2ERKNSt7__cxx1112basic_stringIcSt11char_traitsIcESaIcEEERKNS_14SourceLineInfoENS_9ResultWas6OfTypeE
FNDA:0,_ZN5Catch13ScopedMessageC2ERKNS_14MessageBuilderE
FNDA:0,_ZN5Catch13ScopedMessageD2Ev
FNDA:0,_ZN5Catch21RandomNumberGenerator3maxEv
FNDA:0,_ZN5Catch21RandomNumberGenerator7shuffleISt6vectorINS_8TestCaseESaIS3_EEEEvRT_
FNDA:5,_ZN5Catch7seedRngERKNS_7IConfigE
FNDA:0,_ZN5Catch7rngSeedEv
FNDA:0,_ZNK5Catch21RandomNumberGeneratorclEj
FNDA:0,_ZNK5Catch21RandomNumberGeneratorclEv
FNDA:1,_ZN5Catch12TestRegistryC2Ev
FNDA:0,_ZN5Catch12TestRegistryD0Ev
FNDA:1,_ZN5Catch12TestRegistryD2Ev
FNDA:3,_ZN5Catch21TestInvokerAsFunctionD0Ev
FNDA:3,_ZN5Catch21TestInvokerAsFunctionD2Ev
FNDA:0,_ZN5Catch16ReporterRegistryD0Ev
FNDA:1,_ZN5Catch16ReporterRegistryD2Ev
FNDA:1,_ZN5Catch16ReporterRegistryC2Ev
FNDA:0,_ZN5Catch8TagAliasC2EOS0_
FNDA:0,_ZN5Catch8TagAliasD2Ev
FNDA:1,_ZN5Catch16TagAliasRegistryC2Ev
FNDA:1,_ZN5Catch24StartupExceptionRegistryD2Ev
FNDA:1,_ZN5Catch24StartupExceptionRegistryC2Ev
FNDA:1,_ZN5Catch12_GLOBAL__N_111RegistryHubD0Ev
FNDA:1,_ZN5Catch12_GLOBAL__N_111RegistryHubD2Ev
FNDA:1,_ZN5Catch12_GLOBAL__N_111RegistryHubC2Ev
FNDA:2,_ZNK5Catch12_GLOBAL__N_111RegistryHub19getReporterRegistryEv
FNDA:1,_ZNK5Catch12_GLOBAL__N_111RegistryHub19getTestCaseRegistryEv
FNDA:0,_ZN5Catch12_GLOBAL__N_111RegistryHub30getExceptionTranslatorRegistryEv
FNDA:1,_ZNK5Catch12_GLOBAL__N_111RegistryHub19getTagAliasRegistryEv
FNDA:1,_ZNK5Catch12_GLOBAL__N_111RegistryHub27getStartupExceptionRegistryEv
FNDA:4,_ZN5Catch12_GLOBAL__N_111RegistryHub16registerReporterERKNSt7__cxx1112basic_stringIcSt11char_traitsIcESaIcEEERKSt10shared_ptrINS_16IReporterFactoryEE
FNDA:0,_ZN5Catch12_GLOBAL__N_111RegistryHub16registerListenerERKSt10shared_ptrINS_16IReporterFactoryEE
FNDA:3,_ZN5Catch12_GLOBAL__N_111RegistryHub12registerTestERKNS_8TestCaseE
FNDA:0,_ZN5Catch12_GLOBAL__N_111RegistryHub18registerTranslatorEPKNS_20IExceptionTranslatorE
FNDA:0,_ZN5Catch12_GLOBAL__N_111RegistryHub16registerTagAliasERKNSt7__cxx1112basic_stringIcSt11char_traitsIcESaIcEEES9_RKNS_14SourceLineInfoE
FNDA:0,_ZN5Catch12_GLOBAL__N_111RegistryHub24registerStartupExceptionEv
FNDA:14,_ZN5Catch12_GLOBAL__N_117getTheRegistryHubEv
FNDA:5,_ZN5Catch14getRegistryHubEv
FNDA:7,_ZN5Catch21getMutableRegistryHubEv
FNDA:1,_ZN5Catch7cleanUpEv
FNDA:0,_ZN5Catch24translateActiveExceptionB5cxx11Ev
FNDA:1,_ZNK5Catch16ReporterRegistry6createERKNSt7__cxx1112basic_stringIcSt11char_traitsIcESaIcEEERKSt10shared_ptrIKNS_7IConfigEE
FNDA:4,_ZN5Catch16ReporterRegistry16registerReporterERKNSt7__cxx1112basic_stringIcSt11char_traitsIcESaIcEEERKSt10shared_ptrINS_16IReporterFactoryEE
FNDA:0,_ZN5Catch16ReporterRegistry16registerListenerERKSt10shared_ptrINS_16IReporterFactoryEE
FNDA:0,_ZNK5Catch16ReporterRegistry12getFactoriesB5cxx11Ev
FNDA:1,_ZNK5Catch16ReporterRegistry12getListenersEv
FNDA:8,_ZN5Catch4isOkENS_9ResultWas6OfTypeE
FNDA:0,_ZN5Catch10isJustInfoEi
FNDA:0,_ZN5CatchorENS_17ResultDisposition5FlagsES1_
FNDA:0,_ZN5Catch23shouldContinueOnFailureEi
FNDA:4,_ZN5Catch11isFalseTestEi
FNDA:0,_ZN5Catch21shouldSuppressFailureEi
FNDA:0,_ZN5Catch14StreamRedirectC2ERSoRNSt7__cxx1112basic_stringIcSt11char_traitsIcESaIcEEE
FNDA:0,_ZN5Catch14StreamRedirectD2Ev
FNDA:0,_ZN5Catch14StdErrRedirectC2ERNSt7__cxx1112basic_stringIcSt11char_traitsIcESaIcEEE
FNDA:0,_ZN5Catch14StdErrRedirectD2Ev
FNDA:1,_ZN5Catch10RunContextC2ERKSt10shared_ptrIKNS_7IConfigEEOSt10unique_ptrINS_18IStreamingReporterESt14default_deleteIS8_EE
FNDA:0,_ZN5Catch10RunContextD0Ev
FNDA:1,_ZN5Catch10RunContextD2Ev
FNDA:1,_ZN5Catch10RunContext17testGroupStartingERKNSt7__cxx1112basic_stringIcSt11char_traitsIcESaIcEEEmm
FNDA:1,_ZN5Catch10RunContext14testGroupEndedERKNSt7__cxx1112basic_stringIcSt11char_traitsIcESaIcEEERKNS_6TotalsEmm
FNDA:3,_ZN5Catch10RunContext7runTestERKNS_8TestCaseE
FNDA:0,_ZNK5Catch10RunContext6configEv
FNDA:0,_ZNK5Catch10RunContext8reporterEv
FNDA:4,_ZN5Catch10RunContext17assertionStartingERKNS_13AssertionInfoE
FNDA:4,_ZN5Catch10RunContext14assertionEndedERKNS_15AssertionResultE
FNDA:6,_ZN5Catch10RunContext14sectionStartedERKNS_11SectionInfoERNS_6CountsE
FNDA:8,_ZN5Catch10RunContext24testForMissingAssertionsERNS_6CountsE
FNDA:4,_ZN5Catch10RunContext12sectionEndedERKNS_14SectionEndInfoE
FNDA:0,_ZN5Catch10RunContext17sectionEndedEarlyERKNS_14SectionEndInfoE
FNDA:0,_ZN5Catch10RunContext17benchmarkStartingERKNS_13BenchmarkInfoE
FNDA:0,_ZN5Catch10RunContext14benchmarkEndedERKNS_14BenchmarkStatsE
FNDA:0,_ZN5Catch10RunContext17pushScopedMessageERKNS_11MessageInfoE
FNDA:0,_ZN5Catch10RunContext16popScopedMessageERKNS_11MessageInfoE
FNDA:0,_ZNK5Catch10RunContext18getCurrentTestNameB5cxx11Ev
FNDA:0,_ZNK5Catch10RunContext13getLastResultEv
FNDA:0,_ZN5Catch10RunContext22exceptionEarlyReportedEv
FNDA:0,_ZN5Catch10RunContext25handleFatalErrorConditionENS_9StringRefE
FNDA:0,_ZN5Catch10RunContext19lastAssertionPassedEv
FNDA:0,_ZN5Catch10RunContext15assertionPassedEv
FNDA:4,_ZN5Catch10RunContext12assertionRunEv
FNDA:9,_ZNK5Catch10RunContext8abortingEv
FNDA:4,_ZN5Catch10RunContext14runCurrentTestERNSt7__cxx1112basic_stringIcSt11char_traitsIcESaIcEEES7_
FNDA:4,_ZN5Catch10RunContext20invokeActiveTestCaseEv
FNDA:4,_ZN5Catch10RunContext24handleUnfinishedSectionsEv
FNDA:18,_ZN5Catch16getResultCaptureEv
FNDA:6,_ZN5Catch7SectionC2ERKNS_11SectionInfoE
FNDA:0,_ZN5Catch7SectionD0Ev
FNDA:6,_ZN5Catch7SectionD2Ev
FNDA:6,_ZNK5Catch7SectioncvbEv
FNDA:10,_ZN5Catch11SectionInfoC2ERKNS_14SourceLineInfoERKNSt7__cxx1112basic_stringIcSt11char_traitsIcESaIcEEESB_
FNDA:4,_ZN5Catch14SectionEndInfoC2ERKNS_11SectionInfoERKNS_6CountsEd
FNDA:1,_ZN12_GLOBAL__N_114createReporterERKNSt7__cxx1112basic_stringIcSt11char_traitsIcESaIcEEERKSt10shared_ptrIKN5Catch7IConfigEE
FNDA:1,_ZN12_GLOBAL__N_112makeReporterERKSt10shared_ptrIN5Catch6ConfigEE
FNDA:1,_ZN12_GLOBAL__N_112addListenersERSt10unique_ptrIN5Catch18IStreamingReporterESt14default_deleteIS2_EERKSt10shared_ptrIKNS1_7IConfigEE
FNDA:1,_ZN12_GLOBAL__N_18runTestsERKSt10shared_ptrIN5Catch6ConfigEE
FNDA:0,_ZN12_GLOBAL__N_120applyFilenamesAsTagsERKN5Catch7IConfigE
FNDA:1,_ZN5Catch7SessionC2Ev
FNDA:0,_ZN5Catch7SessionD0Ev
FNDA:1,_ZN5Catch7SessionD2Ev
FNDA:0,_ZNK5Catch7Session8showHelpEv
FNDA:0,_ZN5Catch7Session11libIdentifyEv
FNDA:1,_ZN5Catch7Session16applyCommandLineEiPPc
FNDA:0,_ZN5Catch7Session13useConfigDataERKNS_10ConfigDataE
FNDA:1,_ZN5Catch7Session3runEiPPc
FNDA:1,_ZN5Catch7Session3runEv
FNDA:0,_ZNK5Catch7Session3cliEv
FNDA:0,_ZN5Catch7Session3cliERKNS_5clara6detail6ParserE
FNDA:0,_ZN5Catch7Session10configDataEv
FNDA:2,_ZN5Catch7Session6configEv
FNDA:1,_ZN5Catch7Session11runInternalEv
FNDA:0,_ZN5Catch24StartupExceptionRegistry3addERKNSt15__exception_ptr13exception_ptrE
FNDA:1,_ZNK5Catch24StartupExceptionRegistry13getExceptionsEv
FNDA:0,_ZN5Catch13StreamBufImplINS_17OutputDebugWriterELm256EEC2Ev
FNDA:0,_ZN5Catch13StreamBufImplINS_17OutputDebugWriterELm256EED0Ev
FNDA:0,_ZN5Catch13StreamBufImplINS_17OutputDebugWriterELm256EED2Ev
FNDA:0,_ZN5Catch13StreamBufImplINS_17OutputDebugWriterELm256EE8overflowEi
FNDA:0,_ZN5Catch13StreamBufImplINS_17OutputDebugWriterELm256EE4syncEv
FNDA:0,_ZN5Catch10FileStreamC2ERKNSt7__cxx1112basic_stringIcSt11char_traitsIcESaIcEEE
FNDA:0,_ZNK5Catch10FileStream6streamEv
FNDA:0,_ZN5Catch17OutputDebugWriterclERKNSt7__cxx1112basic_stringIcSt11char_traitsIcESaIcEEE
FNDA:0,_ZN5Catch14DebugOutStreamC2Ev
FNDA:0,_ZNK5Catch14DebugOutStream6streamEv
FNDA:1,_ZN5Catch10CoutStreamC2Ev
FNDA:1,_ZNK5Catch10CoutStream6streamEv
FNDA:1,_ZN5Catch4coutEv
FNDA:0,_ZN5Catch4cerrEv
FNDA:0,_ZN5Catch4clogEv
FNDA:1,_ZN5Catch10startsWithERKNSt7__cxx1112basic_stringIcSt11char_traitsIcESaIcEEES7_
FNDA:12,_ZN5Catch10startsWithERKNSt7__cxx1112basic_stringIcSt11char_traitsIcESaIcEEEc
FNDA:0,_ZN5Catch8endsWithERKNSt7__cxx1112basic_stringIcSt11char_traitsIcESaIcEEES7_
FNDA:0,_ZN5Catch8endsWithERKNSt7__cxx1112basic_stringIcSt11char_traitsIcESaIcEEEc
FNDA:0,_ZN5Catch8containsERKNSt7__cxx1112basic_stringIcSt11char_traitsIcESaIcEEES7_
FNDA:40,_ZN5Catch9toLowerChEc
FNDA:4,_ZN5Catch14toLowerInPlaceERNSt7__cxx1112basic_stringIcSt11char_traitsIcESaIcEEE
FNDA:4,_ZN5Catch7toLowerERKNSt7__cxx1112basic_stringIcSt11char_traitsIcESaIcEEE
FNDA:0,_ZN5Catch4trimERKNSt7__cxx1112basic_stringIcSt11char_traitsIcESaIcEEE
FNDA:0,_ZN5Catch14replaceInPlaceERNSt7__cxx1112basic_stringIcSt11char_traitsIcESaIcEEERKS5_S8_
FNDA:2,_ZN5Catch9pluraliseC2EmRKNSt7__cxx1112basic_stringIcSt11char_traitsIcESaIcEEE
FNDA:2,_ZN5CatchlsERSoRKNS_9pluraliseE
FNDA:0,_ZN5Catch17getEmptyStringRefEv
FNDA:0,_ZN5Catch9StringRefC2Ev
FNDA:42,_ZN5Catch9StringRefC2ERKS0_
FNDA:16,_ZN5Catch9StringRefC2EOS0_
FNDA:39,_ZN5Catch9StringRefC2EPKc
FNDA:0,_ZN5Catch9StringRefC2EPKcm
FNDA:0,_ZN5Catch9StringRefC2ERKNSt7__cxx1112basic_stringIcSt11char_traitsIcESaIcEEE
FNDA:97,_ZN5Catch9StringRefD2Ev
FNDA:16,_ZN5Catch9StringRefaSES0_
FNDA:9,_ZNK5Catch9StringRefcvNSt7__cxx1112basic_stringIcSt11char_traitsIcESaIcEEEB5cxx11Ev
FNDA:16,_ZN5Catch9StringRef4swapERS0_
FNDA:0,_ZNK5Catch9StringRef5c_strEv
FNDA:0,_ZNK5Catch9StringRef4dataEv
FNDA:0,_ZNK5Catch9StringRef7isOwnedEv
FNDA:0,_ZNK5Catch9StringRef11isSubstringEv
FNDA:0,_ZN5Catch9StringRef13takeOwnershipEv
FNDA:0,_ZNK5Catch9StringRef6substrEmm
FNDA:0,_ZNK5Catch9StringRefeqERKS0_
FNDA:0,_ZNK5Catch9StringRefneERKS0_
FNDA:0,_ZNK5Catch9StringRefixEm
FNDA:0,_ZNK5Catch9StringRef5emptyEv
FNDA:0,_ZNK5Catch9StringRef4sizeEv
FNDA:0,_ZNK5Catch9StringRef18numberOfCharactersEv
FNDA:0,_ZN5CatchplB5cxx11ERKNS_9StringRefES2_
FNDA:0,_ZN5CatchplB5cxx11ERKNS_9StringRefEPKc
FNDA:0,_ZN5CatchplB5cxx11EPKcRKNS_9StringRefE
FNDA:0,_ZN5CatchlsERSoRKNS_9StringRefE
FNDA:0,_ZN5Catch8TagAliasC2ERKNSt7__cxx1112basic_stringIcSt11char_traitsIcESaIcEEENS_14SourceLineInfoE
FNDA:0,_ZN5Catch22RegistrarForTagAliasesC2EPKcS2_RKNS_14SourceLineInfoE
FNDA:0,_ZN5Catch16TagAliasRegistryD0Ev
FNDA:1,_ZN5Catch16TagAliasRegistryD2Ev
FNDA:0,_ZNK5Catch16TagAliasRegistry4findERKNSt7__cxx1112basic_stringIcSt11char_traitsIcESaIcEEE
FNDA:1,_ZNK5Catch16TagAliasRegistry13expandAliasesERKNSt7__cxx1112basic_stringIcSt11char_traitsIcESaIcEEE
FNDA:0,_ZN5Catch16TagAliasRegistry3addERKNSt7__cxx1112basic_stringIcSt11char_traitsIcESaIcEEES8_RKNS_14SourceLineInfoE
FNDA:0,_ZN5Catch17ITagAliasRegistryD0Ev
FNDA:1,_ZN5Catch17ITagAliasRegistryD2Ev
FNDA:1,_ZN5Catch17ITagAliasRegistry3getEv
FNDA:9,_ZN5Catch15parseSpecialTagERKNSt7__cxx1112basic_stringIcSt11char_traitsIcESaIcEEE
FNDA:3,_ZN5Catch13isReservedTagERKNSt7__cxx1112basic_stringIcSt11char_traitsIcESaIcEEE
FNDA:3,_ZN5Catch21enforceNotReservedTagERKNSt7__cxx1112basic_stringIcSt11char_traitsIcESaIcEEERKNS_14SourceLineInfoE
FNDA:3,_ZN5Catch12makeTestCaseEPNS_12ITestInvokerERKNSt7__cxx1112basic_stringIcSt11char_traitsIcESaIcEEES9_S9_RKNS_14SourceLineInfoE
FNDA:3,_ZN5Catch7setTagsERNS_12TestCaseInfoESt6vectorINSt7__cxx1112basic_stringIcSt11char_traitsIcESaIcEEESaIS8_EE
FNDA:3,_ZN5Catch12TestCaseInfoC2ERKNSt7__cxx1112basic_stringIcSt11char_traitsIcESaIcEEES8_S8_RKSt6vectorIS6_SaIS6_EERKNS_14SourceLineInfoE
FNDA:0,_ZNK5Catch12TestCaseInfo8isHiddenEv
FNDA:0,_ZNK5Catch12TestCaseInfo6throwsEv
FNDA:0,_ZNK5Catch12TestCaseInfo8okToFailEv
FNDA:3,_ZNK5Catch12TestCaseInfo14expectedToFailEv
FNDA:0,_ZNK5Catch12TestCaseInfo12tagsAsStringB5cxx11Ev
FNDA:3,_ZN5Catch8TestCaseC2EPNS_12ITestInvokerERKNS_12TestCaseInfoE
FNDA:0,_ZNK5Catch8TestCase8withNameERKNSt7__cxx1112basic_stringIcSt11char_traitsIcESaIcEEE
FNDA:4,_ZNK5Catch8TestCase6invokeEv
FNDA:0,_ZNK5Catch8TestCaseeqERKS0_
FNDA:7,_ZNK5Catch8TestCaseltERKS0_
FNDA:10,_ZNK5Catch8TestCase15getTestCaseInfoEv
FNDA:1,_ZN5Catch9sortTestsERKNS_7IConfigERKSt6vectorINS_8TestCaseESaIS4_EE
FNDA:3,_ZN5Catch9matchTestERKNS_8TestCaseERKNS_8TestSpecERKNS_7IConfigE
FNDA:1,_ZN5Catch27enforceNoDuplicateTestCasesERKSt6vectorINS_8TestCaseESaIS1_EE
FNDA:0,_ZN5Catch11filterTestsERKSt6vectorINS_8TestCaseESaIS1_EERKNS_8TestSpecERKNS_7IConfigE
FNDA:1,_ZN5Catch21getAllTestCasesSortedERKNS_7IConfigE
FNDA:3,_ZN5Catch12TestRegistry12registerTestERKNS_8TestCaseE
FNDA:0,_ZNK5Catch12TestRegistry11getAllTestsEv
FNDA:1,_ZNK5Catch12TestRegistry17getAllTestsSortedERKNS_7IConfigE
FNDA:3,_ZN5Catch21TestInvokerAsFunctionC2EPFvvE
FNDA:4,_ZNK5Catch21TestInvokerAsFunction6invokeEv
FNDA:3,_ZN5Catch16extractClassNameERKNSt7__cxx1112basic_stringIcSt11char_traitsIcESaIcEEE
FNDA:13,_ZN5Catch16TestCaseTracking15NameAndLocationC2ERKNSt7__cxx1112basic_stringIcSt11char_traitsIcESaIcEEERKNS_14SourceLineInfoE
FNDA:0,_ZN5Catch16TestCaseTracking14TrackerContext8instanceEv
FNDA:3,_ZN5Catch16TestCaseTracking14TrackerContext8startRunEv
FNDA:0,_ZN5Catch16TestCaseTracking14TrackerContext6endRunEv
FNDA:4,_ZN5Catch16TestCaseTracking14TrackerContext10startCycleEv
FNDA:8,_ZN5Catch16TestCaseTracking14TrackerContext13completeCycleEv
FNDA:10,_ZNK5Catch16TestCaseTracking14TrackerContext14completedCycleEv
FNDA:18,_ZN5Catch16TestCaseTracking14TrackerContext14currentTrackerEv
FNDA:16,_ZN5Catch16TestCaseTracking14TrackerContext17setCurrentTrackerEPNS0_8ITrackerE
FNDA:10,_ZN5Catch16TestCaseTracking11TrackerBase14TrackerHasNameC2ERKNS0_15NameAndLocationE
FNDA:5,_ZNK5Catch16TestCaseTracking11TrackerBase14TrackerHasNameclERKSt10shared_ptrINS0_8ITrackerEE
FNDA:10,_ZN5Catch16TestCaseTracking11TrackerBaseC2ERKNS0_15NameAndLocationERNS0_14TrackerContextEPNS0_8ITrackerE
FNDA:8,_ZNK5Catch16TestCaseTracking11TrackerBase15nameAndLocationEv
FNDA:18,_ZNK5Catch16TestCaseTracking11TrackerBase10isCompleteEv
FNDA:4,_ZNK5Catch16TestCaseTracking11TrackerBase23isSuccessfullyCompletedEv
FNDA:6,_ZNK5Catch16TestCaseTracking11TrackerBase6isOpenEv
FNDA:0,_ZNK5Catch16TestCaseTracking11TrackerBase11hasChildrenEv
FNDA:7,_ZN5Catch16TestCaseTracking11TrackerBase8addChildERKSt10shared_ptrINS0_8ITrackerEE
FNDA:10,_ZN5Catch16TestCaseTracking11TrackerBase9findChildERKNS0_15NameAndLocationE
FNDA:0,_ZN5Catch16TestCaseTracking11TrackerBase6parentEv
FNDA:12,_ZN5Catch16TestCaseTracking11TrackerBase9openChildEv
FNDA:0,_ZNK5Catch16TestCaseTracking11TrackerBase16isSectionTrackerEv
FNDA:0,_ZNK5Catch16TestCaseTracking11TrackerBase14isIndexTrackerEv
FNDA:8,_ZN5Catch16TestCaseTracking11TrackerBase4openEv
FNDA:8,_ZN5Catch16TestCaseTracking11TrackerBase5closeEv
FNDA:0,_ZN5Catch16TestCaseTracking11TrackerBase4failEv
FNDA:0,_ZN5Catch16TestCaseTracking11TrackerBase23markAsNeedingAnotherRunEv
FNDA:8,_ZN5Catch16TestCaseTracking11TrackerBase12moveToParentEv
FNDA:8,_ZN5Catch16TestCaseTracking11TrackerBase10moveToThisEv
FNDA:10,_ZN5Catch16TestCaseTracking14SectionTrackerC2ERKNS0_15NameAndLocationERNS0_14TrackerContextEPNS0_8ITrackerE
FNDA:13,_ZNK5Catch16TestCaseTracking14SectionTracker16isSectionTrackerEv
FNDA:10,_ZN5Catch16TestCaseTracking14SectionTracker7acquireERNS0_14TrackerContextERKNS0_15NameAndLocationE
FNDA:9,_ZN5Catch16TestCaseTracking14SectionTracker7tryOpenEv
FNDA:3,_ZN5Catch16TestCaseTracking14SectionTracker17addInitialFiltersERKSt6vectorINSt7__cxx1112basic_stringIcSt11char_traitsIcESaIcEEESaIS8_EE
FNDA:7,_ZN5Catch16TestCaseTracking14SectionTracker14addNextFiltersERKSt6vectorINSt7__cxx1112basic_stringIcSt11char_traitsIcESaIcEEESaIS8_EE
FNDA:0,_ZN5Catch16TestCaseTracking12IndexTrackerC2ERKNS0_15NameAndLocationERNS0_14TrackerContextEPNS0_8ITrackerEi
FNDA:0,_ZNK5Catch16TestCaseTracking12IndexTracker14isIndexTrackerEv
FNDA:0,_ZN5Catch16TestCaseTracking12IndexTracker7acquireERNS0_14TrackerContextERKNS0_15NameAndLocationEi
FNDA:0,_ZNK5Catch16TestCaseTracking12IndexTracker5indexEv
FNDA:0,_ZN5Catch16TestCaseTracking12IndexTracker8moveNextEv
FNDA:0,_ZN5Catch16TestCaseTracking12IndexTracker5closeEv
FNDA:3,_ZN5Catch15makeTestInvokerEPFvvE
FNDA:3,_ZN5Catch11NameAndTagsC2ENS_9StringRefES1_
FNDA:3,_ZN5Catch7AutoRegC2EPNS_12ITestInvokerERKNS_14SourceLineInfoENS_9StringRefERKNS_11NameAndTagsE
FNDA:0,_ZN5Catch8TestSpec11NamePatternC2ERKNSt7__cxx1112basic_stringIcSt11char_traitsIcESaIcEEE
FNDA:0,_ZNK5Catch8TestSpec11NamePattern7matchesERKNS_12TestCaseInfoE
FNDA:1,_ZN5Catch8TestSpec10TagPatternC2ERKNSt7__cxx1112basic_stringIcSt11char_traitsIcESaIcEEE
FNDA:3,_ZNK5Catch8TestSpec10TagPattern7matchesERKNS_12TestCaseInfoE
FNDA:1,_ZN5Catch8TestSpec15ExcludedPatternC2ERKSt10shared_ptrINS0_7PatternEE
FNDA:3,_ZNK5Catch8TestSpec15ExcludedPattern7matchesERKNS_12TestCaseInfoE
FNDA:3,_ZNK5Catch8TestSpec6Filter7matchesERKNS_12TestCaseInfoE
FNDA:1,_ZNK5Catch8TestSpec10hasFiltersEv
FNDA:3,_ZNK5Catch8TestSpec7matchesERKNS_12TestCaseInfoE
FNDA:1,_ZN5Catch14TestSpecParserC2ERKNS_17ITagAliasRegistryE
FNDA:1,_ZN5Catch14TestSpecParser5parseERKNSt7__cxx1112basic_stringIcSt11char_traitsIcESaIcEEE
FNDA:1,_ZN5Catch14TestSpecParser8testSpecEv
FNDA:3,_ZN5Catch14TestSpecParser9visitCharEc
FNDA:1,_ZN5Catch14TestSpecParser12startNewModeENS0_4ModeEm
FNDA:0,_ZN5Catch14TestSpecParser6escapeEv
FNDA:1,_ZNK5Catch14TestSpecParser9subStringB5cxx11Ev
FNDA:1,_ZN5Catch14TestSpecParser9addFilterEv
FNDA:0,_ZN5Catch13parseTestSpecERKNSt7__cxx1112basic_stringIcSt11char_traitsIcESaIcEEE
FNDA:18,_ZN5Catch31getCurrentNanosecondsSinceEpochEv
FNDA:0,_ZN5Catch23estimateClockResolutionEv
FNDA:0,_ZN5Catch27getEstimatedClockResolutionEv
FNDA:10,_ZN5Catch5Timer5startEv
FNDA:8,_ZNK5Catch5Timer21getElapsedNanosecondsEv
FNDA:8,_ZNK5Catch5Timer22getElapsedMicrosecondsEv
FNDA:0,_ZNK5Catch5Timer22getElapsedMillisecondsEv
FNDA:8,_ZNK5Catch5Timer17getElapsedSecondsEv
FNDA:0,_ZN5Catch6Detail12_GLOBAL__N_110Endianness5whichEv
FNDA:0,_ZN5Catch6Detail17rawMemoryToStringB5cxx11EPKvm
FNDA:0,_ZN5Catch10fpToStringIdEENSt7__cxx1112basic_stringIcSt11char_traitsIcESaIcEEET_i
FNDA:0,_ZN5Catch10fpToStringIfEENSt7__cxx1112basic_stringIcSt11char_traitsIcESaIcEEET_i
FNDA:0,_ZN5Catch11StringMakerINSt7__cxx1112basic_stringIcSt11char_traitsIcESaIcEEEE7convertERKS6_
FNDA:0,_ZN5Catch11StringMakerINSt7__cxx1112basic_stringIwSt11char_traitsIwESaIwEEEE7convertERKS6_
FNDA:0,_ZN5Catch11StringMakerIPKcE7convertB5cxx11ES2_
FNDA:0,_ZN5Catch11StringMakerIPcE7convertB5cxx11ES1_
FNDA:0,_ZN5Catch11StringMakerIPKwE7convertB5cxx11ES2_
FNDA:0,_ZN5Catch11StringMakerIPwE7convertB5cxx11ES1_
FNDA:0,_ZN5Catch11StringMakerIiE7convertB5cxx11Ei
FNDA:0,_ZN5Catch11StringMakerIlE7convertB5cxx11El
FNDA:0,_ZN5Catch11StringMakerIxE7convertB5cxx11Ex
FNDA:0,_ZN5Catch11StringMakerIjE7convertB5cxx11Ej
FNDA:0,_ZN5Catch11StringMakerImE7convertB5cxx11Em
FNDA:0,_ZN5Catch11StringMakerIyE7convertB5cxx11Ey
FNDA:0,_ZN5Catch11StringMakerIbE7convertB5cxx11Eb
FNDA:0,_ZN5Catch11StringMakerIcE7convertB5cxx11Ec
FNDA:0,_ZN5Catch11StringMakerIaE7convertB5cxx11Ea
FNDA:0,_ZN5Catch11StringMakerIhE7convertB5cxx11Eh
FNDA:0,_ZN5Catch11StringMakerIDnE7convertB5cxx11EDn
FNDA:0,_ZN5Catch11StringMakerIfE7convertB5cxx11Ef
FNDA:0,_ZN5Catch11StringMakerIdE7convertB5cxx11Ed
FNDA:14,_ZNK5Catch6CountsmiERKS0_
FNDA:9,_ZN5Catch6CountspLERKS0_
FNDA:14,_ZNK5Catch6Counts5totalEv
FNDA:2,_ZNK5Catch6Counts9allPassedEv
FNDA:0,_ZNK5Catch6Counts5allOkEv
FNDA:3,_ZNK5Catch6TotalsmiERKS0_
FNDA:3,_ZN5Catch6TotalspLERKS0_
FNDA:3,_ZNK5Catch6Totals5deltaERKS0_
FNDA:0,_ZN5Catch7VersionC2EjjjPKcj
FNDA:0,_ZN5CatchlsERSoRKNS_7VersionE
FNDA:0,_ZN5Catch14libraryVersionEv
FNDA:0,_ZN5Catch15WildcardPatternC2ERKNSt7__cxx1112basic_stringIcSt11char_traitsIcESaIcEEENS_13CaseSensitive6ChoiceE
FNDA:0,_ZNK5Catch15WildcardPattern7matchesERKNSt7__cxx1112basic_stringIcSt11char_traitsIcESaIcEEE
FNDA:0,_ZNK5Catch15WildcardPattern10adjustCaseERKNSt7__cxx1112basic_stringIcSt11char_traitsIcESaIcEEE
FNDA:0,_ZN5Catch9XmlEncodeD2Ev
FNDA:0,_ZN5Catch9XmlWriter13ScopedElement14writeAttributeIbEERS1_RKNSt7__cxx1112basic_stringIcSt11char_traitsIcESaIcEEERKT_
FNDA:0,_ZN5Catch9XmlWriter13ScopedElement14writeAttributeIdEERS1_RKNSt7__cxx1112basic_stringIcSt11char_traitsIcESaIcEEERKT_
FNDA:0,_ZN5Catch9XmlWriter13ScopedElement14writeAttributeImEERS1_RKNSt7__cxx1112basic_stringIcSt11char_traitsIcESaIcEEERKT_
FNDA:0,_ZN5Catch9XmlWriter14writeAttributeIPKcEERS0_RKNSt7__cxx1112basic_stringIcSt11char_traitsIcESaIcEEERKT_
FNDA:0,_ZN5Catch9XmlWriter14writeAttributeIA5_cEERS0_RKNSt7__cxx1112basic_stringIcSt11char_traitsIcESaIcEEERKT_
FNDA:0,_ZN5Catch9XmlWriter14writeAttributeIdEERS0_RKNSt7__cxx1112basic_stringIcSt11char_traitsIcESaIcEEERKT_
FNDA:0,_ZN5Catch9XmlWriter14writeAttributeIA1_cEERS0_RKNSt7__cxx1112basic_stringIcSt11char_traitsIcESaIcEEERKT_
FNDA:0,_ZN5Catch9XmlWriter14writeAttributeIA4_cEERS0_RKNSt7__cxx1112basic_stringIcSt11char_traitsIcESaIcEEERKT_
FNDA:0,_ZN5Catch9XmlWriter14writeAttributeImEERS0_RKNSt7__cxx1112basic_stringIcSt11char_traitsIcESaIcEEERKT_
FNDA:0,_ZN5Catch9XmlWriter14writeAttributeIjEERS0_RKNSt7__cxx1112basic_stringIcSt11char_traitsIcESaIcEEERKT_
FNDA:0,_ZN5Catch9XmlEncodeC2ERKNSt7__cxx1112basic_stringIcSt11char_traitsIcESaIcEEENS0_7ForWhatE
FNDA:0,_ZNK5Catch9XmlEncode8encodeToERSo
FNDA:0,_ZN5CatchlsERSoRKNS_9XmlEncodeE
FNDA:0,_ZN5Catch9XmlWriter13ScopedElementC2EPS0_
FNDA:0,_ZN5Catch9XmlWriter13ScopedElementC2EOS1_
FNDA:0,_ZN5Catch9XmlWriter13ScopedElementaSEOS1_
FNDA:0,_ZN5Catch9XmlWriter13ScopedElementD2Ev
FNDA:0,_ZN5Catch9XmlWriter13ScopedElement9writeTextERKNSt7__cxx1112basic_stringIcSt11char_traitsIcESaIcEEEb
FNDA:0,_ZN5Catch9XmlWriterC2ERSo
FNDA:0,_ZN5Catch9XmlWriterD2Ev
FNDA:0,_ZN5Catch9XmlWriter12startElementERKNSt7__cxx1112basic_stringIcSt11char_traitsIcESaIcEEE
FNDA:0,_ZN5Catch9XmlWriter13scopedElementERKNSt7__cxx1112basic_stringIcSt11char_traitsIcESaIcEEE
FNDA:0,_ZN5Catch9XmlWriter10endElementEv
FNDA:0,_ZN5Catch9XmlWriter14writeAttributeERKNSt7__cxx1112basic_stringIcSt11char_traitsIcESaIcEEES8_
FNDA:0,_ZN5Catch9XmlWriter14writeAttributeERKNSt7__cxx1112basic_stringIcSt11char_traitsIcESaIcEEEb
FNDA:0,_ZN5Catch9XmlWriter9writeTextERKNSt7__cxx1112basic_stringIcSt11char_traitsIcESaIcEEEb
FNDA:0,_ZN5Catch9XmlWriter12writeCommentERKNSt7__cxx1112basic_stringIcSt11char_traitsIcESaIcEEE
FNDA:0,_ZN5Catch9XmlWriter18writeStylesheetRefERKNSt7__cxx1112basic_stringIcSt11char_traitsIcESaIcEEE
FNDA:0,_ZN5Catch9XmlWriter14writeBlankLineEv
FNDA:0,_ZN5Catch9XmlWriter15ensureTagClosedEv
FNDA:0,_ZN5Catch9XmlWriter16writeDeclarationEv
FNDA:0,_ZN5Catch9XmlWriter18newlineIfNecessaryEv
FNDA:0,_ZN5Catch25prepareExpandedExpressionERNS_15AssertionResultE
FNDA:0,_ZN5Catch20getFormattedDurationB5cxx11Ed
FNDA:0,_ZN5Catch21TestEventListenerBaseC2ERKNS_14ReporterConfigE
FNDA:0,_ZN5Catch21TestEventListenerBase17assertionStartingERKNS_13AssertionInfoE
FNDA:0,_ZN5Catch21TestEventListenerBase14assertionEndedERKNS_14AssertionStatsE
FNDA:0,_ZN12_GLOBAL__N_112failedStringEv
FNDA:0,_ZN12_GLOBAL__N_112passedStringEv
FNDA:0,_ZN12_GLOBAL__N_19dimColourEv
FNDA:0,_ZN12_GLOBAL__N_19bothOrAllEm
FNDA:0,_ZN5Catch15CompactReporterC2ERKNS_14ReporterConfigE
FNDA:0,_ZN5Catch15CompactReporter14getDescriptionB5cxx11Ev
FNDA:0,_ZNK5Catch15CompactReporter14getPreferencesEv
FNDA:0,_ZN5Catch15CompactReporter19noMatchingTestCasesERKNSt7__cxx1112basic_stringIcSt11char_traitsIcESaIcEEE
FNDA:0,_ZN5Catch15CompactReporter17assertionStartingERKNS_13AssertionInfoE
FNDA:0,_ZN5Catch15CompactReporter14assertionEndedERKNS_14AssertionStatsE
FNDA:0,_ZN5Catch15CompactReporter12sectionEndedERKNS_12SectionStatsE
FNDA:0,_ZN5Catch15CompactReporter12testRunEndedERKNS_12TestRunStatsE
FNDA:0,_ZN5Catch15CompactReporter16AssertionPrinterD2Ev
FNDA:0,_ZN5Catch15CompactReporter16AssertionPrinterC2ERSoRKNS_14AssertionStatsEb
FNDA:0,_ZN5Catch15CompactReporter16AssertionPrinter5printEv
FNDA:0,_ZNK5Catch15CompactReporter16AssertionPrinter15printSourceInfoEv
FNDA:0,_ZNK5Catch15CompactReporter16AssertionPrinter15printResultTypeENS_6Colour4CodeERKNSt7__cxx1112basic_stringIcSt11char_traitsIcESaIcEEE
FNDA:0,_ZNK5Catch15CompactReporter16AssertionPrinter10printIssueERKNSt7__cxx1112basic_stringIcSt11char_traitsIcESaIcEEE
FNDA:0,_ZN5Catch15CompactReporter16AssertionPrinter18printExpressionWasEv
FNDA:0,_ZNK5Catch15CompactReporter16AssertionPrinter23printOriginalExpressionEv
FNDA:0,_ZNK5Catch15CompactReporter16AssertionPrinter28printReconstructedExpressionEv
FNDA:0,_ZN5Catch15CompactReporter16AssertionPrinter12printMessageEv
FNDA:0,_ZN5Catch15CompactReporter16AssertionPrinter22printRemainingMessagesENS_6Colour4CodeE
FNDA:0,_ZNK5Catch15CompactReporter11printTotalsERKNS_6TotalsE
FNDA:0,_ZN5Catch15CompactReporterD0Ev
FNDA:0,_ZN5Catch15CompactReporterD2Ev
FNDA:3,_ZN5Catch12_GLOBAL__N_19makeRatioEmm
FNDA:1,_ZN5Catch12_GLOBAL__N_17findMaxERmS1_S1_
FNDA:12,_ZN5Catch12_GLOBAL__N_110ColumnInfoD2Ev
FNDA:8,_ZN5Catch12_GLOBAL__N_110ColumnInfoC2ERKS1_
FNDA:1,_ZN5Catch12_GLOBAL__N_112TablePrinterD2Ev
FNDA:1,_ZN5Catch12_GLOBAL__N_112TablePrinterC2ERSoRKSt6vectorINS0_10ColumnInfoESaIS4_EE
FNDA:0,_ZNK5Catch12_GLOBAL__N_112TablePrinter11columnInfosEv
FNDA:0,_ZN5Catch12_GLOBAL__N_112TablePrinter4openEv
FNDA:11,_ZN5Catch12_GLOBAL__N_112TablePrinter5closeEv
FNDA:0,_ZN5Catch12_GLOBAL__N_1lsINS0_8DurationEEERNS0_12TablePrinterES4_RKT_
FNDA:0,_ZN5Catch12_GLOBAL__N_1lsImEERNS0_12TablePrinterES3_RKT_
FNDA:0,_ZN5Catch12_GLOBAL__N_1lsINSt7__cxx1112basic_stringIcSt11char_traitsIcESaIcEEEEERNS0_12TablePrinterES9_RKT_
FNDA:0,_ZN5Catch12_GLOBAL__N_1lsERNS0_12TablePrinterENS0_11ColumnBreakE
FNDA:0,_ZN5Catch12_GLOBAL__N_1lsERNS0_12TablePrinterENS0_8RowBreakE
FNDA:0,_ZN5Catch12_GLOBAL__N_18DurationC2EmNS1_4UnitE
FNDA:0,_ZNK5Catch12_GLOBAL__N_18Duration5valueEv
FNDA:0,_ZNK5Catch12_GLOBAL__N_18Duration13unitsAsStringEv
FNDA:0,_ZN5Catch12_GLOBAL__N_1lsERSoRKNS0_8DurationE
FNDA:1,_ZN5Catch15ConsoleReporterC2ERKNS_14ReporterConfigE
FNDA:0,_ZN5Catch15ConsoleReporter14getDescriptionB5cxx11Ev
FNDA:0,_ZN5Catch15ConsoleReporter19noMatchingTestCasesERKNSt7__cxx1112basic_stringIcSt11char_traitsIcESaIcEEE
FNDA:4,_ZN5Catch15ConsoleReporter17assertionStartingERKNS_13AssertionInfoE
FNDA:4,_ZN5Catch15ConsoleReporter14assertionEndedERKNS_14AssertionStatsE
FNDA:8,_ZN5Catch15ConsoleReporter15sectionStartingERKNS_11SectionInfoE
FNDA:8,_ZN5Catch15ConsoleReporter12sectionEndedERKNS_12SectionStatsE
FNDA:0,_ZN5Catch15ConsoleReporter17benchmarkStartingERKNS_13BenchmarkInfoE
FNDA:0,_ZN5Catch15ConsoleReporter14benchmarkEndedERKNS_14BenchmarkStatsE
FNDA:3,_ZN5Catch15ConsoleReporter13testCaseEndedERKNS_13TestCaseStatsE
FNDA:1,_ZN5Catch15ConsoleReporter14testGroupEndedERKNS_14TestGroupStatsE
FNDA:1,_ZN5Catch15ConsoleReporter12testRunEndedERKNS_12TestRunStatsE
FNDA:0,_ZN5Catch15ConsoleReporter16AssertionPrinterD2Ev
FNDA:0,_ZN5Catch15ConsoleReporter16AssertionPrinterC2ERSoRKNS_14AssertionStatsEb
FNDA:0,_ZNK5Catch15ConsoleReporter16AssertionPrinter5printEv
FNDA:0,_ZNK5Catch15ConsoleReporter16AssertionPrinter15printResultTypeEv
FNDA:0,_ZNK5Catch15ConsoleReporter16AssertionPrinter23printOriginalExpressionEv
FNDA:0,_ZNK5Catch15ConsoleReporter16AssertionPrinter28printReconstructedExpressionEv
FNDA:0,_ZNK5Catch15ConsoleReporter16AssertionPrinter12printMessageEv
FNDA:0,_ZNK5Catch15ConsoleReporter16AssertionPrinter15printSourceInfoEv
FNDA:0,_ZN5Catch15ConsoleReporter9lazyPrintEv
FNDA:0,_ZN5Catch15ConsoleReporter37lazyPrintWithoutClosingBenchmarkTableEv
FNDA:0,_ZN5Catch15ConsoleReporter16lazyPrintRunInfoEv
FNDA:0,_ZN5Catch15ConsoleReporter18lazyPrintGroupInfoEv
FNDA:0,_ZN5Catch15ConsoleReporter29printTestCaseAndSectionHeaderEv
FNDA:0,_ZN5Catch15ConsoleReporter17printClosedHeaderERKNSt7__cxx1112basic_stringIcSt11char_traitsIcESaIcEEE
FNDA:0,_ZN5Catch15ConsoleReporter15printOpenHeaderERKNSt7__cxx1112basic_stringIcSt11char_traitsIcESaIcEEE
FNDA:0,_ZN5Catch15ConsoleReporter17printHeaderStringERKNSt7__cxx1112basic_stringIcSt11char_traitsIcESaIcEEEm
FNDA:0,_ZN5Catch15ConsoleReporter13SummaryColumnC2EOS1_
FNDA:0,_ZN5Catch15ConsoleReporter13SummaryColumnD2Ev
FNDA:0,_ZN5Catch15ConsoleReporter13SummaryColumnC2ERKS1_
FNDA:0,_ZN5Catch15ConsoleReporter13SummaryColumnC2ERKNSt7__cxx1112basic_stringIcSt11char_traitsIcESaIcEEENS_6Colour4CodeE
FNDA:0,_ZN5Catch15ConsoleReporter13SummaryColumn6addRowEm
FNDA:1,_ZN5Catch15ConsoleReporter11printTotalsERKNS_6TotalsE
FNDA:0,_ZN5Catch15ConsoleReporter15printSummaryRowERKNSt7__cxx1112basic_stringIcSt11char_traitsIcESaIcEEERKSt6vectorINS0_13SummaryColumnESaISA_EEm
FNDA:1,_ZN5Catch15ConsoleReporter18printTotalsDividerERKNS_6TotalsE
FNDA:0,_ZN5Catch15ConsoleReporter19printSummaryDividerEv
FNDA:1,_ZN5Catch15ConsoleReporterD0Ev
FNDA:1,_ZN5Catch15ConsoleReporterD2Ev
FNDA:0,_ZN5Catch12_GLOBAL__N_119getCurrentTimestampEv
FNDA:0,_ZN5Catch12_GLOBAL__N_111fileNameTagERKSt6vectorINSt7__cxx1112basic_stringIcSt11char_traitsIcESaIcEEESaIS7_EE
FNDA:0,_ZZN5Catch12_GLOBAL__N_111fileNameTagERKSt6vectorINSt7__cxx1112basic_stringIcSt11char_traitsIcESaIcEEESaIS7_EEENKUlRKS7_E_clESD_
FNDA:0,_ZN5Catch13JunitReporterC2ERKNS_14ReporterConfigE
FNDA:0,_ZN5Catch13JunitReporter14getDescriptionB5cxx11Ev
FNDA:0,_ZN5Catch13JunitReporter19noMatchingTestCasesERKNSt7__cxx1112basic_stringIcSt11char_traitsIcESaIcEEE
FNDA:0,_ZN5Catch13JunitReporter15testRunStartingERKNS_11TestRunInfoE
FNDA:0,_ZN5Catch13JunitReporter17testGroupStartingERKNS_9GroupInfoE
FNDA:0,_ZN5Catch13JunitReporter16testCaseStartingERKNS_12TestCaseInfoE
FNDA:0,_ZN5Catch13JunitReporter14assertionEndedERKNS_14AssertionStatsE
FNDA:0,_ZN5Catch13JunitReporter13testCaseEndedERKNS_13TestCaseStatsE
FNDA:0,_ZN5Catch13JunitReporter14testGroupEndedERKNS_14TestGroupStatsE
FNDA:0,_ZN5Catch13JunitReporter22testRunEndedCumulativeEv
FNDA:0,_ZN5Catch13JunitReporter10writeGroupERKNS_22CumulativeReporterBaseIS0_E4NodeINS_14TestGroupStatsENS3_INS_13TestCaseStatsENS2_11SectionNodeEEEEEd
FNDA:0,_ZN5Catch13JunitReporter13writeTestCaseERKNS_22CumulativeReporterBaseIS0_E4NodeINS_13TestCaseStatsENS2_11SectionNodeEEE
FNDA:0,_ZN5Catch13JunitReporter12writeSectionERKNSt7__cxx1112basic_stringIcSt11char_traitsIcESaIcEEES8_RKNS_22CumulativeReporterBaseIS0_E11SectionNodeE
FNDA:0,_ZN5Catch13JunitReporter15writeAssertionsERKNS_22CumulativeReporterBaseIS0_E11SectionNodeE
FNDA:0,_ZN5Catch13JunitReporter14writeAssertionERKNS_14AssertionStatsE
FNDA:0,_ZN5Catch13JunitReporterD0Ev
FNDA:0,_ZN5Catch13JunitReporterD2Ev
FNDA:0,_ZN5Catch17MultipleReporters3addEOSt10unique_ptrINS_18IStreamingReporterESt14default_deleteIS2_EE
FNDA:0,_ZNK5Catch17MultipleReporters14getPreferencesEv
FNDA:0,_ZN5Catch17MultipleReporters23getSupportedVerbositiesEv
FNDA:0,_ZN5Catch17MultipleReporters19noMatchingTestCasesERKNSt7__cxx1112basic_stringIcSt11char_traitsIcESaIcEEE
FNDA:0,_ZN5Catch17MultipleReporters17benchmarkStartingERKNS_13BenchmarkInfoE
FNDA:0,_ZN5Catch17MultipleReporters14benchmarkEndedERKNS_14BenchmarkStatsE
FNDA:0,_ZN5Catch17MultipleReporters15testRunStartingERKNS_11TestRunInfoE
FNDA:0,_ZN5Catch17MultipleReporters17testGroupStartingERKNS_9GroupInfoE
FNDA:0,_ZN5Catch17MultipleReporters16testCaseStartingERKNS_12TestCaseInfoE
FNDA:0,_ZN5Catch17MultipleReporters15sectionStartingERKNS_11SectionInfoE
FNDA:0,_ZN5Catch17MultipleReporters17assertionStartingERKNS_13AssertionInfoE
FNDA:0,_ZN5Catch17MultipleReporters14assertionEndedERKNS_14AssertionStatsE
FNDA:0,_ZN5Catch17MultipleReporters12sectionEndedERKNS_12SectionStatsE
FNDA:0,_ZN5Catch17MultipleReporters13testCaseEndedERKNS_13TestCaseStatsE
FNDA:0,_ZN5Catch17MultipleReporters14testGroupEndedERKNS_14TestGroupStatsE
FNDA:0,_ZN5Catch17MultipleReporters12testRunEndedERKNS_12TestRunStatsE
FNDA:0,_ZN5Catch17MultipleReporters8skipTestERKNS_12TestCaseInfoE
FNDA:0,_ZNK5Catch17MultipleReporters7isMultiEv
FNDA:0,_ZN5Catch11XmlReporterC2ERKNS_14ReporterConfigE
FNDA:0,_ZN5Catch11XmlReporter14getDescriptionB5cxx11Ev
FNDA:0,_ZNK5Catch11XmlReporter16getStylesheetRefB5cxx11Ev
FNDA:0,_ZN5Catch11XmlReporter15writeSourceInfoERKNS_14SourceLineInfoE
FNDA:0,_ZN5Catch11XmlReporter19noMatchingTestCasesERKNSt7__cxx1112basic_stringIcSt11char_traitsIcESaIcEEE
FNDA:0,_ZN5Catch11XmlReporter15testRunStartingERKNS_11TestRunInfoE
FNDA:0,_ZN5Catch11XmlReporter17testGroupStartingERKNS_9GroupInfoE
FNDA:0,_ZN5Catch11XmlReporter16testCaseStartingERKNS_12TestCaseInfoE
FNDA:0,_ZN5Catch11XmlReporter15sectionStartingERKNS_11SectionInfoE
FNDA:0,_ZN5Catch11XmlReporter17assertionStartingERKNS_13AssertionInfoE
FNDA:0,_ZN5Catch11XmlReporter14assertionEndedERKNS_14AssertionStatsE
FNDA:0,_ZN5Catch11XmlReporter12sectionEndedERKNS_12SectionStatsE
FNDA:0,_ZN5Catch11XmlReporter13testCaseEndedERKNS_13TestCaseStatsE
FNDA:0,_ZN5Catch11XmlReporter14testGroupEndedERKNS_14TestGroupStatsE
FNDA:0,_ZN5Catch11XmlReporter12testRunEndedERKNS_12TestRunStatsE
FNDA:0,_ZN5Catch11XmlReporterD0Ev
FNDA:0,_ZN5Catch11XmlReporterD2Ev
FNDA:1,main
FNDA:1,_GLOBAL__sub_I__ZN5Catch6Detail6ApproxC2Ed
FNDA:1,_Z41__static_initialization_and_destruction_0ii
FNF:1392
FNH:563
DA:217,26
DA:292,6
DA:302,2
DA:415,3
DA:577,0
DA:578,0
DA:579,0
DA:580,0
DA:596,0
DA:597,0
DA:987,8
DA:1179,45
DA:1261,0
DA:1278,0
DA:1290,0
DA:1296,0
DA:1297,0
DA:1298,0
DA:1330,2
DA:1555,8
DA:1568,1
DA:1585,64
DA:1596,4
DA:1616,6
DA:1722,2
DA:1734,2
DA:1767,0
DA:1772,2
DA:1862,0
DA:1863,0
DA:1967,2
DA:1994,0
DA:1996,0
DA:2008,0
DA:2017,0
DA:2137,0
DA:2147,0
DA:2155,0
DA:2159,0
DA:2163,0
DA:2167,0
DA:2294,0
DA:2300,0
DA:2304,0
DA:2305,0
DA:2307,0
DA:2308,0
DA:2310,0
DA:2311,0
DA:2312,0
DA:2313,0
DA:2314,0
DA:2316,0
DA:2317,0
DA:2381,51
DA:2416,27
DA:2450,2
DA:2700,0
DA:2718,9
DA:2719,4
DA:2725,0
DA:2734,1
DA:2743,1
DA:2752,9
DA:2782,1
DA:2796,1
DA:2820,1
DA:2821,2
DA:2822,1
DA:2823,0
DA:2824,1
DA:2825,1
DA:2826,0
DA:2827,0
DA:2829,1
DA:2830,2
DA:2831,1
DA:2832,1
DA:2833,1
DA:2835,1
DA:2836,1
DA:2837,1
DA:2894,2
DA:2929,0
DA:2947,2
DA:2956,0
DA:2965,2
DA:2976,0
DA:2997,4
DA:3036,1
DA:3088,28
DA:3102,20
DA:3136,5
DA:3144,5
DA:3145,5
DA:3146,5
DA:3156,9
DA:3157,9
DA:3158,9
DA:3159,9
DA:3162,21
DA:3163,21
DA:3164,9
DA:3165,21
DA:3166,21
DA:3168,0
DA:3169,0
DA:3170,0
DA:3173,0
DA:3174,0
DA:3177,1
DA:3181,1
DA:3182,1
DA:3201,1
DA:3214,1
DA:3219,6
DA:3220,5
DA:3221,5
DA:3222,5
DA:3223,5
DA:3225,7
DA:3226,7
DA:3227,7
DA:3228,7
DA:3232,5
DA:3236,6
DA:3246,4
DA:3251,0
DA:3262,8
DA:3267,0
DA:3279,3
DA:3286,0
DA:3299,1
DA:3305,0
DA:3316,1
DA:3321,0
DA:3332,0
DA:3335,0
DA:3341,1
DA:3342,1
DA:3359,0
DA:3367,0
DA:3383,8
DA:3390,2
DA:3421,1
DA:3423,1
DA:3425,1
DA:3426,1
DA:3427,1
DA:3429,4
DA:3430,4
DA:3433,1
DA:3434,1
DA:3437,1
DA:3439,0
DA:3441,1
DA:3442,1
DA:3443,1
DA:3444,1
DA:3445,1
DA:3446,1
DA:3448,3
DA:3449,3
DA:3450,3
DA:3451,8
DA:3452,8
DA:3453,8
DA:3455,8
DA:3456,8
DA:3457,8
DA:3458,3
DA:3459,3
DA:3460,3
DA:3461,1
DA:3462,1
DA:3463,1
DA:3464,1
DA:3465,1
DA:3466,1
DA:3467,1
DA:3468,1
DA:3470,0
DA:3473,0
DA:3490,0
DA:3491,0
DA:3498,0
DA:3499,0
DA:3518,0
DA:3519,0
DA:3520,0
DA:3521,0
DA:3522,0
DA:3534,0
DA:3536,0
DA:3538,0
DA:3539,0
DA:3540,0
DA:3541,0
DA:3543,0
DA:3544,0
DA:3547,0
DA:3548,0
DA:3551,0
DA:3552,0
DA:3554,0
DA:3556,0
DA:3557,0
DA:3558,0
DA:3559,0
DA:3560,0
DA:3561,0
DA:3562,0
DA:3565,0
DA:3567,0
DA:3569,0
DA:3570,0
DA:3571,0
DA:3572,0
DA:3575,0
DA:3577,0
DA:3578,0
DA:3579,0
DA:3581,0
DA:3583,0
DA:3584,0
DA:3590,0
DA:3591,0
DA:3592,0
DA:3593,0
DA:3595,0
DA:3596,0
DA:3597,0
DA:3598,0
DA:3599,0
DA:3600,0
DA:3601,0
DA:3602,0
DA:3603,0
DA:3604,0
DA:3605,0
DA:3606,0
DA:3608,0
DA:3609,0
DA:3610,0
DA:3611,0
DA:3612,0
DA:3613,0
DA:3614,0
DA:3615,0
DA:3616,0
DA:3617,0
DA:3618,0
DA:3619,0
DA:3620,0
DA:3621,0
DA:3622,0
DA:3625,0
DA:3643,0
DA:3645,0
DA:3646,0
DA:3647,0
DA:3649,0
DA:3652,0
DA:3728,8
DA:3730,1
DA:3731,1
DA:3734,0
DA:3735,0
DA:3741,4
DA:3742,4
DA:3743,4
DA:3807,133
DA:3818,20
DA:3846,2
DA:3873,10
DA:3884,90
DA:3928,10
DA:3943,0
DA:3990,0
DA:3991,0
DA:3999,0
DA:4000,0
DA:4003,0
DA:4004,0
DA:4006,0
DA:4007,0
DA:4010,0
DA:4011,0
DA:4012,0
DA:4013,0
DA:4016,0
DA:4019,0
DA:4024,0
DA:4025,0
DA:4044,2
DA:4053,2
DA:4071,0
DA:4072,0
DA:4073,0
DA:4076,4
DA:4077,4
DA:4078,4
DA:4080,16
DA:4082,0
DA:4083,0
DA:4086,0
DA:4087,0
DA:4088,0
DA:4090,0
DA:4091,0
DA:4092,0
DA:4094,0
DA:4097,0
DA:4099,0
DA:4102,4
DA:4107,4
DA:4109,4
DA:4110,4
DA:4111,8
DA:4112,4
DA:4113,0
DA:4114,0
DA:4116,4
DA:4118,4
DA:4120,4
DA:4121,4
DA:4123,4
DA:4124,4
DA:4125,0
DA:4126,0
DA:4127,0
DA:4128,0
DA:4129,0
DA:4130,0
DA:4131,0
DA:4132,0
DA:4133,4
DA:4134,8
DA:4135,4
DA:4136,4
DA:4137,4
DA:4139,4
DA:4141,8
DA:4142,4
DA:4144,4
DA:4146,4
DA:4147,0
DA:4149,0
DA:4150,0
DA:4152,4
DA:4154,0
DA:4155,0
DA:4158,4
DA:4159,4
DA:4161,0
DA:4162,0
DA:4167,0
DA:4169,0
DA:4170,0
DA:4171,4
DA:4172,4
DA:4173,0
DA:4174,4
DA:4176,0
DA:4177,0
DA:4178,0
DA:4180,0
DA:4181,0
DA:4182,0
DA:4183,0
DA:4184,0
DA:4185,0
DA:4186,0
DA:4187,0
DA:4191,0
DA:4192,0
DA:4193,0
DA:4200,4
DA:4202,4
DA:4204,0
DA:4206,0
DA:4207,0
DA:4209,0
DA:4210,0
DA:4211,0
DA:4214,0
DA:4217,4
DA:4219,4
DA:4220,4
DA:4223,0
DA:4224,0
DA:4228,8
DA:4229,8
DA:4232,8
DA:4233,8
DA:4236,0
DA:4237,0
DA:4240,4
DA:4241,4
DA:4244,0
DA:4245,0
DA:4246,0
DA:4248,0
DA:4251,0
DA:4252,0
DA:4253,0
DA:4254,0
DA:4256,0
DA:4257,0
DA:4258,0
DA:4259,0
DA:4260,0
DA:4262,0
DA:4265,0
DA:4266,0
DA:4269,0
DA:4270,0
DA:4271,0
DA:4273,0
DA:4276,0
DA:4277,0
DA:4279,0
DA:4280,0
DA:4283,0
DA:4284,0
DA:4293,0
DA:4294,0
DA:4297,0
DA:4298,0
DA:4299,0
DA:4300,0
DA:4301,0
DA:4304,0
DA:4305,0
DA:4306,0
DA:4309,0
DA:4310,0
DA:4324,0
DA:4325,0
DA:4326,0
DA:4327,0
DA:4328,0
DA:4388,0
DA:4389,0
DA:4390,0
DA:4392,0
DA:4393,0
DA:4394,0
DA:4396,0
DA:4397,0
DA:4398,0
DA:4403,0
DA:4421,0
DA:4423,0
DA:4424,0
DA:4426,0
DA:4428,0
DA:4429,0
DA:4430,0
DA:4432,0
DA:4433,0
DA:4434,0
DA:4435,0
DA:4438,0
DA:4439,0
DA:4441,0
DA:4442,0
DA:4443,0
DA:4444,0
DA:4445,0
DA:4447,0
DA:4448,0
DA:4451,0
DA:4452,0
DA:4453,0
DA:4454,0
DA:4455,0
DA:4457,0
DA:4458,0
DA:4460,0
DA:4461,0
DA:4464,0
DA:4466,0
DA:4467,0
DA:4468,0
DA:4471,0
DA:4472,0
DA:4476,0
DA:4477,0
DA:4478,0
DA:4479,0
DA:4480,0
DA:4481,0
DA:4482,0
DA:4484,0
DA:4485,0
DA:4486,0
DA:4487,0
DA:4488,0
DA:4490,0
DA:4493,0
DA:4494,0
DA:4495,0
DA:4496,0
DA:4498,0
DA:4499,0
DA:4501,0
DA:4502,0
DA:4503,0
DA:4505,0
DA:4506,0
DA:4507,0
DA:4515,0
DA:4517,0
DA:4518,0
DA:4519,0
DA:4521,0
DA:4522,0
DA:4527,0
DA:4529,0
DA:4530,0
DA:4531,0
DA:4532,0
DA:4534,0
DA:4535,0
DA:4536,0
DA:4538,0
DA:4539,0
DA:4540,0
DA:4543,0
DA:4544,0
DA:4545,0
DA:4547,0
DA:4548,0
DA:4549,0
DA:4550,0
DA:4551,0
DA:4553,0
DA:4554,0
DA:4556,0
DA:4568,0
DA:4571,0
DA:4572,0
DA:4573,0
DA:4576,0
DA:4581,0
DA:4589,0
DA:4591,0
DA:4593,0
DA:4595,0
DA:4596,0
DA:4597,0
DA:4600,0
DA:4602,0
DA:4604,0
DA:4606,0
DA:4607,0
DA:4608,0
DA:4613,0
DA:4614,0
DA:4616,0
DA:4617,0
DA:4619,0
DA:4620,0
DA:4621,0
DA:4622,0
DA:4623,0
DA:4624,0
DA:4625,0
DA:4627,0
DA:4630,0
DA:4633,0
DA:4635,0
DA:4636,0
DA:4637,0
DA:4638,0
DA:4640,0
DA:4650,0
DA:4651,0
DA:4653,0
DA:4654,0
DA:4655,0
DA:4657,0
DA:4658,0
DA:4659,0
DA:4660,0
DA:4663,0
DA:4665,0
DA:4666,0
DA:4667,0
DA:4668,0
DA:4670,0
DA:4671,0
DA:4673,0
DA:4683,0
DA:4684,0
DA:4685,0
DA:4686,0
DA:4687,0
DA:4724,1
DA:4730,1
DA:4731,1
DA:4732,1
DA:4733,0
DA:4734,1
DA:4741,1
DA:4742,1
DA:4751,0
DA:4756,0
DA:4757,0
DA:4765,9
DA:4771,1
DA:4772,1
DA:4775,1
DA:4776,0
DA:4778,1
DA:4779,0
DA:4780,0
DA:4781,0
DA:4782,0
DA:4783,0
DA:4784,0
DA:4786,0
DA:4787,0
DA:4788,0
DA:4789,0
DA:4790,0
DA:4793,0
DA:4797,0
DA:4800,1
DA:4803,1
DA:4805,1
DA:4806,1
DA:4807,1
DA:4809,1
DA:4810,1
DA:4815,0
DA:4816,0
DA:4817,0
DA:4820,0
DA:4821,0
DA:4822,0
DA:4825,0
DA:4826,0
DA:4827,0
DA:4829,0
DA:4830,0
DA:4831,0
DA:4833,0
DA:4837,1
DA:4844,2
DA:4845,3
DA:4855,1
DA:4856,1
DA:4857,1
DA:4861,0
DA:4863,1
DA:4864,1
DA:4865,1
DA:4866,1
DA:4868,2
DA:4869,2
DA:4870,2
DA:4872,0
DA:4873,0
DA:4874,0
DA:4875,0
DA:4876,0
DA:4877,0
DA:4878,0
DA:4881,3
DA:4882,3
DA:4883,2
DA:4884,6
DA:4892,0
DA:4894,0
DA:4898,4
DA:4901,0
DA:4903,0
DA:4905,0
DA:4906,0
DA:4909,2
DA:4910,0
DA:4911,0
DA:4912,0
DA:4914,1
DA:4915,0
DA:4916,0
DA:4919,1
DA:4921,1
DA:4923,0
DA:4925,0
DA:4927,1
DA:4929,1
DA:4933,0
DA:4935,0
DA:4937,0
DA:4938,0
DA:4940,2
DA:4948,5
DA:4951,1
DA:4953,1
DA:4954,1
DA:4956,0
DA:4957,1
DA:4968,0
DA:4974,0
DA:4975,0
DA:4976,0
DA:4977,0
DA:4978,0
DA:4979,0
DA:4981,0
DA:4983,1
DA:4984,1
DA:4985,1
DA:4987,0
DA:4988,0
DA:4989,0
DA:4990,0
DA:4991,0
DA:4992,0
DA:4993,0
DA:4995,0
DA:4996,0
DA:5000,28
DA:5006,28
DA:5009,0
DA:5014,32
DA:5015,0
DA:5017,0
DA:5018,0
DA:5022,24
DA:5023,0
DA:5025,0
DA:5027,0
DA:5028,0
DA:5029,0
DA:5030,0
DA:5035,4
DA:5038,4
DA:5040,1
DA:5041,1
DA:5046,3
DA:5049,3
DA:5051,0
DA:5053,0
DA:5054,0
DA:5055,0
DA:5056,0
DA:5057,0
DA:5058,0
DA:5062,10
DA:5065,10
DA:5067,0
DA:5068,0
DA:5069,0
DA:5078,0
DA:5079,0
DA:5086,0
DA:5087,0
DA:5088,0
DA:5093,0
DA:5094,0
DA:5095,0
DA:5096,0
DA:5098,0
DA:5102,9
DA:5106,9
DA:5108,0
DA:5109,0
DA:5114,2
DA:5120,2
DA:5122,0
DA:5123,0
DA:5131,1228
DA:5133,1225
DA:5134,0
DA:5136,0
DA:5138,1
DA:5139,1
DA:5144,2336
DA:5152,2189
DA:5159,12
DA:5163,6
DA:5165,6
DA:5166,6
DA:5169,9
DA:5171,9
DA:5172,9
DA:5174,27
DA:5175,27
DA:5176,27
DA:5179,1
DA:5180,1
DA:5181,1
DA:5189,0
DA:5190,0
DA:5193,0
DA:5194,0
DA:5195,0
DA:5197,0
DA:5200,0
DA:5203,117
DA:5213,3
DA:5215,1
DA:5216,1
DA:5217,1
DA:5225,0
DA:5226,0
DA:5229,0
DA:5230,1
DA:5232,1
DA:5235,2
DA:5237,1
DA:5238,1
DA:5239,1
DA:5241,0
DA:5245,5
DA:5247,1
DA:5249,0
DA:5250,0
DA:5251,0
DA:5252,0
DA:5254,0
DA:5255,0
DA:5256,0
DA:5257,0
DA:5259,0
DA:5260,0
DA:5261,0
DA:5263,0
DA:5267,0
DA:5273,0
DA:5276,2184
DA:5282,2
DA:5284,10
DA:5287,9
DA:5290,5
DA:5292,45
DA:5293,45
DA:5294,45
DA:5297,0
DA:5298,0
DA:5299,0
DA:5300,0
DA:5301,0
DA:5302,0
DA:5304,0
DA:5305,0
DA:5307,0
DA:5308,0
DA:5309,0
DA:5312,0
DA:5313,0
DA:5314,0
DA:5315,0
DA:5316,0
DA:5318,0
DA:5323,0
DA:5324,0
DA:5325,0
DA:5326,0
DA:5328,0
DA:5329,0
DA:5330,0
DA:5331,0
DA:5332,0
DA:5333,0
DA:5334,0
DA:5335,0
DA:5336,0
DA:5337,0
DA:5339,0
DA:5340,0
DA:5341,0
DA:5342,0
DA:5343,0
DA:5344,0
DA:5345,0
DA:5346,0
DA:5347,0
DA:5348,0
DA:5349,0
DA:5351,0
DA:5354,0
DA:5357,0
DA:5358,0
DA:5359,0
DA:5360,0
DA:5361,0
DA:5362,0
DA:5367,0
DA:5368,0
DA:5371,0
DA:5375,1
DA:5376,1
DA:5377,0
DA:5378,0
DA:5379,0
DA:5380,1
DA:5383,2
DA:5384,3
DA:5385,1
DA:5386,1
DA:5389,117
DA:5395,1
DA:5396,1
DA:5397,1
DA:5400,1
DA:5401,1
DA:5402,1
DA:5405,26
DA:5406,26
DA:5407,26
DA:5417,28
DA:5418,28
DA:5421,0
DA:5422,0
DA:5423,0
DA:5424,0
DA:5425,0
DA:5427,0
DA:5430,0
DA:5431,0
DA:5432,0
DA:5433,0
DA:5434,0
DA:5435,0
DA:5436,0
DA:5438,0
DA:5439,0
DA:5440,0
DA:5441,0
DA:5443,0
DA:5444,0
DA:5445,0
DA:5447,0
DA:5448,0
DA:5449,0
DA:5450,0
DA:5451,0
DA:5454,0
DA:5455,0
DA:5456,0
DA:5457,0
DA:5458,0
DA:5460,0
DA:5462,0
DA:5464,0
DA:5465,0
DA:5467,0
DA:5469,0
DA:5470,0
DA:5471,0
DA:5474,0
DA:5475,0
DA:5476,0
DA:5477,0
DA:5478,0
DA:5480,0
DA:5481,0
DA:5482,0
DA:5483,0
DA:5485,0
DA:5490,1
DA:5496,1
DA:5497,1
DA:5499,1
DA:5502,1
DA:5503,1
DA:5504,1
DA:5507,1
DA:5509,2
DA:5510,1
DA:5511,0
DA:5513,0
DA:5514,0
DA:5515,0
DA:5516,0
DA:5517,0
DA:5518,0
DA:5519,0
DA:5520,0
DA:5521,0
DA:5522,0
DA:5527,0
DA:5528,0
DA:5529,0
DA:5530,0
DA:5533,1
DA:5539,1
DA:5540,1
DA:5594,1
DA:5598,0
DA:5599,0
DA:5600,0
DA:5601,0
DA:5602,0
DA:5603,1
DA:5604,0
DA:5605,0
DA:5606,0
DA:5607,0
DA:5609,0
DA:5610,0
DA:5611,0
DA:5612,0
DA:5613,0
DA:5614,0
DA:5615,0
DA:5618,0
DA:5619,1
DA:5620,0
DA:5621,0
DA:5622,0
DA:5623,0
DA:5624,0
DA:5625,0
DA:5626,0
DA:5628,0
DA:5629,0
DA:5630,1
DA:5631,0
DA:5632,0
DA:5633,0
DA:5634,0
DA:5635,0
DA:5636,1
DA:5637,0
DA:5638,0
DA:5640,0
DA:5641,0
DA:5642,0
DA:5643,0
DA:5644,0
DA:5645,0
DA:5647,0
DA:5648,0
DA:5649,1
DA:5650,0
DA:5651,0
DA:5652,0
DA:5653,0
DA:5654,0
DA:5655,0
DA:5656,0
DA:5657,0
DA:5659,0
DA:5660,0
DA:5661,1
DA:5662,0
DA:5663,0
DA:5664,0
DA:5665,0
DA:5666,0
DA:5667,0
DA:5668,0
DA:5669,0
DA:5671,0
DA:5672,0
DA:5673,1
DA:5677,2
DA:5678,2
DA:5679,2
DA:5680,3
DA:5681,2
DA:5682,2
DA:5683,3
DA:5684,2
DA:5685,2
DA:5686,3
DA:5687,2
DA:5688,2
DA:5689,3
DA:5690,2
DA:5691,2
DA:5692,3
DA:5693,2
DA:5694,2
DA:5695,3
DA:5696,2
DA:5697,2
DA:5698,3
DA:5699,2
DA:5700,2
DA:5701,3
DA:5702,2
DA:5703,2
DA:5704,3
DA:5705,2
DA:5706,2
DA:5707,3
DA:5708,2
DA:5709,2
DA:5710,3
DA:5711,2
DA:5712,2
DA:5713,3
DA:5714,2
DA:5715,2
DA:5716,3
DA:5717,2
DA:5718,2
DA:5719,3
DA:5720,2
DA:5721,2
DA:5722,3
DA:5723,2
DA:5724,2
DA:5725,3
DA:5726,2
DA:5727,2
DA:5728,3
DA:5729,2
DA:5730,2
DA:5731,3
DA:5732,2
DA:5733,2
DA:5734,3
DA:5735,2
DA:5736,2
DA:5737,3
DA:5738,2
DA:5739,2
DA:5740,3
DA:5741,2
DA:5742,2
DA:5743,3
DA:5744,2
DA:5745,2
DA:5746,3
DA:5747,2
DA:5748,2
DA:5749,3
DA:5750,2
DA:5751,2
DA:5752,3
DA:5755,3
DA:5757,1
DA:5769,17
DA:5771,17
DA:5772,17
DA:5773,0
DA:5774,0
DA:5776,3
DA:5777,3
DA:5779,0
DA:5780,0
DA:5783,0
DA:5787,0
DA:5789,0
DA:5792,4
DA:5793,0
DA:5794,0
DA:5796,0
DA:5797,0
DA:5809,1
DA:5811,1
DA:5813,1
DA:5814,0
DA:5815,0
DA:5816,0
DA:5817,0
DA:5819,1
DA:5821,0
DA:5822,0
DA:5825,1
DA:5826,1
DA:5827,1
DA:5828,1
DA:5830,0
DA:5832,1
DA:5833,3
DA:5835,1
DA:5837,0
DA:5840,3
DA:5841,1
DA:5842,3
DA:5843,4
DA:5844,0
DA:5845,8
DA:5846,3
DA:5847,5
DA:5848,0
DA:5849,1
DA:5850,0
DA:5851,9
DA:5852,0
DA:5853,1
DA:5855,1
DA:5856,1
DA:5857,1
DA:5858,0
DA:5859,0
DA:5860,0
DA:5862,0
DA:5865,0
DA:5926,1
DA:5930,1
DA:5931,8
DA:5933,1
DA:5934,1
DA:5935,1
DA:6022,0
DA:6024,0
DA:6025,0
DA:6027,0
DA:6028,0
DA:6029,0
DA:6030,0
DA:6031,0
DA:6032,0
DA:6033,0
DA:6035,0
DA:6036,0
DA:6037,0
DA:6038,0
DA:6040,0
DA:6043,0
DA:6044,0
DA:6045,0
DA:6049,0
DA:6050,0
DA:6051,0
DA:6054,1
DA:6059,1
DA:6061,1
DA:6062,2
DA:6063,2
DA:6065,1
DA:6066,2
DA:6067,1
DA:6068,1
DA:6070,1
DA:6073,2
DA:6091,4
DA:6092,0
DA:6093,0
DA:6094,0
DA:6095,0
DA:6096,0
DA:6097,0
DA:6098,0
DA:6099,0
DA:6102,4
DA:6104,8
DA:6105,8
DA:6106,8
DA:6107,8
DA:6109,4
DA:6110,4
DA:6124,3
DA:6127,22
DA:6128,22
DA:6130,0
DA:6131,0
DA:6134,1
DA:6135,1
DA:6141,1
DA:6142,1
DA:6143,1
DA:6144,1
DA:6145,1
DA:6146,1
DA:6147,1
DA:6148,1
DA:6149,1
DA:6162,24
DA:6163,24
DA:6164,1
DA:6165,24
DA:6167,23
DA:6168,23
DA:6171,1
DA:6172,1
DA:6173,1
DA:6174,1
DA:6200,0
DA:6202,0
DA:6203,0
DA:6269,0
DA:6272,0
DA:6273,0
DA:6274,0
DA:6276,0
DA:6280,0
DA:6284,0
DA:6313,0
DA:6314,0
DA:6315,0
DA:6316,0
DA:6317,0
DA:6319,0
DA:6320,0
DA:6328,1
DA:6329,1
DA:6342,1
DA:6361,1
DA:6362,1
DA:6364,0
DA:6365,0
DA:6366,0
DA:6368,0
DA:6379,0
DA:6382,0
DA:6383,0
DA:6385,0
DA:6386,0
DA:6388,0
DA:6389,0
DA:6391,0
DA:6392,0
DA:6394,0
DA:6395,0
DA:6399,0
DA:6400,0
DA:6401,0
DA:6403,0
DA:6483,0
DA:6484,0
DA:6485,0
DA:6583,0
DA:6584,0
DA:6585,0
DA:6586,0
DA:6587,0
DA:6588,0
DA:6591,0
DA:6592,0
DA:6593,0
DA:6594,0
DA:6596,4
DA:6597,4
DA:6599,4
DA:6600,4
DA:6601,4
DA:6602,4
DA:6603,4
DA:6605,4
DA:6606,4
DA:6607,28
DA:6608,24
DA:6610,4
DA:6612,4
DA:6613,4
DA:6614,4
DA:6616,8
DA:6617,8
DA:6619,28
DA:6620,24
DA:6623,4
DA:6624,4
DA:6626,8
DA:6671,0
DA:6712,1
DA:6713,1
DA:6715,0
DA:6716,0
DA:6718,2
DA:6719,1
DA:6721,1
DA:6723,2
DA:6728,2
DA:6729,2
DA:6731,4
DA:6736,4
DA:6738,4
DA:6740,4
DA:6743,0
DA:6744,0
DA:6745,0
DA:6747,0
DA:6749,4
DA:6753,8
DA:6760,8
DA:6761,8
DA:6765,3
DA:6774,3
DA:6775,3
DA:6779,1
DA:6784,1
DA:6785,1
DA:6787,0
DA:6789,0
DA:6790,0
DA:6794,1
DA:6799,1
DA:6800,1
DA:6804,0
DA:6805,0
DA:6810,0
DA:6812,0
DA:6813,0
DA:6814,0
DA:6817,0
DA:6819,0
DA:6820,0
DA:6823,0
DA:6824,0
DA:6825,0
DA:6826,0
DA:6828,0
DA:6866,1
DA:6884,0
DA:6914,0
DA:6915,0
DA:6916,0
DA:6917,0
DA:6919,0
DA:6920,0
DA:6923,0
DA:6924,0
DA:6925,0
DA:6927,0
DA:6928,0
DA:6930,0
DA:6931,0
DA:6932,0
DA:6933,0
DA:6934,0
DA:6935,0
DA:6936,0
DA:6938,0
DA:6939,0
DA:6942,0
DA:6943,0
DA:6945,0
DA:6946,0
DA:6949,0
DA:6950,0
DA:6951,0
DA:6952,0
DA:6953,0
DA:6954,0
DA:6955,0
DA:6956,0
DA:6957,0
DA:6958,0
DA:6960,0
DA:6961,0
DA:6962,0
DA:6963,0
DA:6965,0
DA:6968,0
DA:6969,0
DA:6970,0
DA:6971,0
DA:6973,0
DA:6974,0
DA:6975,0
DA:6976,0
DA:6977,0
DA:6980,0
DA:6981,0
DA:6982,0
DA:6983,0
DA:6985,0
DA:6986,0
DA:6989,0
DA:6991,0
DA:6992,0
DA:6993,0
DA:6994,0
DA:6995,0
DA:6996,0
DA:6997,0
DA:6998,0
DA:7002,0
DA:7003,0
DA:7004,0
DA:7005,0
DA:7006,0
DA:7007,0
DA:7008,0
DA:7009,0
DA:7011,0
DA:7012,0
DA:7015,0
DA:7016,0
DA:7017,0
DA:7018,0
DA:7019,0
DA:7020,0
DA:7022,0
DA:7023,0
DA:7024,0
DA:7025,0
DA:7026,0
DA:7027,0
DA:7028,0
DA:7029,0
DA:7030,0
DA:7031,0
DA:7033,0
DA:7034,0
DA:7037,1
DA:7038,1
DA:7039,1
DA:7040,0
DA:7041,1
DA:7042,0
DA:7043,1
DA:7044,0
DA:7045,1
DA:7046,0
DA:7047,1
DA:7058,0
DA:7059,0
DA:7060,0
DA:7061,0
DA:7081,0
DA:7083,0
DA:7084,0
DA:7085,0
DA:7086,0
DA:7088,0
DA:7090,0
DA:7091,0
DA:7093,0
DA:7096,0
DA:7098,0
DA:7099,0
DA:7101,0
DA:7102,0
DA:7103,0
DA:7104,0
DA:7105,0
DA:7106,0
DA:7107,0
DA:7108,0
DA:7109,0
DA:7110,0
DA:7113,0
DA:7115,0
DA:7116,0
DA:7119,0
DA:7121,0
DA:7122,0
DA:7125,0
DA:7127,0
DA:7128,0
DA:7131,0
DA:7133,0
DA:7134,0
DA:7139,0
DA:7140,0
DA:7142,0
DA:7143,0
DA:7145,0
DA:7146,0
DA:7148,0
DA:7149,0
DA:7159,0
DA:7165,0
DA:7166,0
DA:7168,0
DA:7169,0
DA:7172,0
DA:7173,0
DA:7181,0
DA:7184,0
DA:7188,0
DA:7189,0
DA:7191,0
DA:7192,0
DA:7193,0
DA:7195,0
DA:7196,0
DA:7197,0
DA:7199,0
DA:7221,0
DA:7227,0
DA:7229,0
DA:7230,0
DA:7240,5
DA:7241,5
DA:7242,0
DA:7243,5
DA:7244,0
DA:7245,0
DA:7248,0
DA:7249,0
DA:7251,0
DA:7252,0
DA:7279,1
DA:7281,1
DA:7298,6
DA:7319,2
DA:7348,0
DA:7362,1
DA:7383,2
DA:7398,2
DA:7402,1
DA:7403,2
DA:7404,2
DA:7406,1
DA:7407,1
DA:7409,0
DA:7410,0
DA:7412,1
DA:7413,1
DA:7415,1
DA:7416,1
DA:7420,4
DA:7421,4
DA:7422,4
DA:7423,0
DA:7424,0
DA:7425,0
DA:7426,3
DA:7427,3
DA:7428,3
DA:7429,0
DA:7430,0
DA:7431,0
DA:7432,0
DA:7433,0
DA:7434,0
DA:7435,0
DA:7436,0
DA:7437,0
DA:7448,14
DA:7450,14
DA:7451,1
DA:7452,14
DA:7456,5
DA:7457,5
DA:7459,7
DA:7460,7
DA:7462,1
DA:7463,1
DA:7464,1
DA:7465,1
DA:7466,1
DA:7467,0
DA:7468,0
DA:7479,1
DA:7480,1
DA:7481,1
DA:7482,0
DA:7483,1
DA:7486,4
DA:7487,4
DA:7488,4
DA:7489,0
DA:7490,0
DA:7491,0
DA:7493,0
DA:7494,0
DA:7496,1
DA:7497,1
DA:7506,8
DA:7507,8
DA:7509,0
DA:7510,0
DA:7513,0
DA:7514,0
DA:7517,0
DA:7518,4
DA:7519,0
DA:7653,0
DA:7655,0
DA:7656,0
DA:7657,0
DA:7658,0
DA:7660,0
DA:7661,0
DA:7662,0
DA:7663,0
DA:7665,0
DA:7666,0
DA:7667,0
DA:7668,0
DA:7669,0
DA:7670,0
DA:7672,0
DA:7673,0
DA:7674,0
DA:7675,0
DA:7676,0
DA:7678,1
DA:7679,2
DA:7680,1
DA:7682,1
DA:7683,4
DA:7685,1
DA:7686,1
DA:7687,1
DA:7688,1
DA:7689,1
DA:7691,2
DA:7692,1
DA:7693,1
DA:7695,1
DA:7696,1
DA:7697,1
DA:7699,1
DA:7700,1
DA:7701,1
DA:7703,3
DA:7704,3
DA:7706,6
DA:7707,6
DA:7709,6
DA:7711,3
DA:7713,3
DA:7715,3
DA:7716,3
DA:7717,3
DA:7718,4
DA:7719,4
DA:7720,4
DA:7721,4
DA:7722,4
DA:7724,3
DA:7725,3
DA:7726,0
DA:7727,0
DA:7728,0
DA:7730,3
DA:7731,9
DA:7735,6
DA:7737,3
DA:7738,3
DA:7740,6
DA:7743,0
DA:7744,0
DA:7747,0
DA:7748,0
DA:7751,4
DA:7752,4
DA:7753,4
DA:7754,4
DA:7755,4
DA:7756,4
DA:7757,0
DA:7758,0
DA:7759,0
DA:7761,0
DA:7766,4
DA:7769,4
DA:7770,4
DA:7771,4
DA:7773,6
DA:7774,6
DA:7775,6
DA:7776,2
DA:7777,4
DA:7779,4
DA:7781,4
DA:7783,4
DA:7785,4
DA:7788,8
DA:7789,8
DA:7790,8
DA:7791,0
DA:7792,0
DA:7793,0
DA:7794,0
DA:7795,0
DA:7796,0
DA:7797,0
DA:7800,4
DA:7801,4
DA:7802,4
DA:7804,4
DA:7805,4
DA:7806,4
DA:7809,4
DA:7810,4
DA:7811,4
DA:7813,0
DA:7814,0
DA:7815,0
DA:7817,0
DA:7818,0
DA:7820,0
DA:7821,0
DA:7822,0
DA:7823,0
DA:7824,0
DA:7825,0
DA:7826,0
DA:7827,0
DA:7829,0
DA:7830,0
DA:7831,0
DA:7833,0
DA:7834,0
DA:7835,0
DA:7837,0
DA:7838,0
DA:7839,0
DA:7840,0
DA:7843,0
DA:7844,0
DA:7847,0
DA:7848,0
DA:7849,0
DA:7851,0
DA:7853,0
DA:7857,0
DA:7858,0
DA:7859,0
DA:7861,0
DA:7863,0
DA:7866,0
DA:7867,0
DA:7869,0
DA:7870,0
DA:7871,0
DA:7872,0
DA:7874,0
DA:7876,0
DA:7877,0
DA:7878,0
DA:7879,0
DA:7883,0
DA:7884,0
DA:7885,0
DA:7886,0
DA:7887,0
DA:7889,0
DA:7890,0
DA:7893,0
DA:7894,0
DA:7895,0
DA:7896,0
DA:7897,0
DA:7899,4
DA:7900,4
DA:7901,4
DA:7903,9
DA:7904,9
DA:7907,4
DA:7908,4
DA:7909,8
DA:7910,4
DA:7911,4
DA:7912,4
DA:7913,4
DA:7915,4
DA:7917,4
DA:7919,4
DA:7920,4
DA:7921,4
DA:7922,0
DA:7923,0
DA:7924,0
DA:7926,4
DA:7928,4
DA:7929,0
DA:7931,0
DA:7934,0
DA:7939,0
DA:7942,4
DA:7943,4
DA:7944,4
DA:7946,4
DA:7947,4
DA:7948,8
DA:7949,4
DA:7950,4
DA:7952,4
DA:7953,8
DA:7954,4
DA:7955,4
DA:7956,4
DA:7958,4
DA:7961,8
DA:7962,4
DA:7965,0
DA:7966,4
DA:7967,4
DA:7969,18
DA:7970,18
DA:7971,36
DA:7973,0
DA:7981,6
DA:7983,6
DA:7985,6
DA:7986,6
DA:7992,12
DA:7993,6
DA:7994,8
DA:7995,4
DA:7996,0
DA:7998,4
DA:8000,6
DA:8006,6
DA:8007,6
DA:8016,10
DA:8022,10
DA:8023,10
DA:8025,4
DA:8026,4
DA:8027,4
DA:8114,1
DA:8115,1
DA:8116,1
DA:8118,1
DA:8125,1
DA:8126,1
DA:8127,1
DA:8128,1
DA:8130,0
DA:8131,0
DA:8132,0
DA:8133,0
DA:8138,1
DA:8139,1
DA:8140,1
DA:8141,0
DA:8142,1
DA:8144,1
DA:8146,2
DA:8147,1
DA:8149,2
DA:8151,1
DA:8153,1
DA:8155,2
DA:8156,1
DA:8157,1
DA:8159,1
DA:8160,4
DA:8161,3
DA:8162,3
DA:8164,0
DA:8167,1
DA:8168,2
DA:8171,0
DA:8173,0
DA:8174,0
DA:8175,0
DA:8177,0
DA:8178,0
DA:8179,0
DA:8180,0
DA:8181,0
DA:8184,0
DA:8185,0
DA:8186,0
DA:8189,0
DA:8190,0
DA:8192,0
DA:8198,1
DA:8200,1
DA:8201,0
DA:8202,0
DA:8205,1
DA:8206,1
DA:8207,0
DA:8208,0
DA:8209,0
DA:8211,0
DA:8213,0
DA:8214,0
DA:8215,0
DA:8220,1
DA:8221,1
DA:8222,1
DA:8223,2
DA:8224,1
DA:8225,1
DA:8227,0
DA:8228,0
DA:8229,0
DA:8230,0
DA:8231,0
DA:8232,0
DA:8233,0
DA:8234,0
DA:8235,0
DA:8236,0
DA:8237,0
DA:8238,0
DA:8239,0
DA:8241,1
DA:8242,1
DA:8243,0
DA:8245,2
DA:8246,1
DA:8247,0
DA:8248,0
DA:8249,0
DA:8250,0
DA:8251,0
DA:8252,0
DA:8253,0
DA:8256,1
DA:8257,0
DA:8258,1
DA:8259,0
DA:8260,1
DA:8261,1
DA:8264,0
DA:8265,0
DA:8266,0
DA:8267,0
DA:8269,1
DA:8270,1
DA:8271,0
DA:8272,1
DA:8273,1
DA:8274,1
DA:8275,1
DA:8301,1
DA:8302,1
DA:8303,0
DA:8304,0
DA:8306,1
DA:8307,1
DA:8308,0
DA:8309,0
DA:8311,1
DA:8314,0
DA:8315,0
DA:8317,0
DA:8318,0
DA:8319,0
DA:8320,0
DA:8321,0
DA:8323,2
DA:8324,2
DA:8325,1
DA:8326,2
DA:8329,1
DA:8330,1
DA:8331,0
DA:8333,1
DA:8334,0
DA:8338,1
DA:8340,1
DA:8342,1
DA:8343,0
DA:8346,2
DA:8347,0
DA:8349,1
DA:8351,0
DA:8352,0
DA:8353,0
DA:8362,0
DA:8364,0
DA:8366,0
DA:8368,0
DA:8370,0
DA:8372,1
DA:8373,1
DA:8392,0
DA:8393,0
DA:8394,0
DA:8396,0
DA:8397,0
DA:8398,0
DA:8401,0
DA:8402,0
DA:8404,0
DA:8405,0
DA:8406,0
DA:8408,0
DA:8410,0
DA:8413,0
DA:8414,0
DA:8415,0
DA:8416,0
DA:8418,0
DA:8426,0
DA:8427,0
DA:8428,0
DA:8429,0
DA:8431,0
DA:8432,0
DA:8437,0
DA:8438,0
DA:8439,0
DA:8442,0
DA:8443,0
DA:8444,0
DA:8445,0
DA:8447,0
DA:8448,0
DA:8453,1
DA:8454,1
DA:8455,1
DA:8457,1
DA:8458,1
DA:8462,1
DA:8463,1
DA:8465,0
DA:8466,0
DA:8468,0
DA:8469,0
DA:8489,1
DA:8490,1
DA:8492,12
DA:8493,12
DA:8495,0
DA:8496,0
DA:8498,0
DA:8499,0
DA:8501,0
DA:8502,0
DA:8504,40
DA:8505,40
DA:8507,4
DA:8508,4
DA:8509,4
DA:8510,4
DA:8511,4
DA:8512,4
DA:8513,4
DA:8515,0
DA:8517,0
DA:8518,0
DA:8520,0
DA:8523,0
DA:8524,0
DA:8525,0
DA:8526,0
DA:8527,0
DA:8528,0
DA:8529,0
DA:8530,0
DA:8532,0
DA:8534,0
DA:8537,2
DA:8539,2
DA:8540,2
DA:8542,2
DA:8543,2
DA:8544,2
DA:8545,2
DA:8546,2
DA:8564,0
DA:8565,0
DA:8566,0
DA:8569,0
DA:8570,0
DA:8571,0
DA:8573,42
DA:8574,42
DA:8575,42
DA:8576,42
DA:8578,16
DA:8579,16
DA:8580,16
DA:8581,32
DA:8583,16
DA:8584,16
DA:8586,39
DA:8588,39
DA:8590,39
DA:8591,39
DA:8593,0
DA:8595,0
DA:8597,0
DA:8598,0
DA:8599,0
DA:8600,0
DA:8602,0
DA:8603,0
DA:8604,0
DA:8605,0
DA:8607,194
DA:8608,97
DA:8609,97
DA:8611,16
DA:8612,16
DA:8613,16
DA:8615,9
DA:8616,9
DA:8619,16
DA:8620,16
DA:8621,16
DA:8622,16
DA:8623,16
DA:8625,0
DA:8626,0
DA:8627,0
DA:8628,0
DA:8630,0
DA:8631,0
DA:8634,0
DA:8635,0
DA:8637,0
DA:8638,0
DA:8641,0
DA:8642,0
DA:8643,0
DA:8644,0
DA:8645,0
DA:8646,0
DA:8648,0
DA:8649,0
DA:8650,0
DA:8651,0
DA:8653,0
DA:8655,0
DA:8657,0
DA:8658,0
DA:8660,0
DA:8661,0
DA:8664,0
DA:8665,0
DA:8668,0
DA:8669,0
DA:8672,0
DA:8673,0
DA:8675,0
DA:8676,0
DA:8678,0
DA:8679,0
DA:8680,0
DA:8681,0
DA:8682,0
DA:8683,0
DA:8684,0
DA:8685,0
DA:8686,0
DA:8689,0
DA:8692,0
DA:8693,0
DA:8694,0
DA:8695,0
DA:8696,0
DA:8697,0
DA:8699,0
DA:8700,0
DA:8702,0
DA:8703,0
DA:8706,0
DA:8707,0
DA:8719,0
DA:8726,0
DA:8728,0
DA:8729,0
DA:8731,0
DA:8733,0
DA:8741,1
DA:8743,0
DA:8744,0
DA:8745,0
DA:8746,0
DA:8748,0
DA:8751,1
DA:8752,1
DA:8753,1
DA:8754,0
DA:8755,0
DA:8756,0
DA:8757,0
DA:8758,0
DA:8761,1
DA:8764,0
DA:8765,0
DA:8768,0
DA:8772,0
DA:8774,1
DA:8776,1
DA:8777,1
DA:8790,9
DA:8791,18
DA:8792,9
DA:8793,0
DA:8794,9
DA:8795,0
DA:8796,9
DA:8797,0
DA:8798,9
DA:8799,0
DA:8800,9
DA:8801,0
DA:8802,9
DA:8803,0
DA:8805,9
DA:8807,3
DA:8808,3
DA:8810,3
DA:8811,3
DA:8815,3
DA:8817,3
DA:8823,3
DA:8826,6
DA:8827,6
DA:8828,3
DA:8829,48
DA:8830,45
DA:8831,3
DA:8832,3
DA:8834,0
DA:8837,42
DA:8838,3
DA:8839,3
DA:8840,0
DA:8841,3
DA:8842,3
DA:8844,3
DA:8845,3
DA:8846,3
DA:8849,39
DA:8852,3
DA:8853,0
DA:8856,6
DA:8857,6
DA:8860,3
DA:8861,3
DA:8862,3
DA:8863,3
DA:8865,6
DA:8866,6
DA:8867,3
DA:8868,3
DA:8870,3
DA:8871,3
DA:8873,3
DA:8882,3
DA:8884,3
DA:8885,3
DA:8887,0
DA:8888,0
DA:8890,0
DA:8891,0
DA:8893,0
DA:8894,0
DA:8896,3
DA:8897,3
DA:8900,0
DA:8901,0
DA:8903,0
DA:8904,0
DA:8905,0
DA:8907,0
DA:8908,0
DA:8909,0
DA:8910,0
DA:8911,0
DA:8914,0
DA:8917,3
DA:8919,0
DA:8920,0
DA:8921,0
DA:8922,0
DA:8925,4
DA:8926,4
DA:8927,4
DA:8929,0
DA:8930,0
DA:8931,0
DA:8932,0
DA:8935,7
DA:8936,7
DA:8939,10
DA:8941,10
DA:8952,1
DA:8954,1
DA:8956,1
DA:8958,0
DA:8959,0
DA:8961,0
DA:8962,0
DA:8963,0
DA:8966,1
DA:8968,1
DA:8970,3
DA:8971,3
DA:8974,1
DA:8975,2
DA:8976,4
DA:8977,3
DA:8978,3
DA:8983,1
DA:8985,0
DA:8986,0
DA:8987,0
DA:8988,0
DA:8989,0
DA:8990,0
DA:8991,0
DA:8993,1
DA:8994,1
DA:8997,3
DA:8998,6
DA:8999,3
DA:9000,0
DA:9001,0
DA:9002,0
DA:9004,3
DA:9007,0
DA:9008,0
DA:9010,1
DA:9011,1
DA:9012,1
DA:9014,1
DA:9015,1
DA:9016,1
DA:9018,1
DA:9022,3
DA:9024,4
DA:9025,4
DA:9026,4
DA:9028,3
DA:9029,3
DA:9030,3
DA:9032,0
DA:9033,0
DA:9034,0
DA:9035,0
DA:9036,0
DA:9038,3
DA:9058,13
DA:9060,13
DA:9061,13
DA:9065,0
DA:9066,0
DA:9067,0
DA:9070,3
DA:9071,3
DA:9072,3
DA:9073,3
DA:9074,3
DA:9077,0
DA:9078,0
DA:9079,0
DA:9080,0
DA:9081,0
DA:9083,4
DA:9084,4
DA:9085,4
DA:9086,4
DA:9087,8
DA:9088,8
DA:9089,8
DA:9091,10
DA:9092,10
DA:9094,18
DA:9095,18
DA:9097,16
DA:9098,16
DA:9099,16
DA:9101,10
DA:9102,5
DA:9104,8
DA:9105,8
DA:9108,10
DA:9111,10
DA:9112,10
DA:9114,8
DA:9115,8
DA:9117,18
DA:9118,18
DA:9120,4
DA:9121,4
DA:9123,6
DA:9124,6
DA:9126,0
DA:9127,0
DA:9130,7
DA:9131,7
DA:9132,7
DA:9134,10
DA:9135,10
DA:9136,20
DA:9137,3
DA:9138,23
DA:9140,0
DA:9141,0
DA:9142,0
DA:9145,12
DA:9146,12
DA:9147,7
DA:9148,7
DA:9149,4
DA:9151,12
DA:9153,0
DA:9154,0
DA:9156,8
DA:9157,8
DA:9158,8
DA:9159,8
DA:9160,8
DA:9161,8
DA:9163,8
DA:9166,8
DA:9167,0
DA:9169,8
DA:9171,0
DA:9174,4
DA:9175,4
DA:9177,4
DA:9178,3
DA:9179,4
DA:9184,0
DA:9187,0
DA:9189,8
DA:9190,8
DA:9191,8
DA:9192,0
DA:9193,0
DA:9194,0
DA:9195,0
DA:9196,0
DA:9197,0
DA:9198,0
DA:9199,0
DA:9200,0
DA:9201,0
DA:9203,8
DA:9204,8
DA:9205,8
DA:9206,8
DA:9207,8
DA:9208,8
DA:9209,8
DA:9211,10
DA:9212,10
DA:9214,10
DA:9215,7
DA:9216,0
DA:9218,7
DA:9219,7
DA:9221,10
DA:9223,13
DA:9225,10
DA:9226,20
DA:9228,10
DA:9229,20
DA:9230,3
DA:9231,3
DA:9232,3
DA:9235,7
DA:9236,7
DA:9238,10
DA:9239,9
DA:9240,20
DA:9243,9
DA:9244,9
DA:9245,8
DA:9246,9
DA:9248,3
DA:9249,3
DA:9250,0
DA:9251,0
DA:9252,0
DA:9254,3
DA:9255,7
DA:9256,7
DA:9257,0
DA:9258,7
DA:9260,0
DA:9262,0
DA:9263,0
DA:9265,0
DA:9267,0
DA:9268,0
DA:9270,0
DA:9271,0
DA:9272,0
DA:9273,0
DA:9274,0
DA:9277,0
DA:9278,0
DA:9281,0
DA:9282,0
DA:9283,0
DA:9284,0
DA:9287,0
DA:9290,0
DA:9292,0
DA:9293,0
DA:9294,0
DA:9295,0
DA:9297,0
DA:9298,0
DA:9299,0
DA:9300,0
DA:9301,0
DA:9320,3
DA:9321,3
DA:9324,3
DA:9326,3
DA:9328,3
DA:9330,12
DA:9332,6
DA:9335,6
DA:9336,0
DA:9338,0
DA:9340,3
DA:9359,0
DA:9360,0
DA:9361,0
DA:9362,0
DA:9363,0
DA:9366,1
DA:9367,3
DA:9368,6
DA:9370,9
DA:9373,1
DA:9374,3
DA:9376,3
DA:9378,6
DA:9379,3
DA:9380,0
DA:9382,3
DA:9385,1
DA:9386,1
DA:9388,3
DA:9390,3
DA:9391,3
DA:9392,3
DA:9393,0
DA:9401,1
DA:9403,1
DA:9404,1
DA:9405,1
DA:9406,1
DA:9407,1
DA:9408,1
DA:9409,4
DA:9410,3
DA:9411,1
DA:9412,0
DA:9413,1
DA:9415,1
DA:9416,1
DA:9417,1
DA:9420,3
DA:9421,3
DA:9422,2
DA:9423,0
DA:9424,1
DA:9425,1
DA:9426,0
DA:9427,0
DA:9428,0
DA:9431,1
DA:9432,0
DA:9433,0
DA:9434,0
DA:9436,0
DA:9437,0
DA:9438,0
DA:9440,0
DA:9441,0
DA:9443,0
DA:9444,0
DA:9446,1
DA:9447,0
DA:9448,1
DA:9449,0
DA:9450,1
DA:9451,1
DA:9453,1
DA:9454,1
DA:9455,1
DA:9456,1
DA:9457,0
DA:9458,0
DA:9459,0
DA:9460,0
DA:9461,0
DA:9462,0
DA:9463,1
DA:9465,1
DA:9466,1
DA:9467,1
DA:9468,1
DA:9470,1
DA:9472,0
DA:9473,0
DA:9484,18
DA:9485,18
DA:9488,0
DA:9489,0
DA:9492,0
DA:9495,0
DA:9496,0
DA:9497,0
DA:9499,0
DA:9501,0
DA:9502,0
DA:9507,0
DA:9509,0
DA:9510,0
DA:9511,0
DA:9514,10
DA:9515,10
DA:9516,10
DA:9517,8
DA:9518,8
DA:9520,8
DA:9521,8
DA:9523,0
DA:9524,0
DA:9526,8
DA:9527,8
DA:9546,1
DA:9554,0
DA:9560,0
DA:9561,0
DA:9566,0
DA:9568,0
DA:9569,0
DA:9570,0
DA:9571,0
DA:9574,0
DA:9575,0
DA:9576,0
DA:9577,0
DA:9578,0
DA:9579,0
DA:9584,0
DA:9585,0
DA:9586,0
DA:9587,0
DA:9589,0
DA:9590,0
DA:9591,0
DA:9592,0
DA:9593,0
DA:9594,0
DA:9596,0
DA:9605,0
DA:9606,0
DA:9607,0
DA:9610,0
DA:9611,0
DA:9612,0
DA:9614,0
DA:9615,0
DA:9617,0
DA:9618,0
DA:9620,0
DA:9621,0
DA:9624,0
DA:9625,0
DA:9628,0
DA:9629,0
DA:9630,0
DA:9631,0
DA:9632,0
DA:9634,0
DA:9637,0
DA:9638,0
DA:9639,0
DA:9641,0
DA:9644,0
DA:9645,0
DA:9646,0
DA:9648,0
DA:9651,0
DA:9652,0
DA:9653,0
DA:9655,0
DA:9658,0
DA:9659,0
DA:9660,0
DA:9662,0
DA:9666,0
DA:9667,0
DA:9669,0
DA:9670,0
DA:9672,0
DA:9673,0
DA:9674,0
DA:9675,0
DA:9676,0
DA:9678,0
DA:9681,0
DA:9682,0
DA:9684,0
DA:9685,0
DA:9687,0
DA:9688,0
DA:9689,0
DA:9690,0
DA:9691,0
DA:9693,0
DA:9696,0
DA:9697,0
DA:9700,0
DA:9701,0
DA:9702,0
DA:9703,0
DA:9704,0
DA:9705,0
DA:9706,0
DA:9707,0
DA:9708,0
DA:9709,0
DA:9710,0
DA:9712,0
DA:9713,0
DA:9714,0
DA:9717,0
DA:9718,0
DA:9720,0
DA:9721,0
DA:9724,0
DA:9725,0
DA:9728,0
DA:9729,0
DA:9731,0
DA:9732,0
DA:9746,14
DA:9747,14
DA:9748,14
DA:9749,14
DA:9750,14
DA:9751,14
DA:9754,9
DA:9755,9
DA:9756,9
DA:9757,9
DA:9758,9
DA:9761,14
DA:9762,14
DA:9764,2
DA:9765,2
DA:9767,0
DA:9768,0
DA:9771,3
DA:9772,3
DA:9773,3
DA:9774,3
DA:9775,3
DA:9778,3
DA:9779,3
DA:9780,3
DA:9781,3
DA:9784,3
DA:9785,3
DA:9786,3
DA:9787,0
DA:9788,3
DA:9789,0
DA:9791,3
DA:9792,3
DA:9803,0
DA:9813,0
DA:9814,0
DA:9816,0
DA:9817,0
DA:9818,0
DA:9819,0
DA:9821,0
DA:9822,0
DA:9823,0
DA:9825,0
DA:9828,0
DA:9829,0
DA:9830,0
DA:9839,0
DA:9842,0
DA:9844,0
DA:9845,0
DA:9846,0
DA:9848,0
DA:9849,0
DA:9850,0
DA:9852,0
DA:9854,0
DA:9855,0
DA:9857,0
DA:9859,0
DA:9861,0
DA:9863,0
DA:9865,0
DA:9869,0
DA:9870,0
DA:9883,0
DA:9913,0
DA:9914,0
DA:9915,0
DA:9939,0
DA:9940,0
DA:9941,0
DA:9942,0
DA:9943,0
DA:9977,0
DA:9979,0
DA:9980,0
DA:9982,0
DA:9987,0
DA:9988,0
DA:9989,0
DA:9990,0
DA:9991,0
DA:9995,0
DA:9996,0
DA:9998,0
DA:9999,0
DA:10002,0
DA:10003,0
DA:10005,0
DA:10006,0
DA:10011,0
DA:10013,0
DA:10014,0
DA:10017,0
DA:10020,0
DA:10022,0
DA:10023,0
DA:10024,0
DA:10027,0
DA:10028,0
DA:10029,0
DA:10031,0
DA:10032,0
DA:10033,0
DA:10034,0
DA:10035,0
DA:10036,0
DA:10037,0
DA:10039,0
DA:10040,0
DA:10041,0
DA:10044,0
DA:10045,0
DA:10046,0
DA:10047,0
DA:10049,0
DA:10050,0
DA:10051,0
DA:10054,0
DA:10056,0
DA:10057,0
DA:10059,0
DA:10060,0
DA:10061,0
DA:10062,0
DA:10064,0
DA:10065,0
DA:10066,0
DA:10067,0
DA:10068,0
DA:10069,0
DA:10070,0
DA:10071,0
DA:10074,0
DA:10075,0
DA:10076,0
DA:10077,0
DA:10080,0
DA:10081,0
DA:10082,0
DA:10083,0
DA:10084,0
DA:10085,0
DA:10088,0
DA:10090,0
DA:10091,0
DA:10092,0
DA:10095,0
DA:10096,0
DA:10097,0
DA:10098,0
DA:10101,0
DA:10102,0
DA:10103,0
DA:10106,0
DA:10107,0
DA:10108,0
DA:10109,0
DA:10110,0
DA:10111,0
DA:10112,0
DA:10113,0
DA:10115,0
DA:10118,0
DA:10119,0
DA:10120,0
DA:10121,0
DA:10122,0
DA:10125,0
DA:10126,0
DA:10127,0
DA:10129,0
DA:10130,0
DA:10131,0
DA:10132,0
DA:10135,0
DA:10136,0
DA:10137,0
DA:10138,0
DA:10140,0
DA:10142,0
DA:10143,0
DA:10144,0
DA:10146,0
DA:10147,0
DA:10148,0
DA:10149,0
DA:10151,0
DA:10163,0
DA:10164,0
DA:10165,0
DA:10169,0
DA:10174,0
DA:10178,0
DA:10182,0
DA:10184,0
DA:10187,0
DA:10188,0
DA:10190,0
DA:10192,0
DA:10193,0
DA:10206,0
DA:10207,0
DA:10211,0
DA:10213,0
DA:10215,0
DA:10223,0
DA:10227,0
DA:10228,0
DA:10231,0
DA:10232,0
DA:10233,0
DA:10234,0
DA:10237,0
DA:10238,0
DA:10239,0
DA:10241,0
DA:10243,0
DA:10244,0
DA:10246,0
DA:10249,0
DA:10250,0
DA:10251,0
DA:10252,0
DA:10255,0
DA:10256,0
DA:10258,0
DA:10259,0
DA:10262,0
DA:10263,0
DA:10264,0
DA:10266,0
DA:10268,0
DA:10269,0
DA:10270,0
DA:10271,0
DA:10272,0
DA:10275,0
DA:10279,0
DA:10283,0
DA:10284,0
DA:10285,0
DA:10287,0
DA:10288,0
DA:10290,0
DA:10292,0
DA:10294,0
DA:10295,0
DA:10296,0
DA:10297,0
DA:10298,0
DA:10300,0
DA:10301,0
DA:10303,0
DA:10304,0
DA:10306,0
DA:10307,0
DA:10308,0
DA:10309,0
DA:10310,0
DA:10312,0
DA:10313,0
DA:10314,0
DA:10315,0
DA:10316,0
DA:10317,0
DA:10319,0
DA:10320,0
DA:10321,0
DA:10322,0
DA:10323,0
DA:10324,0
DA:10326,0
DA:10327,0
DA:10328,0
DA:10329,0
DA:10330,0
DA:10332,0
DA:10333,0
DA:10334,0
DA:10335,0
DA:10337,0
DA:10338,0
DA:10339,0
DA:10340,0
DA:10342,0
DA:10343,0
DA:10344,0
DA:10345,0
DA:10350,0
DA:10351,0
DA:10353,0
DA:10356,0
DA:10357,0
DA:10358,0
DA:10359,0
DA:10361,0
DA:10362,0
DA:10364,0
DA:10365,0
DA:10367,0
DA:10369,0
DA:10371,0
DA:10372,0
DA:10373,0
DA:10375,0
DA:10376,0
DA:10377,0
DA:10379,0
DA:10380,0
DA:10382,0
DA:10384,0
DA:10386,0
DA:10387,0
DA:10388,0
DA:10390,0
DA:10392,0
DA:10393,0
DA:10395,0
DA:10396,0
DA:10398,0
DA:10400,0
DA:10402,0
DA:10403,0
DA:10404,0
DA:10405,0
DA:10407,0
DA:10409,0
DA:10410,0
DA:10411,0
DA:10414,0
DA:10415,0
DA:10418,0
DA:10419,0
DA:10422,0
DA:10424,0
DA:10425,0
DA:10426,0
DA:10427,0
DA:10428,0
DA:10449,0
DA:10450,0
DA:10451,0
DA:10453,0
DA:10454,0
DA:10456,0
DA:10457,0
DA:10458,0
DA:10459,0
DA:10460,0
DA:10461,0
DA:10462,0
DA:10464,0
DA:10465,0
DA:10466,0
DA:10467,0
DA:10468,0
DA:10470,0
DA:10471,0
DA:10472,0
DA:10473,0
DA:10474,0
DA:10477,0
DA:10478,0
DA:10479,0
DA:10480,0
DA:10481,0
DA:10483,0
DA:10486,0
DA:10488,1
DA:10507,3
DA:10508,3
DA:10509,3
DA:10512,1
DA:10513,1
DA:10514,0
DA:10515,1
DA:10516,0
DA:10518,1
DA:10521,20
DA:10530,1
DA:10538,1
DA:10540,1
DA:10541,1
DA:10543,0
DA:10544,0
DA:10547,0
DA:10548,0
DA:10549,0
DA:10550,0
DA:10551,0
DA:10552,0
DA:10553,0
DA:10554,0
DA:10556,0
DA:10557,11
DA:10558,11
DA:10559,0
DA:10560,0
DA:10561,0
DA:10563,11
DA:10566,0
DA:10567,0
DA:10568,0
DA:10571,0
DA:10572,0
DA:10574,0
DA:10575,0
DA:10576,0
DA:10577,0
DA:10578,0
DA:10579,0
DA:10581,0
DA:10583,0
DA:10584,0
DA:10585,0
DA:10586,0
DA:10587,0
DA:10588,0
DA:10590,0
DA:10591,0
DA:10594,0
DA:10595,0
DA:10596,0
DA:10597,0
DA:10599,0
DA:10621,0
DA:10623,0
DA:10625,0
DA:10626,0
DA:10627,0
DA:10628,0
DA:10629,0
DA:10630,0
DA:10631,0
DA:10632,0
DA:10633,0
DA:10635,0
DA:10638,0
DA:10640,0
DA:10641,0
DA:10643,0
DA:10645,0
DA:10647,0
DA:10649,0
DA:10651,0
DA:10654,0
DA:10655,0
DA:10657,0
DA:10659,0
DA:10661,0
DA:10663,0
DA:10665,0
DA:10667,0
DA:10671,0
DA:10672,0
DA:10680,1
DA:10682,1
DA:10688,2
DA:10689,1
DA:10691,0
DA:10692,0
DA:10695,0
DA:10696,0
DA:10697,0
DA:10699,4
DA:10700,4
DA:10702,4
DA:10703,4
DA:10705,4
DA:10708,4
DA:10709,4
DA:10711,0
DA:10713,0
DA:10714,0
DA:10715,0
DA:10716,0
DA:10719,8
DA:10720,8
DA:10721,8
DA:10722,8
DA:10723,8
DA:10724,8
DA:10725,8
DA:10726,0
DA:10727,0
DA:10728,0
DA:10729,0
DA:10731,0
DA:10732,0
DA:10734,8
DA:10735,0
DA:10737,8
DA:10738,0
DA:10740,8
DA:10741,8
DA:10743,0
DA:10744,0
DA:10746,0
DA:10748,0
DA:10749,0
DA:10750,0
DA:10751,0
DA:10753,0
DA:10755,0
DA:10757,0
DA:10758,0
DA:10759,0
DA:10761,0
DA:10762,0
DA:10763,0
DA:10764,0
DA:10766,3
DA:10767,3
DA:10768,3
DA:10769,3
DA:10770,3
DA:10771,1
DA:10772,1
DA:10773,0
DA:10774,0
DA:10775,0
DA:10776,0
DA:10778,1
DA:10779,1
DA:10780,1
DA:10781,1
DA:10782,1
DA:10783,1
DA:10784,1
DA:10785,1
DA:10789,0
DA:10793,0
DA:10798,0
DA:10800,0
DA:10802,0
DA:10804,0
DA:10805,0
DA:10807,0
DA:10808,0
DA:10809,0
DA:10810,0
DA:10811,0
DA:10813,0
DA:10814,0
DA:10815,0
DA:10818,0
DA:10819,0
DA:10821,0
DA:10822,0
DA:10823,0
DA:10824,0
DA:10825,0
DA:10827,0
DA:10828,0
DA:10829,0
DA:10830,0
DA:10831,0
DA:10832,0
DA:10833,0
DA:10834,0
DA:10836,0
DA:10837,0
DA:10838,0
DA:10839,0
DA:10841,0
DA:10842,0
DA:10843,0
DA:10844,0
DA:10846,0
DA:10847,0
DA:10849,0
DA:10850,0
DA:10852,0
DA:10853,0
DA:10854,0
DA:10855,0
DA:10856,0
DA:10857,0
DA:10858,0
DA:10863,0
DA:10864,0
DA:10865,0
DA:10867,0
DA:10869,0
DA:10870,0
DA:10871,0
DA:10872,0
DA:10873,0
DA:10874,0
DA:10875,0
DA:10876,0
DA:10879,0
DA:10881,0
DA:10882,0
DA:10885,0
DA:10886,0
DA:10887,0
DA:10888,0
DA:10890,0
DA:10891,0
DA:10892,0
DA:10893,0
DA:10894,0
DA:10895,0
DA:10896,0
DA:10898,0
DA:10899,0
DA:10900,0
DA:10901,0
DA:10902,0
DA:10903,0
DA:10905,0
DA:10906,0
DA:10907,0
DA:10908,0
DA:10909,0
DA:10911,0
DA:10912,0
DA:10914,0
DA:10915,0
DA:10916,0
DA:10917,0
DA:10918,0
DA:10931,0
DA:10933,0
DA:10934,0
DA:10935,0
DA:10937,0
DA:10939,0
DA:10940,0
DA:10941,0
DA:10942,0
DA:10944,0
DA:10945,0
DA:10946,0
DA:10948,0
DA:10949,0
DA:10950,0
DA:10951,0
DA:10952,0
DA:10953,0
DA:10954,0
DA:10956,0
DA:10957,0
DA:10959,0
DA:10960,0
DA:10961,0
DA:10962,0
DA:10963,0
DA:10964,0
DA:10966,0
DA:10967,0
DA:10968,0
DA:10969,0
DA:10971,0
DA:10972,0
DA:10975,0
DA:10976,0
DA:10977,0
DA:10978,0
DA:10981,0
DA:10983,0
DA:10984,0
DA:10985,0
DA:10986,0
DA:10988,0
DA:10989,0
DA:10991,0
DA:10992,0
DA:10993,0
DA:10994,0
DA:10995,0
DA:10996,0
DA:10998,0
DA:10999,0
DA:11001,0
DA:11005,0
DA:11006,0
DA:11007,0
DA:11008,0
DA:11010,0
DA:11011,0
DA:11012,0
DA:11014,0
DA:11016,0
DA:11018,0
DA:11019,0
DA:11020,0
DA:11021,0
DA:11022,0
DA:11023,0
DA:11024,0
DA:11025,0
DA:11026,0
DA:11027,0
DA:11028,0
DA:11030,0
DA:11031,0
DA:11040,1
DA:11041,1
DA:11042,0
DA:11044,1
DA:11045,1
DA:11046,1
DA:11047,3
DA:11048,3
DA:11049,1
DA:11053,0
DA:11055,0
DA:11056,0
DA:11058,0
DA:11059,0
DA:11061,0
DA:11062,0
DA:11064,0
DA:11065,0
DA:11067,0
DA:11068,0
DA:11070,1
DA:11071,0
DA:11072,0
DA:11073,0
DA:11074,0
DA:11075,0
DA:11076,0
DA:11077,0
DA:11079,0
DA:11081,0
DA:11082,0
DA:11083,0
DA:11084,0
DA:11087,0
DA:11088,0
DA:11090,1
DA:11091,1
DA:11092,1
DA:11093,1
DA:11094,1
DA:11095,1
DA:11096,0
DA:11097,3
DA:11098,1
DA:11100,1
DA:11101,1
DA:11102,1
DA:11103,1
DA:11105,0
DA:11108,0
DA:11110,1
DA:11111,1
DA:11112,0
DA:11113,0
DA:11114,0
DA:11120,1
DA:11122,2
DA:11140,0
DA:11144,0
DA:11145,0
DA:11152,0
DA:11156,0
DA:11161,0
DA:11163,0
DA:11166,0
DA:11169,0
DA:11170,0
DA:11171,0
DA:11172,0
DA:11178,0
DA:11180,0
DA:11182,0
DA:11183,0
DA:11187,0
DA:11188,0
DA:11191,0
DA:11193,0
DA:11194,0
DA:11195,0
DA:11196,0
DA:11198,0
DA:11199,0
DA:11200,0
DA:11201,0
DA:11202,0
DA:11203,0
DA:11204,0
DA:11206,0
DA:11207,0
DA:11208,0
DA:11209,0
DA:11210,0
DA:11211,0
DA:11212,0
DA:11215,0
DA:11216,0
DA:11217,0
DA:11218,0
DA:11219,0
DA:11221,0
DA:11222,0
DA:11223,0
DA:11224,0
DA:11225,0
DA:11227,0
DA:11228,0
DA:11229,0
DA:11231,0
DA:11232,0
DA:11233,0
DA:11234,0
DA:11235,0
DA:11236,0
DA:11237,0
DA:11238,0
DA:11239,0
DA:11240,0
DA:11242,0
DA:11243,0
DA:11246,0
DA:11247,0
DA:11249,0
DA:11250,0
DA:11251,0
DA:11253,0
DA:11254,0
DA:11258,0
DA:11259,0
DA:11261,0
DA:11263,0
DA:11264,0
DA:11265,0
DA:11266,0
DA:11269,0
DA:11270,0
DA:11272,0
DA:11273,0
DA:11275,0
DA:11278,0
DA:11279,0
DA:11280,0
DA:11282,0
DA:11283,0
DA:11284,0
DA:11285,0
DA:11286,0
DA:11287,0
DA:11288,0
DA:11291,0
DA:11292,0
DA:11294,0
DA:11296,0
DA:11298,0
DA:11299,0
DA:11300,0
DA:11301,0
DA:11303,0
DA:11304,0
DA:11305,0
DA:11307,0
DA:11308,0
DA:11310,0
DA:11311,0
DA:11312,0
DA:11313,0
DA:11314,0
DA:11315,0
DA:11316,0
DA:11317,0
DA:11318,0
DA:11321,0
DA:11322,0
DA:11324,0
DA:11325,0
DA:11327,0
DA:11328,0
DA:11330,0
DA:11331,0
DA:11340,0
DA:11341,0
DA:11344,0
DA:11346,0
DA:11347,0
DA:11349,0
DA:11350,0
DA:11351,0
DA:11352,0
DA:11353,0
DA:11354,0
DA:11356,0
DA:11357,0
DA:11359,0
DA:11369,0
DA:11370,1
DA:11378,0
DA:11379,0
DA:11380,0
DA:11382,0
DA:11383,0
DA:11386,0
DA:11387,0
DA:11390,0
DA:11391,0
DA:11392,0
DA:11393,0
DA:11395,0
DA:11396,0
DA:11397,0
DA:11398,0
DA:11399,0
DA:11400,0
DA:11401,0
DA:11402,0
DA:11404,0
DA:11405,0
DA:11406,0
DA:11407,0
DA:11409,0
DA:11410,0
DA:11411,0
DA:11412,0
DA:11414,0
DA:11415,0
DA:11416,0
DA:11417,0
DA:11419,0
DA:11420,0
DA:11421,0
DA:11422,0
DA:11424,0
DA:11425,0
DA:11426,0
DA:11427,0
DA:11430,0
DA:11431,0
DA:11432,0
DA:11433,0
DA:11434,0
DA:11437,0
DA:11438,0
DA:11439,0
DA:11440,0
DA:11442,0
DA:11443,0
DA:11444,0
DA:11445,0
DA:11447,0
DA:11448,0
DA:11449,0
DA:11450,0
DA:11452,0
DA:11453,0
DA:11454,0
DA:11455,0
DA:11457,0
DA:11458,0
DA:11459,0
DA:11460,0
DA:11462,0
DA:11463,0
DA:11480,0
DA:11482,0
DA:11484,0
DA:11485,0
DA:11489,0
DA:11490,0
DA:11493,0
DA:11494,0
DA:11497,0
DA:11499,0
DA:11500,0
DA:11501,0
DA:11505,0
DA:11506,0
DA:11507,0
DA:11509,0
DA:11510,0
DA:11511,0
DA:11512,0
DA:11513,0
DA:11514,0
DA:11515,0
DA:11516,0
DA:11517,0
DA:11519,0
DA:11520,0
DA:11521,0
DA:11522,0
DA:11523,0
DA:11525,0
DA:11526,0
DA:11527,0
DA:11528,0
DA:11529,0
DA:11530,0
DA:11532,0
DA:11534,0
DA:11535,0
DA:11536,0
DA:11537,0
DA:11539,0
DA:11540,0
DA:11541,0
DA:11542,0
DA:11543,0
DA:11544,0
DA:11545,0
DA:11546,0
DA:11548,0
DA:11550,0
DA:11552,0
DA:11554,0
DA:11556,0
DA:11558,0
DA:11560,0
DA:11561,0
DA:11562,0
DA:11563,0
DA:11564,0
DA:11565,0
DA:11566,0
DA:11572,0
DA:11573,0
DA:11576,0
DA:11577,0
DA:11578,0
DA:11579,0
DA:11581,0
DA:11583,0
DA:11584,0
DA:11585,0
DA:11586,0
DA:11590,0
DA:11592,0
DA:11593,0
DA:11594,0
DA:11595,0
DA:11596,0
DA:11598,0
DA:11599,0
DA:11600,0
DA:11601,0
DA:11602,0
DA:11604,0
DA:11605,0
DA:11606,0
DA:11609,0
DA:11611,0
DA:11612,0
DA:11613,0
DA:11614,0
DA:11615,0
DA:11617,0
DA:11620,0
DA:11621,0
DA:11623,0
DA:11626,0
DA:11627,0
DA:11628,0
DA:11629,0
DA:11630,0
DA:11631,0
DA:11632,0
DA:11634,0
DA:11635,0
DA:11637,0
DA:11639,0
DA:11641,0
DA:11642,0
DA:11643,0
DA:11644,0
DA:11646,0
DA:11647,0
DA:11649,0
DA:11650,0
DA:11651,0
DA:11652,0
DA:11654,0
DA:11655,0
DA:11657,0
DA:11658,0
DA:11660,0
DA:11661,0
DA:11662,0
DA:11663,0
DA:11664,0
DA:11665,0
DA:11667,0
DA:11668,0
DA:11669,0
DA:11670,0
DA:11671,0
DA:11672,0
DA:11673,0
DA:11674,0
DA:11682,0
DA:11683,1
DA:11693,1
DA:11713,1
DA:11716,1
DA:12006,3
LF:3906
LH:1239
end_of_record
SF:/usr/include/c++/5/bits/alloc_traits.h
FN:490,_ZNSt16allocator_traitsISaISt23_Sp_counted_ptr_inplaceIN5Catch5clara6detail12BoundFlagRefESaIS4_ELN9__gnu_cxx12_Lock_policyE2EEEE8allocateERS9_m
FN:490,_ZNSt16allocator_traitsISaISt13_Rb_tree_nodeIN5Catch9VerbosityEEEE8allocateERS4_m
FN:490,_ZNSt16allocator_traitsISaISt10shared_ptrIN5Catch16IReporterFactoryEEEE8allocateERS4_m
FN:490,_ZNSt16allocator_traitsISaISt23_Sp_counted_ptr_inplaceIN5Catch5clara6detail8BoundRefINSt7__cxx1112basic_stringIcSt11char_traitsIcESaIcEEEEESaISB_ELN9__gnu_cxx12_Lock_policyE2EEEE8allocateERSG_m
FN:490,_ZNSt16allocator_traitsISaISt23_Sp_counted_ptr_inplaceIN5Catch16TestCaseTracking14SectionTrackerESaIS3_ELN9__gnu_cxx12_Lock_policyE2EEEE8allocateERS8_m
FN:490,_ZNSt16allocator_traitsISaIPN5Catch16TestCaseTracking8ITrackerEEE8allocateERS4_m
FN:490,_ZNSt16allocator_traitsISaISt23_Sp_counted_ptr_inplaceIN5Catch22CumulativeReporterBaseINS1_13JunitReporterEE4NodeINS1_14TestGroupStatsENS5_INS1_13TestCaseStatsENS4_11SectionNodeEEEEESaISA_ELN9__gnu_cxx12_Lock_policyE2EEEE8allocateERSF_m
FN:490,_ZNSt16allocator_traitsISaIN5Catch5clara8TextFlow6Column8iteratorEEE8allocateERS5_m
FN:490,_ZNSt16allocator_traitsISaISt10shared_ptrIN5Catch16TestCaseTracking8ITrackerEEEE8allocateERS5_m
FN:490,_ZNSt16allocator_traitsISaISt23_Sp_counted_ptr_inplaceIN5Catch8TestSpec10TagPatternESaIS3_ELN9__gnu_cxx12_Lock_policyE2EEEE8allocateERS8_m
FN:490,_ZNSt16allocator_traitsISaIN5Catch15ConsoleReporter13SummaryColumnEEE8allocateERS3_m
FN:490,_ZNSt16allocator_traitsISaIN5Catch11MessageInfoEEE8allocateERS2_m
FN:490,_ZNSt16allocator_traitsISaIN5Catch12_GLOBAL__N_110ColumnInfoEEE8allocateERS3_m
FN:490,_ZNSt16allocator_traitsISaISt23_Sp_counted_ptr_inplaceIN5Catch16TestCaseTracking12IndexTrackerESaIS3_ELN9__gnu_cxx12_Lock_policyE2EEEE8allocateERS8_m
FN:490,_ZNSt16allocator_traitsISaISt23_Sp_counted_ptr_inplaceIN5Catch5clara6detail11BoundLambdaIZNS1_21makeCommandLineParserERNS1_10ConfigDataEEUlbE8_EESaIS8_ELN9__gnu_cxx12_Lock_policyE2EEEE8allocateERSD_m
FN:490,_ZNSt16allocator_traitsISaISt10unique_ptrIKN5Catch20IExceptionTranslatorESt14default_deleteIS3_EEEE8allocateERS7_m
FN:490,_ZNSt16allocator_traitsISaISt23_Sp_counted_ptr_inplaceIN5Catch5clara6detail11BoundLambdaIZNS1_21makeCommandLineParserERNS1_10ConfigDataEEUlRKNSt7__cxx1112basic_stringIcSt11char_traitsIcESaIcEEEE5_EESaISG_ELN9__gnu_cxx12_Lock_policyE2EEEE8allocateERSL_m
FN:490,_ZNSt16allocator_traitsISaIN5Catch11SectionInfoEEE8allocateERS2_m
FN:490,_ZNSt16allocator_traitsISaISt23_Sp_counted_ptr_inplaceIN5Catch17ReporterRegistrarINS1_11XmlReporterEE15ReporterFactoryESaIS5_ELN9__gnu_cxx12_Lock_policyE2EEEE8allocateERSA_m
FN:490,_ZNSt16allocator_traitsISaISt10shared_ptrIN5Catch22CumulativeReporterBaseINS1_13JunitReporterEE4NodeINS1_12TestRunStatsENS5_INS1_14TestGroupStatsENS5_INS1_13TestCaseStatsENS4_11SectionNodeEEEEEEEEEE8allocateERSE_m
FN:490,_ZNSt16allocator_traitsISaISt13_Rb_tree_nodeISt4pairIKNSt7__cxx1112basic_stringIcSt11char_traitsIcESaIcEEEN5Catch7TagInfoEEEEE8allocateERSD_m
FN:490,_ZNSt16allocator_traitsISaISt23_Sp_counted_ptr_inplaceIN5Catch22CumulativeReporterBaseINS1_13JunitReporterEE11SectionNodeESaIS5_ELN9__gnu_cxx12_Lock_policyE2EEEE8allocateERSA_m
FN:490,_ZNSt16allocator_traitsISaISt23_Sp_counted_ptr_inplaceIN5Catch5clara6detail15BoundFlagLambdaIZNS3_4HelpC4ERbEUlbE_EESaIS8_ELN9__gnu_cxx12_Lock_policyE2EEEE8allocateERSD_m
FN:490,_ZNSt16allocator_traitsISaISt23_Sp_counted_ptr_inplaceIN5Catch8TestSpec15ExcludedPatternESaIS3_ELN9__gnu_cxx12_Lock_policyE2EEEE8allocateERS8_m
FN:490,_ZNSt16allocator_traitsISaISt23_Sp_counted_ptr_inplaceIN5Catch22CumulativeReporterBaseINS1_13JunitReporterEE4NodeINS1_12TestRunStatsENS5_INS1_14TestGroupStatsENS5_INS1_13TestCaseStatsENS4_11SectionNodeEEEEEEESaISC_ELN9__gnu_cxx12_Lock_policyE2EEEE8allocateERSH_m
FN:490,_ZNSt16allocator_traitsISaISt23_Sp_counted_ptr_inplaceIN5Catch5clara6detail11BoundLambdaIZNS1_21makeCommandLineParserERNS1_10ConfigDataEEUlRKNSt7__cxx1112basic_stringIcSt11char_traitsIcESaIcEEEE0_EESaISG_ELN9__gnu_cxx12_Lock_policyE2EEEE8allocateERSL_m
FN:490,_ZNSt16allocator_traitsISaISt23_Sp_counted_ptr_inplaceIN5Catch5clara6detail11BoundLambdaIZNS1_21makeCommandLineParserERNS1_10ConfigDataEEUlRKNSt7__cxx1112basic_stringIcSt11char_traitsIcESaIcEEEE4_EESaISG_ELN9__gnu_cxx12_Lock_policyE2EEEE8allocateERSL_m
FN:490,_ZNSt16allocator_traitsISaISt10shared_ptrIN5Catch22CumulativeReporterBaseINS1_13JunitReporterEE4NodeINS1_14TestGroupStatsENS5_INS1_13TestCaseStatsENS4_11SectionNodeEEEEEEEE8allocateERSC_m
FN:490,_ZNSt16allocator_traitsISaISt23_Sp_counted_ptr_inplaceIN5Catch5clara6detail8BoundRefISt6vectorINSt7__cxx1112basic_stringIcSt11char_traitsIcESaIcEEESaISB_EEEESaISE_ELN9__gnu_cxx12_Lock_policyE2EEEE8allocateERSJ_m
FN:490,_ZNSt16allocator_traitsISaISt13_Rb_tree_nodeIN5Catch8TestCaseEEEE8allocateERS4_m
FN:490,_ZNSt16allocator_traitsISaIN5Catch14AssertionStatsEEE8allocateERS2_m
FN:490,_ZNSt16allocator_traitsISaISt23_Sp_counted_ptr_inplaceIN5Catch6ConfigESaIS2_ELN9__gnu_cxx12_Lock_policyE2EEEE8allocateERS7_m
FN:490,_ZNSt16allocator_traitsISaISt23_Sp_counted_ptr_inplaceIN5Catch5clara6detail8BoundRefIiEESaIS5_ELN9__gnu_cxx12_Lock_policyE2EEEE8allocateERSA_m
FN:490,_ZNSt16allocator_traitsISaIN5Catch5clara6detail11HelpColumnsEEE8allocateERS4_m
FN:490,_ZNSt16allocator_traitsISaISt10shared_ptrIN5Catch8TestSpec7PatternEEEE8allocateERS5_m
FN:490,_ZNSt16allocator_traitsISaISt10shared_ptrIN5Catch22CumulativeReporterBaseINS1_13JunitReporterEE4NodeINS1_13TestCaseStatsENS4_11SectionNodeEEEEEE8allocateERSA_m
FN:490,_ZNSt16allocator_traitsISaISt23_Sp_counted_ptr_inplaceIN5Catch8TestSpec11NamePatternESaIS3_ELN9__gnu_cxx12_Lock_policyE2EEEE8allocateERS8_m
FN:490,_ZNSt16allocator_traitsISaISt23_Sp_counted_ptr_inplaceIN5Catch22CumulativeReporterBaseINS1_13JunitReporterEE4NodeINS1_13TestCaseStatsENS4_11SectionNodeEEESaIS8_ELN9__gnu_cxx12_Lock_policyE2EEEE8allocateERSD_m
FN:490,_ZNSt16allocator_traitsISaISt23_Sp_counted_ptr_inplaceIN5Catch5clara6detail11BoundLambdaIZNS1_21makeCommandLineParserERNS1_10ConfigDataEEUlRKNSt7__cxx1112basic_stringIcSt11char_traitsIcESaIcEEEE2_EESaISG_ELN9__gnu_cxx12_Lock_policyE2EEEE8allocateERSL_m
FN:490,_ZNSt16allocator_traitsISaISt23_Sp_counted_ptr_inplaceIN5Catch5clara6detail11BoundLambdaIZNS1_21makeCommandLineParserERNS1_10ConfigDataEEUlRKNSt7__cxx1112basic_stringIcSt11char_traitsIcESaIcEEEE_EESaISG_ELN9__gnu_cxx12_Lock_policyE2EEEE8allocateERSL_m
FN:490,_ZNSt16allocator_traitsISaISt13_Rb_tree_nodeISt4pairIKNSt7__cxx1112basic_stringIcSt11char_traitsIcESaIcEEEN5Catch8TagAliasEEEEE8allocateERSD_m
FN:490,_ZNSt16allocator_traitsISaISt13_Rb_tree_nodeINSt7__cxx1112basic_stringIcSt11char_traitsIcESaIcEEEEEE8allocateERS8_m
FN:490,_ZNSt16allocator_traitsISaIN5Catch14SectionEndInfoEEE8allocateERS2_m
FN:490,_ZNSt16allocator_traitsISaISt23_Sp_counted_ptr_inplaceIN5Catch5clara6detail11BoundLambdaIZNS1_21makeCommandLineParserERNS1_10ConfigDataEEUlRKNSt7__cxx1112basic_stringIcSt11char_traitsIcESaIcEEEE1_EESaISG_ELN9__gnu_cxx12_Lock_policyE2EEEE8allocateERSL_m
FN:490,_ZNSt16allocator_traitsISaISt23_Sp_counted_ptr_inplaceIN5Catch5clara6detail11BoundLambdaIZNS1_21makeCommandLineParserERNS1_10ConfigDataEEUlRKNSt7__cxx1112basic_stringIcSt11char_traitsIcESaIcEEEE3_EESaISG_ELN9__gnu_cxx12_Lock_policyE2EEEE8allocateERSL_m
FN:490,_ZNSt16allocator_traitsISaIN5Catch5clara6detail5TokenEEE8allocateERS4_m
FN:490,_ZNSt16allocator_traitsISaIN5Catch8TestSpec6FilterEEE8allocateERS3_m
FN:490,_ZNSt16allocator_traitsISaImEE8allocateERS0_m
FN:490,_ZNSt16allocator_traitsISaIN5Catch5clara8TextFlow6ColumnEEE8allocateERS4_m
FN:490,_ZNSt16allocator_traitsISaISt23_Sp_counted_ptr_inplaceIN5Catch17ReporterRegistrarINS1_15CompactReporterEE15ReporterFactoryESaIS5_ELN9__gnu_cxx12_Lock_policyE2EEEE8allocateERSA_m
FN:490,_ZNSt16allocator_traitsISaINSt15__exception_ptr13exception_ptrEEE8allocateERS2_m
FN:490,_ZNSt16allocator_traitsISaISt23_Sp_counted_ptr_inplaceIN5Catch17ReporterRegistrarINS1_13JunitReporterEE15ReporterFactoryESaIS5_ELN9__gnu_cxx12_Lock_policyE2EEEE8allocateERSA_m
FN:490,_ZNSt16allocator_traitsISaISt10shared_ptrIN5Catch22CumulativeReporterBaseINS1_13JunitReporterEE11SectionNodeEEEE8allocateERS7_m
FN:490,_ZNSt16allocator_traitsISaISt23_Sp_counted_ptr_inplaceIN5Catch5clara6detail15BoundFlagLambdaIZNS1_21makeCommandLineParserERNS1_10ConfigDataEEUlbE6_EESaIS8_ELN9__gnu_cxx12_Lock_policyE2EEEE8allocateERSD_m
FN:490,_ZNSt16allocator_traitsISaIN5Catch8TestCaseEEE8allocateERS2_m
FN:490,_ZNSt16allocator_traitsISaINSt7__cxx1112basic_stringIcSt11char_traitsIcESaIcEEEEE8allocateERS6_m
FN:490,_ZNSt16allocator_traitsISaISt10unique_ptrIN5Catch18IStreamingReporterESt14default_deleteIS2_EEEE8allocateERS6_m
FN:490,_ZNSt16allocator_traitsISaISt13_Rb_tree_nodeISt4pairIKNSt7__cxx1112basic_stringIcSt11char_traitsIcESaIcEEESt10shared_ptrIN5Catch16IReporterFactoryEEEEEE8allocateERSF_m
FN:490,_ZNSt16allocator_traitsISaISt23_Sp_counted_ptr_inplaceIN5Catch17ReporterRegistrarINS1_15ConsoleReporterEE15ReporterFactoryESaIS5_ELN9__gnu_cxx12_Lock_policyE2EEEE8allocateERSA_m
FN:490,_ZNSt16allocator_traitsISaIN5Catch5clara6detail3OptEEE8allocateERS4_m
FN:490,_ZNSt16allocator_traitsISaIN5Catch5clara6detail3ArgEEE8allocateERS4_m
FN:490,_ZNSt16allocator_traitsISaISt23_Sp_counted_ptr_inplaceINSt7__cxx1112basic_stringIcSt11char_traitsIcESaIcEEESaIS6_ELN9__gnu_cxx12_Lock_policyE2EEEE8allocateERSB_m
FN:490,_ZNSt16allocator_traitsISaISt23_Sp_counted_ptr_inplaceIN5Catch5clara6detail11BoundLambdaIZNS1_21makeCommandLineParserERNS1_10ConfigDataEEUliE7_EESaIS8_ELN9__gnu_cxx12_Lock_policyE2EEEE8allocateERSD_m
FN:516,_ZNSt16allocator_traitsISaISt10shared_ptrIN5Catch16TestCaseTracking8ITrackerEEEE10deallocateERS5_PS4_m
FN:516,_ZNSt16allocator_traitsISaIN5Catch5clara6detail3ArgEEE10deallocateERS4_PS3_m
FN:516,_ZNSt16allocator_traitsISaIN5Catch8TestSpec6FilterEEE10deallocateERS3_PS2_m
FN:516,_ZNSt16allocator_traitsISaISt23_Sp_counted_ptr_inplaceIN5Catch5clara6detail11BoundLambdaIZNS1_21makeCommandLineParserERNS1_10ConfigDataEEUlRKNSt7__cxx1112basic_stringIcSt11char_traitsIcESaIcEEEE4_EESaISG_ELN9__gnu_cxx12_Lock_policyE2EEEE10deallocateERSL_PSK_m
FN:516,_ZNSt16allocator_traitsISaISt23_Sp_counted_ptr_inplaceIN5Catch5clara6detail12BoundFlagRefESaIS4_ELN9__gnu_cxx12_Lock_policyE2EEEE10deallocateERS9_PS8_m
FN:516,_ZNSt16allocator_traitsISaISt23_Sp_counted_ptr_inplaceIN5Catch22CumulativeReporterBaseINS1_13JunitReporterEE4NodeINS1_12TestRunStatsENS5_INS1_14TestGroupStatsENS5_INS1_13TestCaseStatsENS4_11SectionNodeEEEEEEESaISC_ELN9__gnu_cxx12_Lock_policyE2EEEE10deallocateERSH_PSG_m
FN:516,_ZNSt16allocator_traitsISaISt23_Sp_counted_ptr_inplaceIN5Catch17ReporterRegistrarINS1_11XmlReporterEE15ReporterFactoryESaIS5_ELN9__gnu_cxx12_Lock_policyE2EEEE10deallocateERSA_PS9_m
FN:516,_ZNSt16allocator_traitsISaISt23_Sp_counted_ptr_inplaceIN5Catch8TestSpec10TagPatternESaIS3_ELN9__gnu_cxx12_Lock_policyE2EEEE10deallocateERS8_PS7_m
FN:516,_ZNSt16allocator_traitsISaISt10shared_ptrIN5Catch22CumulativeReporterBaseINS1_13JunitReporterEE11SectionNodeEEEE10deallocateERS7_PS6_m
FN:516,_ZNSt16allocator_traitsISaINSt15__exception_ptr13exception_ptrEEE10deallocateERS2_PS1_m
FN:516,_ZNSt16allocator_traitsISaISt23_Sp_counted_ptr_inplaceIN5Catch5clara6detail11BoundLambdaIZNS1_21makeCommandLineParserERNS1_10ConfigDataEEUlRKNSt7__cxx1112basic_stringIcSt11char_traitsIcESaIcEEEE0_EESaISG_ELN9__gnu_cxx12_Lock_policyE2EEEE10deallocateERSL_PSK_m
FN:516,_ZNSt16allocator_traitsISaISt23_Sp_counted_ptr_inplaceIN5Catch22CumulativeReporterBaseINS1_13JunitReporterEE4NodeINS1_14TestGroupStatsENS5_INS1_13TestCaseStatsENS4_11SectionNodeEEEEESaISA_ELN9__gnu_cxx12_Lock_policyE2EEEE10deallocateERSF_PSE_m
FN:516,_ZNSt16allocator_traitsISaISt23_Sp_counted_ptr_inplaceIN5Catch8TestSpec11NamePatternESaIS3_ELN9__gnu_cxx12_Lock_policyE2EEEE10deallocateERS8_PS7_m
FN:516,_ZNSt16allocator_traitsISaISt10shared_ptrIN5Catch22CumulativeReporterBaseINS1_13JunitReporterEE4NodeINS1_14TestGroupStatsENS5_INS1_13TestCaseStatsENS4_11SectionNodeEEEEEEEE10deallocateERSC_PSB_m
FN:516,_ZNSt16allocator_traitsISaISt23_Sp_counted_ptr_inplaceIN5Catch5clara6detail11BoundLambdaIZNS1_21makeCommandLineParserERNS1_10ConfigDataEEUliE7_EESaIS8_ELN9__gnu_cxx12_Lock_policyE2EEEE10deallocateERSD_PSC_m
FN:516,_ZNSt16allocator_traitsISaISt13_Rb_tree_nodeISt4pairIKNSt7__cxx1112basic_stringIcSt11char_traitsIcESaIcEEEN5Catch8TagAliasEEEEE10deallocateERSD_PSC_m
FN:516,_ZNSt16allocator_traitsISaISt10unique_ptrIKN5Catch20IExceptionTranslatorESt14default_deleteIS3_EEEE10deallocateERS7_PS6_m
FN:516,_ZNSt16allocator_traitsISaISt23_Sp_counted_ptr_inplaceIN5Catch22CumulativeReporterBaseINS1_13JunitReporterEE4NodeINS1_13TestCaseStatsENS4_11SectionNodeEEESaIS8_ELN9__gnu_cxx12_Lock_policyE2EEEE10deallocateERSD_PSC_m
FN:516,_ZNSt16allocator_traitsISaISt10unique_ptrIN5Catch18IStreamingReporterESt14default_deleteIS2_EEEE10deallocateERS6_PS5_m
FN:516,_ZNSt16allocator_traitsISaISt10shared_ptrIN5Catch22CumulativeReporterBaseINS1_13JunitReporterEE4NodeINS1_12TestRunStatsENS5_INS1_14TestGroupStatsENS5_INS1_13TestCaseStatsENS4_11SectionNodeEEEEEEEEEE10deallocateERSE_PSD_m
FN:516,_ZNSt16allocator_traitsISaIN5Catch11MessageInfoEEE10deallocateERS2_PS1_m
FN:516,_ZNSt16allocator_traitsISaISt23_Sp_counted_ptr_inplaceIN5Catch5clara6detail15BoundFlagLambdaIZNS3_4HelpC4ERbEUlbE_EESaIS8_ELN9__gnu_cxx12_Lock_policyE2EEEE10deallocateERSD_PSC_m
FN:516,_ZNSt16allocator_traitsISaIN5Catch14SectionEndInfoEEE10deallocateERS2_PS1_m
FN:516,_ZNSt16allocator_traitsISaISt23_Sp_counted_ptr_inplaceIN5Catch22CumulativeReporterBaseINS1_13JunitReporterEE11SectionNodeESaIS5_ELN9__gnu_cxx12_Lock_policyE2EEEE10deallocateERSA_PS9_m
FN:516,_ZNSt16allocator_traitsISaISt23_Sp_counted_ptr_inplaceIN5Catch5clara6detail11BoundLambdaIZNS1_21makeCommandLineParserERNS1_10ConfigDataEEUlRKNSt7__cxx1112basic_stringIcSt11char_traitsIcESaIcEEEE3_EESaISG_ELN9__gnu_cxx12_Lock_policyE2EEEE10deallocateERSL_PSK_m
FN:516,_ZNSt16allocator_traitsISaISt23_Sp_counted_ptr_inplaceIN5Catch5clara6detail15BoundFlagLambdaIZNS1_21makeCommandLineParserERNS1_10ConfigDataEEUlbE6_EESaIS8_ELN9__gnu_cxx12_Lock_policyE2EEEE10deallocateERSD_PSC_m
FN:516,_ZNSt16allocator_traitsISaIN5Catch5clara8TextFlow6Column8iteratorEEE10deallocateERS5_PS4_m
FN:516,_ZNSt16allocator_traitsISaISt23_Sp_counted_ptr_inplaceIN5Catch17ReporterRegistrarINS1_13JunitReporterEE15ReporterFactoryESaIS5_ELN9__gnu_cxx12_Lock_policyE2EEEE10deallocateERSA_PS9_m
FN:516,_ZNSt16allocator_traitsISaISt23_Sp_counted_ptr_inplaceIN5Catch5clara6detail11BoundLambdaIZNS1_21makeCommandLineParserERNS1_10ConfigDataEEUlbE8_EESaIS8_ELN9__gnu_cxx12_Lock_policyE2EEEE10deallocateERSD_PSC_m
FN:516,_ZNSt16allocator_traitsISaISt6vectorISt10shared_ptrIN5Catch22CumulativeReporterBaseINS2_13JunitReporterEE11SectionNodeEESaIS7_EEEE10deallocateERSA_PS9_m
FN:516,_ZNSt16allocator_traitsISaISt13_Rb_tree_nodeISt4pairIKNSt7__cxx1112basic_stringIcSt11char_traitsIcESaIcEEESt10shared_ptrIN5Catch16IReporterFactoryEEEEEE10deallocateERSF_PSE_m
FN:516,_ZNSt16allocator_traitsISaIN5Catch8TestCaseEEE10deallocateERS2_PS1_m
FN:516,_ZNSt16allocator_traitsISaISt10shared_ptrIN5Catch16IReporterFactoryEEEE10deallocateERS4_PS3_m
FN:516,_ZNSt16allocator_traitsISaISt23_Sp_counted_ptr_inplaceIN5Catch6ConfigESaIS2_ELN9__gnu_cxx12_Lock_policyE2EEEE10deallocateERS7_PS6_m
FN:516,_ZNSt16allocator_traitsISaISt13_Rb_tree_nodeIN5Catch9VerbosityEEEE10deallocateERS4_PS3_m
FN:516,_ZNSt16allocator_traitsISaINSt7__cxx1112basic_stringIcSt11char_traitsIcESaIcEEEEE10deallocateERS6_PS5_m
FN:516,_ZNSt16allocator_traitsISaISt23_Sp_counted_ptr_inplaceIN5Catch5clara6detail8BoundRefINSt7__cxx1112basic_stringIcSt11char_traitsIcESaIcEEEEESaISB_ELN9__gnu_cxx12_Lock_policyE2EEEE10deallocateERSG_PSF_m
FN:516,_ZNSt16allocator_traitsISaISt13_Rb_tree_nodeISt4pairIKNSt7__cxx1112basic_stringIcSt11char_traitsIcESaIcEEEN5Catch7TagInfoEEEEE10deallocateERSD_PSC_m
FN:516,_ZNSt16allocator_traitsISaISt23_Sp_counted_ptr_inplaceIN5Catch8TestSpec15ExcludedPatternESaIS3_ELN9__gnu_cxx12_Lock_policyE2EEEE10deallocateERS8_PS7_m
FN:516,_ZNSt16allocator_traitsISaIN5Catch15ConsoleReporter13SummaryColumnEEE10deallocateERS3_PS2_m
FN:516,_ZNSt16allocator_traitsISaIN5Catch5clara8TextFlow6ColumnEEE10deallocateERS4_PS3_m
FN:516,_ZNSt16allocator_traitsISaISt10shared_ptrIN5Catch22CumulativeReporterBaseINS1_13JunitReporterEE4NodeINS1_13TestCaseStatsENS4_11SectionNodeEEEEEE10deallocateERSA_PS9_m
FN:516,_ZNSt16allocator_traitsISaISt23_Sp_counted_ptr_inplaceIN5Catch17ReporterRegistrarINS1_15ConsoleReporterEE15ReporterFactoryESaIS5_ELN9__gnu_cxx12_Lock_policyE2EEEE10deallocateERSA_PS9_m
FN:516,_ZNSt16allocator_traitsISaISt23_Sp_counted_ptr_inplaceIN5Catch5clara6detail11BoundLambdaIZNS1_21makeCommandLineParserERNS1_10ConfigDataEEUlRKNSt7__cxx1112basic_stringIcSt11char_traitsIcESaIcEEEE1_EESaISG_ELN9__gnu_cxx12_Lock_policyE2EEEE10deallocateERSL_PSK_m
FN:516,_ZNSt16allocator_traitsISaISt13_Rb_tree_nodeINSt7__cxx1112basic_stringIcSt11char_traitsIcESaIcEEEEEE10deallocateERS8_PS7_m
FN:516,_ZNSt16allocator_traitsISaISt23_Sp_counted_ptr_inplaceIN5Catch5clara6detail11BoundLambdaIZNS1_21makeCommandLineParserERNS1_10ConfigDataEEUlRKNSt7__cxx1112basic_stringIcSt11char_traitsIcESaIcEEEE2_EESaISG_ELN9__gnu_cxx12_Lock_policyE2EEEE10deallocateERSL_PSK_m
FN:516,_ZNSt16allocator_traitsISaIN5Catch12_GLOBAL__N_110ColumnInfoEEE10deallocateERS3_PS2_m
FN:516,_ZNSt16allocator_traitsISaIN5Catch5clara6detail3OptEEE10deallocateERS4_PS3_m
FN:516,_ZNSt16allocator_traitsISaISt23_Sp_counted_ptr_inplaceINSt7__cxx1112basic_stringIcSt11char_traitsIcESaIcEEESaIS6_ELN9__gnu_cxx12_Lock_policyE2EEEE10deallocateERSB_PSA_m
FN:516,_ZNSt16allocator_traitsISaISt13_Rb_tree_nodeIN5Catch8TestCaseEEEE10deallocateERS4_PS3_m
FN:516,_ZNSt16allocator_traitsISaISt23_Sp_counted_ptr_inplaceIN5Catch5clara6detail11BoundLambdaIZNS1_21makeCommandLineParserERNS1_10ConfigDataEEUlRKNSt7__cxx1112basic_stringIcSt11char_traitsIcESaIcEEEE_EESaISG_ELN9__gnu_cxx12_Lock_policyE2EEEE10deallocateERSL_PSK_m
FN:516,_ZNSt16allocator_traitsISaIN5Catch11SectionInfoEEE10deallocateERS2_PS1_m
FN:516,_ZNSt16allocator_traitsISaIN5Catch14AssertionStatsEEE10deallocateERS2_PS1_m
FN:516,_ZNSt16allocator_traitsISaIPN5Catch16TestCaseTracking8ITrackerEEE10deallocateERS4_PS3_m
FN:516,_ZNSt16allocator_traitsISaISt23_Sp_counted_ptr_inplaceIN5Catch5clara6detail8BoundRefISt6vectorINSt7__cxx1112basic_stringIcSt11char_traitsIcESaIcEEESaISB_EEEESaISE_ELN9__gnu_cxx12_Lock_policyE2EEEE10deallocateERSJ_PSI_m
FN:516,_ZNSt16allocator_traitsISaIN5Catch5clara6detail11HelpColumnsEEE10deallocateERS4_PS3_m
FN:516,_ZNSt16allocator_traitsISaISt23_Sp_counted_ptr_inplaceIN5Catch5clara6detail11BoundLambdaIZNS1_21makeCommandLineParserERNS1_10ConfigDataEEUlRKNSt7__cxx1112basic_stringIcSt11char_traitsIcESaIcEEEE5_EESaISG_ELN9__gnu_cxx12_Lock_policyE2EEEE10deallocateERSL_PSK_m
FN:516,_ZNSt16allocator_traitsISaISt23_Sp_counted_ptr_inplaceIN5Catch17ReporterRegistrarINS1_15CompactReporterEE15ReporterFactoryESaIS5_ELN9__gnu_cxx12_Lock_policyE2EEEE10deallocateERSA_PS9_m
FN:516,_ZNSt16allocator_traitsISaISt23_Sp_counted_ptr_inplaceIN5Catch16TestCaseTracking12IndexTrackerESaIS3_ELN9__gnu_cxx12_Lock_policyE2EEEE10deallocateERS8_PS7_m
FN:516,_ZNSt16allocator_traitsISaImEE10deallocateERS0_Pmm
FN:516,_ZNSt16allocator_traitsISaIN5Catch5clara6detail5TokenEEE10deallocateERS4_PS3_m
FN:516,_ZNSt16allocator_traitsISaISt23_Sp_counted_ptr_inplaceIN5Catch16TestCaseTracking14SectionTrackerESaIS3_ELN9__gnu_cxx12_Lock_policyE2EEEE10deallocateERS8_PS7_m
FN:516,_ZNSt16allocator_traitsISaISt10shared_ptrIN5Catch8TestSpec7PatternEEEE10deallocateERS5_PS4_m
FN:516,_ZNSt16allocator_traitsISaISt23_Sp_counted_ptr_inplaceIN5Catch5clara6detail8BoundRefIiEESaIS5_ELN9__gnu_cxx12_Lock_policyE2EEEE10deallocateERSA_PS9_m
FN:529,_ZNSt16allocator_traitsISaIN5Catch17ReporterRegistrarINS0_15ConsoleReporterEE15ReporterFactoryEEE9constructIS4_JEEEvRS5_PT_DpOT0_
FN:529,_ZNSt16allocator_traitsISaISt10unique_ptrIKN5Catch20IExceptionTranslatorESt14default_deleteIS3_EEEE9constructIS6_JS6_EEEvRS7_PT_DpOT0_
FN:529,_ZNSt16allocator_traitsISaIN5Catch5clara6detail3ArgEEE9constructIS3_JRKS3_EEEvRS4_PT_DpOT0_
FN:529,_ZNSt16allocator_traitsISaIN5Catch16TestCaseTracking14SectionTrackerEEE9constructIS2_JNS1_15NameAndLocationERNS1_14TrackerContextEDnEEEvRS3_PT_DpOT0_
FN:529,_ZNSt16allocator_traitsISaIN5Catch5clara6detail11BoundLambdaIZNS0_21makeCommandLineParserERNS0_10ConfigDataEEUlRKNSt7__cxx1112basic_stringIcSt11char_traitsIcESaIcEEEE5_EEEE9constructISF_JRKSE_EEEvRSG_PT_DpOT0_
FN:529,_ZNSt16allocator_traitsISaISt13_Rb_tree_nodeISt4pairIKNSt7__cxx1112basic_stringIcSt11char_traitsIcESaIcEEESt10shared_ptrIN5Catch16IReporterFactoryEEEEEE9constructISD_JRS8_RKSC_EEEvRSF_PT_DpOT0_
FN:529,_ZNSt16allocator_traitsISaIN5Catch5clara6detail15BoundFlagLambdaIZNS2_4HelpC4ERbEUlbE_EEEE9constructIS7_JRKS6_EEEvRS8_PT_DpOT0_
FN:529,_ZNSt16allocator_traitsISaIN5Catch5clara6detail11BoundLambdaIZNS0_21makeCommandLineParserERNS0_10ConfigDataEEUlRKNSt7__cxx1112basic_stringIcSt11char_traitsIcESaIcEEEE1_EEEE9constructISF_JRKSE_EEEvRSG_PT_DpOT0_
FN:529,_ZNSt16allocator_traitsISaISt10shared_ptrIN5Catch22CumulativeReporterBaseINS1_13JunitReporterEE4NodeINS1_12TestRunStatsENS5_INS1_14TestGroupStatsENS5_INS1_13TestCaseStatsENS4_11SectionNodeEEEEEEEEEE9constructISD_JRKSD_EEEvRSE_PT_DpOT0_
FN:529,_ZNSt16allocator_traitsISaIN5Catch11SectionInfoEEE9constructIS1_JRKS1_EEEvRS2_PT_DpOT0_
FN:529,_ZNSt16allocator_traitsISaIN5Catch8TestCaseEEE9constructIS1_JRKS1_EEEvRS2_PT_DpOT0_
FN:529,_ZNSt16allocator_traitsISaISt10shared_ptrIN5Catch16IReporterFactoryEEEE9constructIS3_JRKS3_EEEvRS4_PT_DpOT0_
FN:529,_ZNSt16allocator_traitsISaIN5Catch5clara8TextFlow6Column8iteratorEEE9constructIS4_JS4_EEEvRS5_PT_DpOT0_
FN:529,_ZNSt16allocator_traitsISaIN5Catch14AssertionStatsEEE9constructIS1_JRKS1_EEEvRS2_PT_DpOT0_
FN:529,_ZNSt16allocator_traitsISaISt13_Rb_tree_nodeIN5Catch8TestCaseEEEE9constructIS2_JRKS2_EEEvRS4_PT_DpOT0_
FN:529,_ZNSt16allocator_traitsISaIN5Catch14SectionEndInfoEEE9constructIS1_JRKS1_EEEvRS2_PT_DpOT0_
FN:529,_ZNSt16allocator_traitsISaIN5Catch5clara6detail11BoundLambdaIZNS0_21makeCommandLineParserERNS0_10ConfigDataEEUlRKNSt7__cxx1112basic_stringIcSt11char_traitsIcESaIcEEEE2_EEEE9constructISF_JRKSE_EEEvRSG_PT_DpOT0_
FN:529,_ZNSt16allocator_traitsISaISt10shared_ptrIN5Catch16TestCaseTracking8ITrackerEEEE9constructIS4_JRKS4_EEEvRS5_PT_DpOT0_
FN:529,_ZNSt16allocator_traitsISaIN5Catch5clara6detail11BoundLambdaIZNS0_21makeCommandLineParserERNS0_10ConfigDataEEUlRKNSt7__cxx1112basic_stringIcSt11char_traitsIcESaIcEEEE_EEEE9constructISF_JRKSE_EEEvRSG_PT_DpOT0_
FN:529,_ZNSt16allocator_traitsISaIN5Catch5clara6detail11BoundLambdaIZNS0_21makeCommandLineParserERNS0_10ConfigDataEEUlRKNSt7__cxx1112basic_stringIcSt11char_traitsIcESaIcEEEE4_EEEE9constructISF_JRKSE_EEEvRSG_PT_DpOT0_
FN:529,_ZNSt16allocator_traitsISaISt13_Rb_tree_nodeISt4pairIKNSt7__cxx1112basic_stringIcSt11char_traitsIcESaIcEEEN5Catch7TagInfoEEEEE9constructISB_JS1_IS7_SA_EEEEvRSD_PT_DpOT0_
FN:529,_ZNSt16allocator_traitsISaINSt7__cxx1112basic_stringIcSt11char_traitsIcESaIcEEEEE9constructIS5_JRA13_KcEEEvRS6_PT_DpOT0_
FN:529,_ZNSt16allocator_traitsISaISt10unique_ptrIN5Catch18IStreamingReporterESt14default_deleteIS2_EEEE9constructIS5_JS5_EEEvRS6_PT_DpOT0_
FN:529,_ZNSt16allocator_traitsISaIN5Catch5clara6detail5TokenEEE9constructIS3_JS3_EEEvRS4_PT_DpOT0_
FN:529,_ZNSt16allocator_traitsISaIN5Catch17ReporterRegistrarINS0_11XmlReporterEE15ReporterFactoryEEE9constructIS4_JEEEvRS5_PT_DpOT0_
FN:529,_ZNSt16allocator_traitsISaIN5Catch5clara8TextFlow6ColumnEEE9constructIS3_JRKS3_EEEvRS4_PT_DpOT0_
FN:529,_ZNSt16allocator_traitsISaIN5Catch5clara6detail12BoundFlagRefEEE9constructIS3_JRbEEEvRS4_PT_DpOT0_
FN:529,_ZNSt16allocator_traitsISaISt10shared_ptrIN5Catch22CumulativeReporterBaseINS1_13JunitReporterEE4NodeINS1_13TestCaseStatsENS4_11SectionNodeEEEEEE9constructIS9_JRKS9_EEEvRSA_PT_DpOT0_
FN:529,_ZNSt16allocator_traitsISaIN5Catch15ConsoleReporter13SummaryColumnEEE9constructIS2_JS2_EEEvRS3_PT_DpOT0_
FN:529,_ZNSt16allocator_traitsISaIN5Catch5clara6detail8BoundRefIiEEEE9constructIS4_JRiEEEvRS5_PT_DpOT0_
FN:529,_ZNSt16allocator_traitsISaIN5Catch16TestCaseTracking14SectionTrackerEEE9constructIS2_JRKNS1_15NameAndLocationERNS1_14TrackerContextEPNS1_8ITrackerEEEEvRS3_PT_DpOT0_
FN:529,_ZNSt16allocator_traitsISaIN5Catch6ConfigEEE9constructIS1_JRNS0_10ConfigDataEEEEvRS2_PT_DpOT0_
FN:529,_ZNSt16allocator_traitsISaINSt15__exception_ptr13exception_ptrEEE9constructIS1_JRKS1_EEEvRS2_PT_DpOT0_
FN:529,_ZNSt16allocator_traitsISaISt10shared_ptrIN5Catch8TestSpec7PatternEEEE9constructIS4_JRKS4_EEEvRS5_PT_DpOT0_
FN:529,_ZNSt16allocator_traitsISaIN5Catch8TestSpec6FilterEEE9constructIS2_JRKS2_EEEvRS3_PT_DpOT0_
FN:529,_ZNSt16allocator_traitsISaISt13_Rb_tree_nodeISt4pairIKNSt7__cxx1112basic_stringIcSt11char_traitsIcESaIcEEEN5Catch8TagAliasEEEEE9constructISB_JS1_IS7_SA_EEEEvRSD_PT_DpOT0_
FN:529,_ZNSt16allocator_traitsISaIN5Catch22CumulativeReporterBaseINS0_13JunitReporterEE11SectionNodeEEE9constructIS4_JRNS0_12SectionStatsEEEEvRS5_PT_DpOT0_
FN:529,_ZNSt16allocator_traitsISaISt13_Rb_tree_nodeIN5Catch9VerbosityEEEE9constructIS2_JRKS2_EEEvRS4_PT_DpOT0_
FN:529,_ZNSt16allocator_traitsISaIN5Catch5clara6detail11BoundLambdaIZNS0_21makeCommandLineParserERNS0_10ConfigDataEEUlbE8_EEEE9constructIS7_JRKS6_EEEvRS8_PT_DpOT0_
FN:529,_ZNSt16allocator_traitsISaIN5Catch8TestSpec11NamePatternEEE9constructIS2_JRNSt7__cxx1112basic_stringIcSt11char_traitsIcESaIcEEEEEEvRS3_PT_DpOT0_
FN:529,_ZNSt16allocator_traitsISaISt10shared_ptrIN5Catch22CumulativeReporterBaseINS1_13JunitReporterEE11SectionNodeEEEE9constructIS6_JRKS6_EEEvRS7_PT_DpOT0_
FN:529,_ZNSt16allocator_traitsISaImEE9constructImJRKmEEEvRS0_PT_DpOT0_
FN:529,_ZNSt16allocator_traitsISaIN5Catch17ReporterRegistrarINS0_15CompactReporterEE15ReporterFactoryEEE9constructIS4_JEEEvRS5_PT_DpOT0_
FN:529,_ZNSt16allocator_traitsISaISt10shared_ptrIN5Catch22CumulativeReporterBaseINS1_13JunitReporterEE4NodeINS1_14TestGroupStatsENS5_INS1_13TestCaseStatsENS4_11SectionNodeEEEEEEEE9constructISB_JRKSB_EEEvRSC_PT_DpOT0_
FN:529,_ZNSt16allocator_traitsISaIN5Catch5clara6detail8BoundRefINSt7__cxx1112basic_stringIcSt11char_traitsIcESaIcEEEEEEE9constructISA_JRS9_EEEvRSB_PT_DpOT0_
FN:529,_ZNSt16allocator_traitsISaIN5Catch16TestCaseTracking12IndexTrackerEEE9constructIS2_JRKNS1_15NameAndLocationERNS1_14TrackerContextEPNS1_8ITrackerERiEEEvRS3_PT_DpOT0_
FN:529,_ZNSt16allocator_traitsISaIN5Catch8TestSpec10TagPatternEEE9constructIS2_JRNSt7__cxx1112basic_stringIcSt11char_traitsIcESaIcEEEEEEvRS3_PT_DpOT0_
FN:529,_ZNSt16allocator_traitsISaINSt7__cxx1112basic_stringIcSt11char_traitsIcESaIcEEEEE9constructIS5_JS5_EEEvRS6_PT_DpOT0_
FN:529,_ZNSt16allocator_traitsISaIN5Catch22CumulativeReporterBaseINS0_13JunitReporterEE4NodeINS0_13TestCaseStatsENS3_11SectionNodeEEEEE9constructIS7_JRKS5_EEEvRS8_PT_DpOT0_
FN:529,_ZNSt16allocator_traitsISaIPN5Catch16TestCaseTracking8ITrackerEEE9constructIS3_JS3_EEEvRS4_PT_DpOT0_
FN:529,_ZNSt16allocator_traitsISaIN5Catch5clara6detail11BoundLambdaIZNS0_21makeCommandLineParserERNS0_10ConfigDataEEUlRKNSt7__cxx1112basic_stringIcSt11char_traitsIcESaIcEEEE0_EEEE9constructISF_JRKSE_EEEvRSG_PT_DpOT0_
FN:529,_ZNSt16allocator_traitsISaIN5Catch22CumulativeReporterBaseINS0_13JunitReporterEE4NodeINS0_12TestRunStatsENS4_INS0_14TestGroupStatsENS4_INS0_13TestCaseStatsENS3_11SectionNodeEEEEEEEEE9constructISB_JRKS5_EEEvRSC_PT_DpOT0_
FN:529,_ZNSt16allocator_traitsISaIN5Catch5clara6detail11BoundLambdaIZNS0_21makeCommandLineParserERNS0_10ConfigDataEEUliE7_EEEE9constructIS7_JRKS6_EEEvRS8_PT_DpOT0_
FN:529,_ZNSt16allocator_traitsISaIN5Catch11MessageInfoEEE9constructIS1_JRKS1_EEEvRS2_PT_DpOT0_
FN:529,_ZNSt16allocator_traitsISaIN5Catch5clara6detail15BoundFlagLambdaIZNS0_21makeCommandLineParserERNS0_10ConfigDataEEUlbE6_EEEE9constructIS7_JRKS6_EEEvRS8_PT_DpOT0_
FN:529,_ZNSt16allocator_traitsISaINSt7__cxx1112basic_stringIcSt11char_traitsIcESaIcEEEEE9constructIS5_JRKS5_EEEvRS6_PT_DpOT0_
FN:529,_ZNSt16allocator_traitsISaIN5Catch17ReporterRegistrarINS0_13JunitReporterEE15ReporterFactoryEEE9constructIS4_JEEEvRS5_PT_DpOT0_
FN:529,_ZNSt16allocator_traitsISaIN5Catch5clara6detail3OptEEE9constructIS3_JRKS3_EEEvRS4_PT_DpOT0_
FN:529,_ZNSt16allocator_traitsISaIN5Catch8TestSpec15ExcludedPatternEEE9constructIS2_JRSt10shared_ptrINS1_7PatternEEEEEvRS3_PT_DpOT0_
FN:529,_ZNSt16allocator_traitsISaISt13_Rb_tree_nodeINSt7__cxx1112basic_stringIcSt11char_traitsIcESaIcEEEEEE9constructIS6_JRKS6_EEEvRS8_PT_DpOT0_
FN:529,_ZNSt16allocator_traitsISaIN5Catch5clara6detail8BoundRefISt6vectorINSt7__cxx1112basic_stringIcSt11char_traitsIcESaIcEEESaISA_EEEEEE9constructISD_JRSC_EEEvRSE_PT_DpOT0_
FN:529,_ZNSt16allocator_traitsISaIN5Catch22CumulativeReporterBaseINS0_13JunitReporterEE4NodeINS0_14TestGroupStatsENS4_INS0_13TestCaseStatsENS3_11SectionNodeEEEEEEE9constructIS9_JRKS5_EEEvRSA_PT_DpOT0_
FN:529,_ZNSt16allocator_traitsISaIN5Catch5clara6detail11BoundLambdaIZNS0_21makeCommandLineParserERNS0_10ConfigDataEEUlRKNSt7__cxx1112basic_stringIcSt11char_traitsIcESaIcEEEE3_EEEE9constructISF_JRKSE_EEEvRSG_PT_DpOT0_
FN:541,_ZNSt16allocator_traitsISaIN5Catch5clara6detail8BoundRefIiEEEE7destroyIS4_EEvRS5_PT_
FN:541,_ZNSt16allocator_traitsISaIN5Catch17ReporterRegistrarINS0_15CompactReporterEE15ReporterFactoryEEE7destroyIS4_EEvRS5_PT_
FN:541,_ZNSt16allocator_traitsISaIN5Catch5clara6detail11BoundLambdaIZNS0_21makeCommandLineParserERNS0_10ConfigDataEEUlRKNSt7__cxx1112basic_stringIcSt11char_traitsIcESaIcEEEE1_EEEE7destroyISF_EEvRSG_PT_
FN:541,_ZNSt16allocator_traitsISaIN5Catch5clara6detail11BoundLambdaIZNS0_21makeCommandLineParserERNS0_10ConfigDataEEUlRKNSt7__cxx1112basic_stringIcSt11char_traitsIcESaIcEEEE2_EEEE7destroyISF_EEvRSG_PT_
FN:541,_ZNSt16allocator_traitsISaIN5Catch5clara6detail11BoundLambdaIZNS0_21makeCommandLineParserERNS0_10ConfigDataEEUlRKNSt7__cxx1112basic_stringIcSt11char_traitsIcESaIcEEEE_EEEE7destroyISF_EEvRSG_PT_
FN:541,_ZNSt16allocator_traitsISaIN5Catch11SectionInfoEEE7destroyIS1_EEvRS2_PT_
FN:541,_ZNSt16allocator_traitsISaIN5Catch5clara6detail12BoundFlagRefEEE7destroyIS3_EEvRS4_PT_
FN:541,_ZNSt16allocator_traitsISaIN5Catch14AssertionStatsEEE7destroyIS1_EEvRS2_PT_
FN:541,_ZNSt16allocator_traitsISaIN5Catch17ReporterRegistrarINS0_15ConsoleReporterEE15ReporterFactoryEEE7destroyIS4_EEvRS5_PT_
FN:541,_ZNSt16allocator_traitsISaISt10shared_ptrIN5Catch16IReporterFactoryEEEE7destroyIS3_EEvRS4_PT_
FN:541,_ZNSt16allocator_traitsISaINSt7__cxx1112basic_stringIcSt11char_traitsIcESaIcEEEEE7destroyIS5_EEvRS6_PT_
FN:541,_ZNSt16allocator_traitsISaISt10unique_ptrIN5Catch18IStreamingReporterESt14default_deleteIS2_EEEE7destroyIS5_EEvRS6_PT_
FN:541,_ZNSt16allocator_traitsISaIN5Catch5clara6detail8BoundRefISt6vectorINSt7__cxx1112basic_stringIcSt11char_traitsIcESaIcEEESaISA_EEEEEE7destroyISD_EEvRSE_PT_
FN:541,_ZNSt16allocator_traitsISaINSt15__exception_ptr13exception_ptrEEE7destroyIS1_EEvRS2_PT_
FN:541,_ZNSt16allocator_traitsISaIN5Catch5clara6detail11BoundLambdaIZNS0_21makeCommandLineParserERNS0_10ConfigDataEEUlRKNSt7__cxx1112basic_stringIcSt11char_traitsIcESaIcEEEE3_EEEE7destroyISF_EEvRSG_PT_
FN:541,_ZNSt16allocator_traitsISaIN5Catch5clara8TextFlow6ColumnEEE7destroyIS3_EEvRS4_PT_
FN:541,_ZNSt16allocator_traitsISaISt10shared_ptrIN5Catch22CumulativeReporterBaseINS1_13JunitReporterEE11SectionNodeEEEE7destroyIS6_EEvRS7_PT_
FN:541,_ZNSt16allocator_traitsISaIN5Catch5clara6detail11BoundLambdaIZNS0_21makeCommandLineParserERNS0_10ConfigDataEEUliE7_EEEE7destroyIS7_EEvRS8_PT_
FN:541,_ZNSt16allocator_traitsISaISt13_Rb_tree_nodeIN5Catch8TestCaseEEEE7destroyIS2_EEvRS4_PT_
FN:541,_ZNSt16allocator_traitsISaISt10shared_ptrIN5Catch8TestSpec7PatternEEEE7destroyIS4_EEvRS5_PT_
FN:541,_ZNSt16allocator_traitsISaISt10shared_ptrIN5Catch16TestCaseTracking8ITrackerEEEE7destroyIS4_EEvRS5_PT_
FN:541,_ZNSt16allocator_traitsISaIN5Catch5clara6detail11BoundLambdaIZNS0_21makeCommandLineParserERNS0_10ConfigDataEEUlbE8_EEEE7destroyIS7_EEvRS8_PT_
FN:541,_ZNSt16allocator_traitsISaIN5Catch22CumulativeReporterBaseINS0_13JunitReporterEE4NodeINS0_13TestCaseStatsENS3_11SectionNodeEEEEE7destroyIS7_EEvRS8_PT_
FN:541,_ZNSt16allocator_traitsISaIN5Catch5clara6detail11BoundLambdaIZNS0_21makeCommandLineParserERNS0_10ConfigDataEEUlRKNSt7__cxx1112basic_stringIcSt11char_traitsIcESaIcEEEE4_EEEE7destroyISF_EEvRSG_PT_
FN:541,_ZNSt16allocator_traitsISaIN5Catch5clara6detail8BoundRefINSt7__cxx1112basic_stringIcSt11char_traitsIcESaIcEEEEEEE7destroyISA_EEvRSB_PT_
FN:541,_ZNSt16allocator_traitsISaIN5Catch8TestSpec6FilterEEE7destroyIS2_EEvRS3_PT_
FN:541,_ZNSt16allocator_traitsISaIN5Catch16TestCaseTracking14SectionTrackerEEE7destroyIS2_EEvRS3_PT_
FN:541,_ZNSt16allocator_traitsISaISt13_Rb_tree_nodeIN5Catch9VerbosityEEEE7destroyIS2_EEvRS4_PT_
FN:541,_ZNSt16allocator_traitsISaIN5Catch22CumulativeReporterBaseINS0_13JunitReporterEE4NodeINS0_12TestRunStatsENS4_INS0_14TestGroupStatsENS4_INS0_13TestCaseStatsENS3_11SectionNodeEEEEEEEEE7destroyISB_EEvRSC_PT_
FN:541,_ZNSt16allocator_traitsISaIN5Catch14SectionEndInfoEEE7destroyIS1_EEvRS2_PT_
FN:541,_ZNSt16allocator_traitsISaIN5Catch5clara6detail15BoundFlagLambdaIZNS2_4HelpC4ERbEUlbE_EEEE7destroyIS7_EEvRS8_PT_
FN:541,_ZNSt16allocator_traitsISaIN5Catch5clara6detail11BoundLambdaIZNS0_21makeCommandLineParserERNS0_10ConfigDataEEUlRKNSt7__cxx1112basic_stringIcSt11char_traitsIcESaIcEEEE0_EEEE7destroyISF_EEvRSG_PT_
FN:541,_ZNSt16allocator_traitsISaIN5Catch5clara6detail3ArgEEE7destroyIS3_EEvRS4_PT_
FN:541,_ZNSt16allocator_traitsISaIN5Catch17ReporterRegistrarINS0_13JunitReporterEE15ReporterFactoryEEE7destroyIS4_EEvRS5_PT_
FN:541,_ZNSt16allocator_traitsISaIN5Catch5clara6detail11BoundLambdaIZNS0_21makeCommandLineParserERNS0_10ConfigDataEEUlRKNSt7__cxx1112basic_stringIcSt11char_traitsIcESaIcEEEE5_EEEE7destroyISF_EEvRSG_PT_
FN:541,_ZNSt16allocator_traitsISaIN5Catch22CumulativeReporterBaseINS0_13JunitReporterEE11SectionNodeEEE7destroyIS4_EEvRS5_PT_
FN:541,_ZNSt16allocator_traitsISaIN5Catch8TestSpec15ExcludedPatternEEE7destroyIS2_EEvRS3_PT_
FN:541,_ZNSt16allocator_traitsISaIN5Catch22CumulativeReporterBaseINS0_13JunitReporterEE4NodeINS0_14TestGroupStatsENS4_INS0_13TestCaseStatsENS3_11SectionNodeEEEEEEE7destroyIS9_EEvRSA_PT_
FN:541,_ZNSt16allocator_traitsISaIPN5Catch16TestCaseTracking8ITrackerEEE7destroyIS3_EEvRS4_PT_
FN:541,_ZNSt16allocator_traitsISaIN5Catch5clara6detail3OptEEE7destroyIS3_EEvRS4_PT_
FN:541,_ZNSt16allocator_traitsISaISt10shared_ptrIN5Catch22CumulativeReporterBaseINS1_13JunitReporterEE4NodeINS1_14TestGroupStatsENS5_INS1_13TestCaseStatsENS4_11SectionNodeEEEEEEEE7destroyISB_EEvRSC_PT_
FN:541,_ZNSt16allocator_traitsISaImEE7destroyImEEvRS0_PT_
FN:541,_ZNSt16allocator_traitsISaISt13_Rb_tree_nodeISt4pairIKNSt7__cxx1112basic_stringIcSt11char_traitsIcESaIcEEESt10shared_ptrIN5Catch16IReporterFactoryEEEEEE7destroyISD_EEvRSF_PT_
FN:541,_ZNSt16allocator_traitsISaIN5Catch8TestSpec10TagPatternEEE7destroyIS2_EEvRS3_PT_
FN:541,_ZNSt16allocator_traitsISaISt13_Rb_tree_nodeISt4pairIKNSt7__cxx1112basic_stringIcSt11char_traitsIcESaIcEEEN5Catch7TagInfoEEEEE7destroyISB_EEvRSD_PT_
FN:541,_ZNSt16allocator_traitsISaIN5Catch6ConfigEEE7destroyIS1_EEvRS2_PT_
FN:541,_ZNSt16allocator_traitsISaIN5Catch11MessageInfoEEE7destroyIS1_EEvRS2_PT_
FN:541,_ZNSt16allocator_traitsISaIN5Catch8TestSpec11NamePatternEEE7destroyIS2_EEvRS3_PT_
FN:541,_ZNSt16allocator_traitsISaIN5Catch16TestCaseTracking12IndexTrackerEEE7destroyIS2_EEvRS3_PT_
FN:541,_ZNSt16allocator_traitsISaISt10unique_ptrIKN5Catch20IExceptionTranslatorESt14default_deleteIS3_EEEE7destroyIS6_EEvRS7_PT_
FN:541,_ZNSt16allocator_traitsISaISt13_Rb_tree_nodeISt4pairIKNSt7__cxx1112basic_stringIcSt11char_traitsIcESaIcEEEN5Catch8TagAliasEEEEE7destroyISB_EEvRSD_PT_
FN:541,_ZNSt16allocator_traitsISaIN5Catch17ReporterRegistrarINS0_11XmlReporterEE15ReporterFactoryEEE7destroyIS4_EEvRS5_PT_
FN:541,_ZNSt16allocator_traitsISaISt10shared_ptrIN5Catch22CumulativeReporterBaseINS1_13JunitReporterEE4NodeINS1_13TestCaseStatsENS4_11SectionNodeEEEEEE7destroyIS9_EEvRSA_PT_
FN:541,_ZNSt16allocator_traitsISaISt10shared_ptrIN5Catch22CumulativeReporterBaseINS1_13JunitReporterEE4NodeINS1_12TestRunStatsENS5_INS1_14TestGroupStatsENS5_INS1_13TestCaseStatsENS4_11SectionNodeEEEEEEEEEE7destroyISD_EEvRSE_PT_
FN:541,_ZNSt16allocator_traitsISaIN5Catch5clara6detail5TokenEEE7destroyIS3_EEvRS4_PT_
FN:541,_ZNSt16allocator_traitsISaIN5Catch5clara8TextFlow6Column8iteratorEEE7destroyIS4_EEvRS5_PT_
FN:541,_ZNSt16allocator_traitsISaIN5Catch5clara6detail15BoundFlagLambdaIZNS0_21makeCommandLineParserERNS0_10ConfigDataEEUlbE6_EEEE7destroyIS7_EEvRS8_PT_
FN:541,_ZNSt16allocator_traitsISaIN5Catch15ConsoleReporter13SummaryColumnEEE7destroyIS2_EEvRS3_PT_
FN:541,_ZNSt16allocator_traitsISaIN5Catch8TestCaseEEE7destroyIS1_EEvRS2_PT_
FN:541,_ZNSt16allocator_traitsISaISt13_Rb_tree_nodeINSt7__cxx1112basic_stringIcSt11char_traitsIcESaIcEEEEEE7destroyIS6_EEvRS8_PT_
FN:550,_ZNSt16allocator_traitsISaIN5Catch5clara6detail3ArgEEE8max_sizeERKS4_
FN:550,_ZNSt16allocator_traitsISaIN5Catch5clara6detail11HelpColumnsEEE8max_sizeERKS4_
FN:550,_ZNSt16allocator_traitsISaIN5Catch8TestSpec6FilterEEE8max_sizeERKS3_
FN:550,_ZNSt16allocator_traitsISaIN5Catch8TestCaseEEE8max_sizeERKS2_
FN:550,_ZNSt16allocator_traitsISaIN5Catch5clara6detail5TokenEEE8max_sizeERKS4_
FN:550,_ZNSt16allocator_traitsISaISt10shared_ptrIN5Catch22CumulativeReporterBaseINS1_13JunitReporterEE4NodeINS1_14TestGroupStatsENS5_INS1_13TestCaseStatsENS4_11SectionNodeEEEEEEEE8max_sizeERKSC_
FN:550,_ZNSt16allocator_traitsISaINSt7__cxx1112basic_stringIcSt11char_traitsIcESaIcEEEEE8max_sizeERKS6_
FN:550,_ZNSt16allocator_traitsISaISt10shared_ptrIN5Catch22CumulativeReporterBaseINS1_13JunitReporterEE11SectionNodeEEEE8max_sizeERKS7_
FN:550,_ZNSt16allocator_traitsISaISt10shared_ptrIN5Catch16IReporterFactoryEEEE8max_sizeERKS4_
FN:550,_ZNSt16allocator_traitsISaImEE8max_sizeERKS0_
FN:550,_ZNSt16allocator_traitsISaINSt15__exception_ptr13exception_ptrEEE8max_sizeERKS2_
FN:550,_ZNSt16allocator_traitsISaIN5Catch11MessageInfoEEE8max_sizeERKS2_
FN:550,_ZNSt16allocator_traitsISaIN5Catch15ConsoleReporter13SummaryColumnEEE8max_sizeERKS3_
FN:550,_ZNSt16allocator_traitsISaISt10shared_ptrIN5Catch16TestCaseTracking8ITrackerEEEE8max_sizeERKS5_
FN:550,_ZNSt16allocator_traitsISaIN5Catch5clara8TextFlow6Column8iteratorEEE8max_sizeERKS5_
FN:550,_ZNSt16allocator_traitsISaISt10unique_ptrIKN5Catch20IExceptionTranslatorESt14default_deleteIS3_EEEE8max_sizeERKS7_
FN:550,_ZNSt16allocator_traitsISaISt10unique_ptrIN5Catch18IStreamingReporterESt14default_deleteIS2_EEEE8max_sizeERKS6_
FN:550,_ZNSt16allocator_traitsISaIN5Catch14AssertionStatsEEE8max_sizeERKS2_
FN:550,_ZNSt16allocator_traitsISaIN5Catch5clara6detail3OptEEE8max_sizeERKS4_
FN:550,_ZNSt16allocator_traitsISaIN5Catch11SectionInfoEEE8max_sizeERKS2_
FN:550,_ZNSt16allocator_traitsISaIPN5Catch16TestCaseTracking8ITrackerEEE8max_sizeERKS4_
FN:550,_ZNSt16allocator_traitsISaISt10shared_ptrIN5Catch22CumulativeReporterBaseINS1_13JunitReporterEE4NodeINS1_13TestCaseStatsENS4_11SectionNodeEEEEEE8max_sizeERKSA_
FN:550,_ZNSt16allocator_traitsISaIN5Catch5clara8TextFlow6ColumnEEE8max_sizeERKS4_
FN:550,_ZNSt16allocator_traitsISaIN5Catch14SectionEndInfoEEE8max_sizeERKS2_
FN:550,_ZNSt16allocator_traitsISaISt10shared_ptrIN5Catch22CumulativeReporterBaseINS1_13JunitReporterEE4NodeINS1_12TestRunStatsENS5_INS1_14TestGroupStatsENS5_INS1_13TestCaseStatsENS4_11SectionNodeEEEEEEEEEE8max_sizeERKSE_
FN:550,_ZNSt16allocator_traitsISaISt10shared_ptrIN5Catch8TestSpec7PatternEEEE8max_sizeERKS5_
FN:559,_ZNSt16allocator_traitsISaIN5Catch8TestCaseEEE37select_on_container_copy_constructionERKS2_
FN:559,_ZNSt16allocator_traitsISaIN5Catch11MessageInfoEEE37select_on_container_copy_constructionERKS2_
FN:559,_ZNSt16allocator_traitsISaIN5Catch5clara8TextFlow6ColumnEEE37select_on_container_copy_constructionERKS4_
FN:559,_ZNSt16allocator_traitsISaINSt7__cxx1112basic_stringIcSt11char_traitsIcESaIcEEEEE37select_on_container_copy_constructionERKS6_
FN:559,_ZNSt16allocator_traitsISaIN5Catch12_GLOBAL__N_110ColumnInfoEEE37select_on_container_copy_constructionERKS3_
FN:559,_ZNSt16allocator_traitsISaIN5Catch5clara6detail3OptEEE37select_on_container_copy_constructionERKS4_
FN:559,_ZNSt16allocator_traitsISaIN5Catch5clara6detail3ArgEEE37select_on_container_copy_constructionERKS4_
FN:559,_ZNSt16allocator_traitsISaISt10shared_ptrIN5Catch8TestSpec7PatternEEEE37select_on_container_copy_constructionERKS5_
FN:559,_ZNSt16allocator_traitsISaIN5Catch8TestSpec6FilterEEE37select_on_container_copy_constructionERKS3_
FN:559,_ZNSt16allocator_traitsISaIN5Catch5clara6detail5TokenEEE37select_on_container_copy_constructionERKS4_
FN:571,_ZSt18__do_alloc_on_copyISaINSt7__cxx1112basic_stringIcSt11char_traitsIcESaIcEEEEEvRT_RKS7_St17integral_constantIbLb0EE
FN:571,_ZSt18__do_alloc_on_copyISaIN5Catch5clara6detail3OptEEEvRT_RKS5_St17integral_constantIbLb0EE
FN:571,_ZSt18__do_alloc_on_copyISaIN5Catch5clara6detail3ArgEEEvRT_RKS5_St17integral_constantIbLb0EE
FN:575,_ZSt15__alloc_on_copyISaINSt7__cxx1112basic_stringIcSt11char_traitsIcESaIcEEEEEvRT_RKS7_
FN:575,_ZSt15__alloc_on_copyISaIN5Catch5clara6detail3ArgEEEvRT_RKS5_
FN:575,_ZSt15__alloc_on_copyISaIN5Catch5clara6detail3OptEEEvRT_RKS5_
FN:590,_ZSt18__do_alloc_on_moveISaIN5Catch5clara6detail3ArgEEEvRT_S6_St17integral_constantIbLb1EE
FN:590,_ZSt18__do_alloc_on_moveISaISt10shared_ptrIN5Catch8TestSpec7PatternEEEEvRT_S7_St17integral_constantIbLb1EE
FN:590,_ZSt18__do_alloc_on_moveISaINSt7__cxx1112basic_stringIcSt11char_traitsIcESaIcEEEEEvRT_S8_St17integral_constantIbLb1EE
FN:590,_ZSt18__do_alloc_on_moveISaIN5Catch8TestSpec6FilterEEEvRT_S5_St17integral_constantIbLb1EE
FN:590,_ZSt18__do_alloc_on_moveISaIN5Catch5clara6detail3OptEEEvRT_S6_St17integral_constantIbLb1EE
FN:590,_ZSt18__do_alloc_on_moveISaIN5Catch8TestCaseEEEvRT_S4_St17integral_constantIbLb1EE
FN:598,_ZSt15__alloc_on_moveISaIN5Catch8TestCaseEEEvRT_S4_
FN:598,_ZSt15__alloc_on_moveISaIN5Catch8TestSpec6FilterEEEvRT_S5_
FN:598,_ZSt15__alloc_on_moveISaISt10shared_ptrIN5Catch8TestSpec7PatternEEEEvRT_S7_
FN:598,_ZSt15__alloc_on_moveISaIN5Catch5clara6detail3ArgEEEvRT_S6_
FN:598,_ZSt15__alloc_on_moveISaINSt7__cxx1112basic_stringIcSt11char_traitsIcESaIcEEEEEvRT_S8_
FN:598,_ZSt15__alloc_on_moveISaIN5Catch5clara6detail3OptEEEvRT_S6_
FN:613,_ZSt18__do_alloc_on_swapISaISt10shared_ptrIN5Catch22CumulativeReporterBaseINS1_13JunitReporterEE4NodeINS1_13TestCaseStatsENS4_11SectionNodeEEEEEEvRT_SC_St17integral_constantIbLb0EE
FN:613,_ZSt18__do_alloc_on_swapISaISt10shared_ptrIN5Catch22CumulativeReporterBaseINS1_13JunitReporterEE4NodeINS1_14TestGroupStatsENS5_INS1_13TestCaseStatsENS4_11SectionNodeEEEEEEEEvRT_SE_St17integral_constantIbLb0EE
FN:617,_ZSt15__alloc_on_swapISaISt10shared_ptrIN5Catch22CumulativeReporterBaseINS1_13JunitReporterEE4NodeINS1_14TestGroupStatsENS5_INS1_13TestCaseStatsENS4_11SectionNodeEEEEEEEEvRT_SE_
FN:617,_ZSt15__alloc_on_swapISaISt10shared_ptrIN5Catch22CumulativeReporterBaseINS1_13JunitReporterEE4NodeINS1_13TestCaseStatsENS4_11SectionNodeEEEEEEvRT_SC_
FNDA:0,_ZNSt16allocator_traitsISaISt23_Sp_counted_ptr_inplaceIN5Catch22CumulativeReporterBaseINS1_13JunitReporterEE4NodeINS1_12TestRunStatsENS5_INS1_14TestGroupStatsENS5_INS1_13TestCaseStatsENS4_11SectionNodeEEEEEEESaISC_ELN9__gnu_cxx12_Lock_policyE2EEEE8allocateERSH_m
FNDA:0,_ZNSt16allocator_traitsISaISt23_Sp_counted_ptr_inplaceIN5Catch22CumulativeReporterBaseINS1_13JunitReporterEE11SectionNodeESaIS5_ELN9__gnu_cxx12_Lock_policyE2EEEE8allocateERSA_m
FNDA:0,_ZNSt16allocator_traitsISaISt10shared_ptrIN5Catch22CumulativeReporterBaseINS1_13JunitReporterEE4NodeINS1_12TestRunStatsENS5_INS1_14TestGroupStatsENS5_INS1_13TestCaseStatsENS4_11SectionNodeEEEEEEEEEE8allocateERSE_m
FNDA:1,_ZNSt16allocator_traitsISaISt13_Rb_tree_nodeIN5Catch9VerbosityEEEE8allocateERS4_m
FNDA:1,_ZNSt16allocator_traitsISaISt23_Sp_counted_ptr_inplaceIN5Catch5clara6detail8BoundRefIiEESaIS5_ELN9__gnu_cxx12_Lock_policyE2EEEE8allocateERSA_m
FNDA:1,_ZNSt16allocator_traitsISaISt23_Sp_counted_ptr_inplaceIN5Catch5clara6detail11BoundLambdaIZNS1_21makeCommandLineParserERNS1_10ConfigDataEEUlRKNSt7__cxx1112basic_stringIcSt11char_traitsIcESaIcEEEE4_EESaISG_ELN9__gnu_cxx12_Lock_policyE2EEEE8allocateERSL_m
FNDA:1,_ZNSt16allocator_traitsISaISt23_Sp_counted_ptr_inplaceIN5Catch5clara6detail11BoundLambdaIZNS1_21makeCommandLineParserERNS1_10ConfigDataEEUlRKNSt7__cxx1112basic_stringIcSt11char_traitsIcESaIcEEEE3_EESaISG_ELN9__gnu_cxx12_Lock_policyE2EEEE8allocateERSL_m
FNDA:1,_ZNSt16allocator_traitsISaISt23_Sp_counted_ptr_inplaceIN5Catch5clara6detail11BoundLambdaIZNS1_21makeCommandLineParserERNS1_10ConfigDataEEUlRKNSt7__cxx1112basic_stringIcSt11char_traitsIcESaIcEEEE2_EESaISG_ELN9__gnu_cxx12_Lock_policyE2EEEE8allocateERSL_m
FNDA:1,_ZNSt16allocator_traitsISaISt23_Sp_counted_ptr_inplaceIN5Catch5clara6detail11BoundLambdaIZNS1_21makeCommandLineParserERNS1_10ConfigDataEEUlRKNSt7__cxx1112basic_stringIcSt11char_traitsIcESaIcEEEE1_EESaISG_ELN9__gnu_cxx12_Lock_policyE2EEEE8allocateERSL_m
FNDA:1,_ZNSt16allocator_traitsISaISt23_Sp_counted_ptr_inplaceIN5Catch5clara6detail11BoundLambdaIZNS1_21makeCommandLineParserERNS1_10ConfigDataEEUlRKNSt7__cxx1112basic_stringIcSt11char_traitsIcESaIcEEEE5_EESaISG_ELN9__gnu_cxx12_Lock_policyE2EEEE8allocateERSL_m
FNDA:1,_ZNSt16allocator_traitsISaISt23_Sp_counted_ptr_inplaceIN5Catch5clara6detail11BoundLambdaIZNS1_21makeCommandLineParserERNS1_10ConfigDataEEUlRKNSt7__cxx1112basic_stringIcSt11char_traitsIcESaIcEEEE0_EESaISG_ELN9__gnu_cxx12_Lock_policyE2EEEE8allocateERSL_m
FNDA:1,_ZNSt16allocator_traitsISaISt23_Sp_counted_ptr_inplaceIN5Catch5clara6detail11BoundLambdaIZNS1_21makeCommandLineParserERNS1_10ConfigDataEEUlbE8_EESaIS8_ELN9__gnu_cxx12_Lock_policyE2EEEE8allocateERSD_m
FNDA:1,_ZNSt16allocator_traitsISaISt23_Sp_counted_ptr_inplaceIN5Catch5clara6detail11BoundLambdaIZNS1_21makeCommandLineParserERNS1_10ConfigDataEEUlRKNSt7__cxx1112basic_stringIcSt11char_traitsIcESaIcEEEE_EESaISG_ELN9__gnu_cxx12_Lock_policyE2EEEE8allocateERSL_m
FNDA:1,_ZNSt16allocator_traitsISaISt23_Sp_counted_ptr_inplaceIN5Catch5clara6detail11BoundLambdaIZNS1_21makeCommandLineParserERNS1_10ConfigDataEEUliE7_EESaIS8_ELN9__gnu_cxx12_Lock_policyE2EEEE8allocateERSD_m
FNDA:1,_ZNSt16allocator_traitsISaISt23_Sp_counted_ptr_inplaceIN5Catch17ReporterRegistrarINS1_11XmlReporterEE15ReporterFactoryESaIS5_ELN9__gnu_cxx12_Lock_policyE2EEEE8allocateERSA_m
FNDA:1,_ZNSt16allocator_traitsISaISt23_Sp_counted_ptr_inplaceIN5Catch17ReporterRegistrarINS1_13JunitReporterEE15ReporterFactoryESaIS5_ELN9__gnu_cxx12_Lock_policyE2EEEE8allocateERSA_m
FNDA:0,_ZNSt16allocator_traitsISaISt23_Sp_counted_ptr_inplaceIN5Catch22CumulativeReporterBaseINS1_13JunitReporterEE4NodeINS1_14TestGroupStatsENS5_INS1_13TestCaseStatsENS4_11SectionNodeEEEEESaISA_ELN9__gnu_cxx12_Lock_policyE2EEEE8allocateERSF_m
FNDA:0,_ZNSt16allocator_traitsISaISt23_Sp_counted_ptr_inplaceIN5Catch22CumulativeReporterBaseINS1_13JunitReporterEE4NodeINS1_13TestCaseStatsENS4_11SectionNodeEEESaIS8_ELN9__gnu_cxx12_Lock_policyE2EEEE8allocateERSD_m
FNDA:1,_ZNSt16allocator_traitsISaISt23_Sp_counted_ptr_inplaceIN5Catch17ReporterRegistrarINS1_15ConsoleReporterEE15ReporterFactoryESaIS5_ELN9__gnu_cxx12_Lock_policyE2EEEE8allocateERSA_m
FNDA:1,_ZNSt16allocator_traitsISaISt23_Sp_counted_ptr_inplaceIN5Catch17ReporterRegistrarINS1_15CompactReporterEE15ReporterFactoryESaIS5_ELN9__gnu_cxx12_Lock_policyE2EEEE8allocateERSA_m
FNDA:1,_ZNSt16allocator_traitsISaISt23_Sp_counted_ptr_inplaceIN5Catch8TestSpec10TagPatternESaIS3_ELN9__gnu_cxx12_Lock_policyE2EEEE8allocateERS8_m
FNDA:1,_ZNSt16allocator_traitsISaISt23_Sp_counted_ptr_inplaceIN5Catch8TestSpec15ExcludedPatternESaIS3_ELN9__gnu_cxx12_Lock_policyE2EEEE8allocateERS8_m
FNDA:0,_ZNSt16allocator_traitsISaISt23_Sp_counted_ptr_inplaceIN5Catch8TestSpec11NamePatternESaIS3_ELN9__gnu_cxx12_Lock_policyE2EEEE8allocateERS8_m
FNDA:3,_ZNSt16allocator_traitsISaISt23_Sp_counted_ptr_inplaceIN5Catch5clara6detail8BoundRefISt6vectorINSt7__cxx1112basic_stringIcSt11char_traitsIcESaIcEEESaISB_EEEESaISE_ELN9__gnu_cxx12_Lock_policyE2EEEE8allocateERSJ_m
FNDA:1,_ZNSt16allocator_traitsISaISt23_Sp_counted_ptr_inplaceIN5Catch5clara6detail15BoundFlagLambdaIZNS1_21makeCommandLineParserERNS1_10ConfigDataEEUlbE6_EESaIS8_ELN9__gnu_cxx12_Lock_policyE2EEEE8allocateERSD_m
FNDA:1,_ZNSt16allocator_traitsISaISt23_Sp_counted_ptr_inplaceIN5Catch5clara6detail15BoundFlagLambdaIZNS3_4HelpC4ERbEUlbE_EESaIS8_ELN9__gnu_cxx12_Lock_policyE2EEEE8allocateERSD_m
FNDA:0,_ZNSt16allocator_traitsISaISt23_Sp_counted_ptr_inplaceIN5Catch16TestCaseTracking12IndexTrackerESaIS3_ELN9__gnu_cxx12_Lock_policyE2EEEE8allocateERS8_m
FNDA:10,_ZNSt16allocator_traitsISaISt23_Sp_counted_ptr_inplaceIN5Catch16TestCaseTracking14SectionTrackerESaIS3_ELN9__gnu_cxx12_Lock_policyE2EEEE8allocateERS8_m
FNDA:3,_ZNSt16allocator_traitsISaISt13_Rb_tree_nodeIN5Catch8TestCaseEEEE8allocateERS4_m
FNDA:0,_ZNSt16allocator_traitsISaISt13_Rb_tree_nodeISt4pairIKNSt7__cxx1112basic_stringIcSt11char_traitsIcESaIcEEEN5Catch8TagAliasEEEEE8allocateERSD_m
FNDA:1,_ZNSt16allocator_traitsISaISt23_Sp_counted_ptr_inplaceIN5Catch6ConfigESaIS2_ELN9__gnu_cxx12_Lock_policyE2EEEE8allocateERS7_m
FNDA:0,_ZNSt16allocator_traitsISaISt13_Rb_tree_nodeISt4pairIKNSt7__cxx1112basic_stringIcSt11char_traitsIcESaIcEEEN5Catch7TagInfoEEEEE8allocateERSD_m
FNDA:0,_ZNSt16allocator_traitsISaISt13_Rb_tree_nodeINSt7__cxx1112basic_stringIcSt11char_traitsIcESaIcEEEEEE8allocateERS8_m
FNDA:10,_ZNSt16allocator_traitsISaISt23_Sp_counted_ptr_inplaceIN5Catch5clara6detail12BoundFlagRefESaIS4_ELN9__gnu_cxx12_Lock_policyE2EEEE8allocateERS9_m
FNDA:3,_ZNSt16allocator_traitsISaISt23_Sp_counted_ptr_inplaceIN5Catch5clara6detail8BoundRefINSt7__cxx1112basic_stringIcSt11char_traitsIcESaIcEEEEESaISB_ELN9__gnu_cxx12_Lock_policyE2EEEE8allocateERSG_m
FNDA:3,_ZNSt16allocator_traitsISaISt23_Sp_counted_ptr_inplaceINSt7__cxx1112basic_stringIcSt11char_traitsIcESaIcEEESaIS6_ELN9__gnu_cxx12_Lock_policyE2EEEE8allocateERSB_m
FNDA:0,_ZNSt16allocator_traitsISaISt10unique_ptrIN5Catch18IStreamingReporterESt14default_deleteIS2_EEEE8allocateERS6_m
FNDA:0,_ZNSt16allocator_traitsISaISt10shared_ptrIN5Catch22CumulativeReporterBaseINS1_13JunitReporterEE4NodeINS1_14TestGroupStatsENS5_INS1_13TestCaseStatsENS4_11SectionNodeEEEEEEEE8allocateERSC_m
FNDA:0,_ZNSt16allocator_traitsISaISt10shared_ptrIN5Catch22CumulativeReporterBaseINS1_13JunitReporterEE4NodeINS1_13TestCaseStatsENS4_11SectionNodeEEEEEE8allocateERSA_m
FNDA:0,_ZNSt16allocator_traitsISaISt10shared_ptrIN5Catch22CumulativeReporterBaseINS1_13JunitReporterEE11SectionNodeEEEE8allocateERS7_m
FNDA:0,_ZNSt16allocator_traitsISaIN5Catch14AssertionStatsEEE8allocateERS2_m
FNDA:0,_ZNSt16allocator_traitsISaIN5Catch15ConsoleReporter13SummaryColumnEEE8allocateERS3_m
FNDA:2,_ZNSt16allocator_traitsISaIN5Catch11SectionInfoEEE8allocateERS2_m
FNDA:3,_ZNSt16allocator_traitsISaISt10shared_ptrIN5Catch8TestSpec7PatternEEEE8allocateERS5_m
FNDA:1,_ZNSt16allocator_traitsISaIPN5Catch16TestCaseTracking8ITrackerEEE8allocateERS4_m
FNDA:4,_ZNSt16allocator_traitsISaISt13_Rb_tree_nodeISt4pairIKNSt7__cxx1112basic_stringIcSt11char_traitsIcESaIcEEESt10shared_ptrIN5Catch16IReporterFactoryEEEEEE8allocateERSF_m
FNDA:0,_ZNSt16allocator_traitsISaISt10unique_ptrIKN5Catch20IExceptionTranslatorESt14default_deleteIS3_EEEE8allocateERS7_m
FNDA:2,_ZNSt16allocator_traitsISaIN5Catch12_GLOBAL__N_110ColumnInfoEEE8allocateERS3_m
FNDA:2,_ZNSt16allocator_traitsISaIN5Catch8TestSpec6FilterEEE8allocateERS3_m
FNDA:0,_ZNSt16allocator_traitsISaImEE8allocateERS0_m
FNDA:7,_ZNSt16allocator_traitsISaISt10shared_ptrIN5Catch16TestCaseTracking8ITrackerEEEE8allocateERS5_m
FNDA:4,_ZNSt16allocator_traitsISaIN5Catch8TestCaseEEE8allocateERS2_m
FNDA:0,_ZNSt16allocator_traitsISaINSt15__exception_ptr13exception_ptrEEE8allocateERS2_m
FNDA:0,_ZNSt16allocator_traitsISaIN5Catch14SectionEndInfoEEE8allocateERS2_m
FNDA:0,_ZNSt16allocator_traitsISaISt10shared_ptrIN5Catch16IReporterFactoryEEEE8allocateERS4_m
FNDA:0,_ZNSt16allocator_traitsISaIN5Catch11MessageInfoEEE8allocateERS2_m
FNDA:79,_ZNSt16allocator_traitsISaIN5Catch5clara6detail3OptEEE8allocateERS4_m
FNDA:2,_ZNSt16allocator_traitsISaIN5Catch5clara6detail3ArgEEE8allocateERS4_m
FNDA:0,_ZNSt16allocator_traitsISaIN5Catch5clara6detail11HelpColumnsEEE8allocateERS4_m
FNDA:0,_ZNSt16allocator_traitsISaIN5Catch5clara6detail5TokenEEE8allocateERS4_m
FNDA:0,_ZNSt16allocator_traitsISaIN5Catch5clara8TextFlow6ColumnEEE8allocateERS4_m
FNDA:0,_ZNSt16allocator_traitsISaIN5Catch5clara8TextFlow6Column8iteratorEEE8allocateERS5_m
FNDA:850,_ZNSt16allocator_traitsISaINSt7__cxx1112basic_stringIcSt11char_traitsIcESaIcEEEEE8allocateERS6_m
FNDA:0,_ZNSt16allocator_traitsISaISt23_Sp_counted_ptr_inplaceIN5Catch22CumulativeReporterBaseINS1_13JunitReporterEE4NodeINS1_12TestRunStatsENS5_INS1_14TestGroupStatsENS5_INS1_13TestCaseStatsENS4_11SectionNodeEEEEEEESaISC_ELN9__gnu_cxx12_Lock_policyE2EEEE10deallocateERSH_PSG_m
FNDA:0,_ZNSt16allocator_traitsISaISt23_Sp_counted_ptr_inplaceIN5Catch22CumulativeReporterBaseINS1_13JunitReporterEE11SectionNodeESaIS5_ELN9__gnu_cxx12_Lock_policyE2EEEE10deallocateERSA_PS9_m
FNDA:1,_ZNSt16allocator_traitsISaISt23_Sp_counted_ptr_inplaceIN5Catch5clara6detail8BoundRefIiEESaIS5_ELN9__gnu_cxx12_Lock_policyE2EEEE10deallocateERSA_PS9_m
FNDA:1,_ZNSt16allocator_traitsISaISt23_Sp_counted_ptr_inplaceIN5Catch5clara6detail11BoundLambdaIZNS1_21makeCommandLineParserERNS1_10ConfigDataEEUlRKNSt7__cxx1112basic_stringIcSt11char_traitsIcESaIcEEEE4_EESaISG_ELN9__gnu_cxx12_Lock_policyE2EEEE10deallocateERSL_PSK_m
FNDA:1,_ZNSt16allocator_traitsISaISt23_Sp_counted_ptr_inplaceIN5Catch5clara6detail11BoundLambdaIZNS1_21makeCommandLineParserERNS1_10ConfigDataEEUlRKNSt7__cxx1112basic_stringIcSt11char_traitsIcESaIcEEEE3_EESaISG_ELN9__gnu_cxx12_Lock_policyE2EEEE10deallocateERSL_PSK_m
FNDA:1,_ZNSt16allocator_traitsISaISt23_Sp_counted_ptr_inplaceIN5Catch5clara6detail11BoundLambdaIZNS1_21makeCommandLineParserERNS1_10ConfigDataEEUlRKNSt7__cxx1112basic_stringIcSt11char_traitsIcESaIcEEEE2_EESaISG_ELN9__gnu_cxx12_Lock_policyE2EEEE10deallocateERSL_PSK_m
FNDA:1,_ZNSt16allocator_traitsISaISt23_Sp_counted_ptr_inplaceIN5Catch5clara6detail11BoundLambdaIZNS1_21makeCommandLineParserERNS1_10ConfigDataEEUlRKNSt7__cxx1112basic_stringIcSt11char_traitsIcESaIcEEEE1_EESaISG_ELN9__gnu_cxx12_Lock_policyE2EEEE10deallocateERSL_PSK_m
FNDA:1,_ZNSt16allocator_traitsISaISt23_Sp_counted_ptr_inplaceIN5Catch5clara6detail11BoundLambdaIZNS1_21makeCommandLineParserERNS1_10ConfigDataEEUlRKNSt7__cxx1112basic_stringIcSt11char_traitsIcESaIcEEEE5_EESaISG_ELN9__gnu_cxx12_Lock_policyE2EEEE10deallocateERSL_PSK_m
FNDA:1,_ZNSt16allocator_traitsISaISt23_Sp_counted_ptr_inplaceIN5Catch5clara6detail11BoundLambdaIZNS1_21makeCommandLineParserERNS1_10ConfigDataEEUlRKNSt7__cxx1112basic_stringIcSt11char_traitsIcESaIcEEEE0_EESaISG_ELN9__gnu_cxx12_Lock_policyE2EEEE10deallocateERSL_PSK_m
FNDA:1,_ZNSt16allocator_traitsISaISt23_Sp_counted_ptr_inplaceIN5Catch5clara6detail11BoundLambdaIZNS1_21makeCommandLineParserERNS1_10ConfigDataEEUlbE8_EESaIS8_ELN9__gnu_cxx12_Lock_policyE2EEEE10deallocateERSD_PSC_m
FNDA:1,_ZNSt16allocator_traitsISaISt23_Sp_counted_ptr_inplaceIN5Catch5clara6detail11BoundLambdaIZNS1_21makeCommandLineParserERNS1_10ConfigDataEEUlRKNSt7__cxx1112basic_stringIcSt11char_traitsIcESaIcEEEE_EESaISG_ELN9__gnu_cxx12_Lock_policyE2EEEE10deallocateERSL_PSK_m
FNDA:1,_ZNSt16allocator_traitsISaISt23_Sp_counted_ptr_inplaceIN5Catch5clara6detail11BoundLambdaIZNS1_21makeCommandLineParserERNS1_10ConfigDataEEUliE7_EESaIS8_ELN9__gnu_cxx12_Lock_policyE2EEEE10deallocateERSD_PSC_m
FNDA:1,_ZNSt16allocator_traitsISaISt23_Sp_counted_ptr_inplaceIN5Catch17ReporterRegistrarINS1_11XmlReporterEE15ReporterFactoryESaIS5_ELN9__gnu_cxx12_Lock_policyE2EEEE10deallocateERSA_PS9_m
FNDA:1,_ZNSt16allocator_traitsISaISt23_Sp_counted_ptr_inplaceIN5Catch17ReporterRegistrarINS1_13JunitReporterEE15ReporterFactoryESaIS5_ELN9__gnu_cxx12_Lock_policyE2EEEE10deallocateERSA_PS9_m
FNDA:0,_ZNSt16allocator_traitsISaISt23_Sp_counted_ptr_inplaceIN5Catch22CumulativeReporterBaseINS1_13JunitReporterEE4NodeINS1_14TestGroupStatsENS5_INS1_13TestCaseStatsENS4_11SectionNodeEEEEESaISA_ELN9__gnu_cxx12_Lock_policyE2EEEE10deallocateERSF_PSE_m
FNDA:0,_ZNSt16allocator_traitsISaISt23_Sp_counted_ptr_inplaceIN5Catch22CumulativeReporterBaseINS1_13JunitReporterEE4NodeINS1_13TestCaseStatsENS4_11SectionNodeEEESaIS8_ELN9__gnu_cxx12_Lock_policyE2EEEE10deallocateERSD_PSC_m
FNDA:1,_ZNSt16allocator_traitsISaISt23_Sp_counted_ptr_inplaceIN5Catch17ReporterRegistrarINS1_15ConsoleReporterEE15ReporterFactoryESaIS5_ELN9__gnu_cxx12_Lock_policyE2EEEE10deallocateERSA_PS9_m
FNDA:1,_ZNSt16allocator_traitsISaISt23_Sp_counted_ptr_inplaceIN5Catch17ReporterRegistrarINS1_15CompactReporterEE15ReporterFactoryESaIS5_ELN9__gnu_cxx12_Lock_policyE2EEEE10deallocateERSA_PS9_m
FNDA:1,_ZNSt16allocator_traitsISaISt23_Sp_counted_ptr_inplaceIN5Catch8TestSpec10TagPatternESaIS3_ELN9__gnu_cxx12_Lock_policyE2EEEE10deallocateERS8_PS7_m
FNDA:1,_ZNSt16allocator_traitsISaISt23_Sp_counted_ptr_inplaceIN5Catch8TestSpec15ExcludedPatternESaIS3_ELN9__gnu_cxx12_Lock_policyE2EEEE10deallocateERS8_PS7_m
FNDA:0,_ZNSt16allocator_traitsISaISt23_Sp_counted_ptr_inplaceIN5Catch8TestSpec11NamePatternESaIS3_ELN9__gnu_cxx12_Lock_policyE2EEEE10deallocateERS8_PS7_m
FNDA:3,_ZNSt16allocator_traitsISaISt23_Sp_counted_ptr_inplaceIN5Catch5clara6detail8BoundRefISt6vectorINSt7__cxx1112basic_stringIcSt11char_traitsIcESaIcEEESaISB_EEEESaISE_ELN9__gnu_cxx12_Lock_policyE2EEEE10deallocateERSJ_PSI_m
FNDA:1,_ZNSt16allocator_traitsISaISt23_Sp_counted_ptr_inplaceIN5Catch5clara6detail15BoundFlagLambdaIZNS1_21makeCommandLineParserERNS1_10ConfigDataEEUlbE6_EESaIS8_ELN9__gnu_cxx12_Lock_policyE2EEEE10deallocateERSD_PSC_m
FNDA:1,_ZNSt16allocator_traitsISaISt23_Sp_counted_ptr_inplaceIN5Catch5clara6detail15BoundFlagLambdaIZNS3_4HelpC4ERbEUlbE_EESaIS8_ELN9__gnu_cxx12_Lock_policyE2EEEE10deallocateERSD_PSC_m
FNDA:0,_ZNSt16allocator_traitsISaISt23_Sp_counted_ptr_inplaceIN5Catch16TestCaseTracking12IndexTrackerESaIS3_ELN9__gnu_cxx12_Lock_policyE2EEEE10deallocateERS8_PS7_m
FNDA:10,_ZNSt16allocator_traitsISaISt23_Sp_counted_ptr_inplaceIN5Catch16TestCaseTracking14SectionTrackerESaIS3_ELN9__gnu_cxx12_Lock_policyE2EEEE10deallocateERS8_PS7_m
FNDA:1,_ZNSt16allocator_traitsISaISt23_Sp_counted_ptr_inplaceIN5Catch6ConfigESaIS2_ELN9__gnu_cxx12_Lock_policyE2EEEE10deallocateERS7_PS6_m
FNDA:10,_ZNSt16allocator_traitsISaISt23_Sp_counted_ptr_inplaceIN5Catch5clara6detail12BoundFlagRefESaIS4_ELN9__gnu_cxx12_Lock_policyE2EEEE10deallocateERS9_PS8_m
FNDA:3,_ZNSt16allocator_traitsISaISt23_Sp_counted_ptr_inplaceIN5Catch5clara6detail8BoundRefINSt7__cxx1112basic_stringIcSt11char_traitsIcESaIcEEEEESaISB_ELN9__gnu_cxx12_Lock_policyE2EEEE10deallocateERSG_PSF_m
FNDA:3,_ZNSt16allocator_traitsISaISt23_Sp_counted_ptr_inplaceINSt7__cxx1112basic_stringIcSt11char_traitsIcESaIcEEESaIS6_ELN9__gnu_cxx12_Lock_policyE2EEEE10deallocateERSB_PSA_m
FNDA:1,_ZNSt16allocator_traitsISaISt13_Rb_tree_nodeIN5Catch9VerbosityEEEE10deallocateERS4_PS3_m
FNDA:3,_ZNSt16allocator_traitsISaISt13_Rb_tree_nodeIN5Catch8TestCaseEEEE10deallocateERS4_PS3_m
FNDA:0,_ZNSt16allocator_traitsISaISt13_Rb_tree_nodeISt4pairIKNSt7__cxx1112basic_stringIcSt11char_traitsIcESaIcEEEN5Catch8TagAliasEEEEE10deallocateERSD_PSC_m
FNDA:4,_ZNSt16allocator_traitsISaISt13_Rb_tree_nodeISt4pairIKNSt7__cxx1112basic_stringIcSt11char_traitsIcESaIcEEESt10shared_ptrIN5Catch16IReporterFactoryEEEEEE10deallocateERSF_PSE_m
FNDA:0,_ZNSt16allocator_traitsISaISt13_Rb_tree_nodeINSt7__cxx1112basic_stringIcSt11char_traitsIcESaIcEEEEEE10deallocateERS8_PS7_m
FNDA:0,_ZNSt16allocator_traitsISaISt13_Rb_tree_nodeISt4pairIKNSt7__cxx1112basic_stringIcSt11char_traitsIcESaIcEEEN5Catch7TagInfoEEEEE10deallocateERSD_PSC_m
FNDA:0,_ZNSt16allocator_traitsISaISt10shared_ptrIN5Catch22CumulativeReporterBaseINS1_13JunitReporterEE11SectionNodeEEEE10deallocateERS7_PS6_m
FNDA:0,_ZNSt16allocator_traitsISaISt10shared_ptrIN5Catch22CumulativeReporterBaseINS1_13JunitReporterEE4NodeINS1_12TestRunStatsENS5_INS1_14TestGroupStatsENS5_INS1_13TestCaseStatsENS4_11SectionNodeEEEEEEEEEE10deallocateERSE_PSD_m
FNDA:0,_ZNSt16allocator_traitsISaISt10shared_ptrIN5Catch22CumulativeReporterBaseINS1_13JunitReporterEE4NodeINS1_14TestGroupStatsENS5_INS1_13TestCaseStatsENS4_11SectionNodeEEEEEEEE10deallocateERSC_PSB_m
FNDA:0,_ZNSt16allocator_traitsISaISt10shared_ptrIN5Catch22CumulativeReporterBaseINS1_13JunitReporterEE4NodeINS1_13TestCaseStatsENS4_11SectionNodeEEEEEE10deallocateERSA_PS9_m
FNDA:0,_ZNSt16allocator_traitsISaISt6vectorISt10shared_ptrIN5Catch22CumulativeReporterBaseINS2_13JunitReporterEE11SectionNodeEESaIS7_EEEE10deallocateERSA_PS9_m
FNDA:0,_ZNSt16allocator_traitsISaIN5Catch14AssertionStatsEEE10deallocateERS2_PS1_m
FNDA:0,_ZNSt16allocator_traitsISaIN5Catch15ConsoleReporter13SummaryColumnEEE10deallocateERS3_PS2_m
FNDA:2,_ZNSt16allocator_traitsISaIN5Catch12_GLOBAL__N_110ColumnInfoEEE10deallocateERS3_PS2_m
FNDA:2,_ZNSt16allocator_traitsISaIN5Catch11SectionInfoEEE10deallocateERS2_PS1_m
FNDA:7,_ZNSt16allocator_traitsISaISt10shared_ptrIN5Catch16TestCaseTracking8ITrackerEEEE10deallocateERS5_PS4_m
FNDA:1,_ZNSt16allocator_traitsISaIPN5Catch16TestCaseTracking8ITrackerEEE10deallocateERS4_PS3_m
FNDA:0,_ZNSt16allocator_traitsISaIN5Catch14SectionEndInfoEEE10deallocateERS2_PS1_m
FNDA:0,_ZNSt16allocator_traitsISaINSt15__exception_ptr13exception_ptrEEE10deallocateERS2_PS1_m
FNDA:0,_ZNSt16allocator_traitsISaISt10shared_ptrIN5Catch16IReporterFactoryEEEE10deallocateERS4_PS3_m
FNDA:0,_ZNSt16allocator_traitsISaISt10unique_ptrIN5Catch18IStreamingReporterESt14default_deleteIS2_EEEE10deallocateERS6_PS5_m
FNDA:0,_ZNSt16allocator_traitsISaIN5Catch11MessageInfoEEE10deallocateERS2_PS1_m
FNDA:0,_ZNSt16allocator_traitsISaISt10unique_ptrIKN5Catch20IExceptionTranslatorESt14default_deleteIS3_EEEE10deallocateERS7_PS6_m
FNDA:3,_ZNSt16allocator_traitsISaISt10shared_ptrIN5Catch8TestSpec7PatternEEEE10deallocateERS5_PS4_m
FNDA:0,_ZNSt16allocator_traitsISaImEE10deallocateERS0_Pmm
FNDA:2,_ZNSt16allocator_traitsISaIN5Catch8TestSpec6FilterEEE10deallocateERS3_PS2_m
FNDA:0,_ZNSt16allocator_traitsISaIN5Catch5clara6detail11HelpColumnsEEE10deallocateERS4_PS3_m
FNDA:0,_ZNSt16allocator_traitsISaIN5Catch5clara6detail5TokenEEE10deallocateERS4_PS3_m
FNDA:0,_ZNSt16allocator_traitsISaIN5Catch5clara8TextFlow6ColumnEEE10deallocateERS4_PS3_m
FNDA:4,_ZNSt16allocator_traitsISaIN5Catch8TestCaseEEE10deallocateERS2_PS1_m
FNDA:2,_ZNSt16allocator_traitsISaIN5Catch5clara6detail3ArgEEE10deallocateERS4_PS3_m
FNDA:79,_ZNSt16allocator_traitsISaIN5Catch5clara6detail3OptEEE10deallocateERS4_PS3_m
FNDA:850,_ZNSt16allocator_traitsISaINSt7__cxx1112basic_stringIcSt11char_traitsIcESaIcEEEEE10deallocateERS6_PS5_m
FNDA:0,_ZNSt16allocator_traitsISaIN5Catch5clara8TextFlow6Column8iteratorEEE10deallocateERS5_PS4_m
FNDA:0,_ZNSt16allocator_traitsISaIN5Catch22CumulativeReporterBaseINS0_13JunitReporterEE4NodeINS0_12TestRunStatsENS4_INS0_14TestGroupStatsENS4_INS0_13TestCaseStatsENS3_11SectionNodeEEEEEEEEE9constructISB_JRKS5_EEEvRSC_PT_DpOT0_
FNDA:0,_ZNSt16allocator_traitsISaIN5Catch22CumulativeReporterBaseINS0_13JunitReporterEE11SectionNodeEEE9constructIS4_JRNS0_12SectionStatsEEEEvRS5_PT_DpOT0_
FNDA:0,_ZNSt16allocator_traitsISaISt10shared_ptrIN5Catch22CumulativeReporterBaseINS1_13JunitReporterEE4NodeINS1_12TestRunStatsENS5_INS1_14TestGroupStatsENS5_INS1_13TestCaseStatsENS4_11SectionNodeEEEEEEEEEE9constructISD_JRKSD_EEEvRSE_PT_DpOT0_
FNDA:1,_ZNSt16allocator_traitsISaISt13_Rb_tree_nodeIN5Catch9VerbosityEEEE9constructIS2_JRKS2_EEEvRS4_PT_DpOT0_
FNDA:1,_ZNSt16allocator_traitsISaIN5Catch5clara6detail8BoundRefIiEEEE9constructIS4_JRiEEEvRS5_PT_DpOT0_
FNDA:1,_ZNSt16allocator_traitsISaIN5Catch5clara6detail11BoundLambdaIZNS0_21makeCommandLineParserERNS0_10ConfigDataEEUlRKNSt7__cxx1112basic_stringIcSt11char_traitsIcESaIcEEEE4_EEEE9constructISF_JRKSE_EEEvRSG_PT_DpOT0_
FNDA:1,_ZNSt16allocator_traitsISaIN5Catch5clara6detail11BoundLambdaIZNS0_21makeCommandLineParserERNS0_10ConfigDataEEUlRKNSt7__cxx1112basic_stringIcSt11char_traitsIcESaIcEEEE3_EEEE9constructISF_JRKSE_EEEvRSG_PT_DpOT0_
FNDA:1,_ZNSt16allocator_traitsISaIN5Catch5clara6detail11BoundLambdaIZNS0_21makeCommandLineParserERNS0_10ConfigDataEEUlRKNSt7__cxx1112basic_stringIcSt11char_traitsIcESaIcEEEE2_EEEE9constructISF_JRKSE_EEEvRSG_PT_DpOT0_
FNDA:1,_ZNSt16allocator_traitsISaIN5Catch5clara6detail11BoundLambdaIZNS0_21makeCommandLineParserERNS0_10ConfigDataEEUlRKNSt7__cxx1112basic_stringIcSt11char_traitsIcESaIcEEEE1_EEEE9constructISF_JRKSE_EEEvRSG_PT_DpOT0_
FNDA:1,_ZNSt16allocator_traitsISaIN5Catch5clara6detail11BoundLambdaIZNS0_21makeCommandLineParserERNS0_10ConfigDataEEUlRKNSt7__cxx1112basic_stringIcSt11char_traitsIcESaIcEEEE5_EEEE9constructISF_JRKSE_EEEvRSG_PT_DpOT0_
FNDA:1,_ZNSt16allocator_traitsISaIN5Catch5clara6detail11BoundLambdaIZNS0_21makeCommandLineParserERNS0_10ConfigDataEEUlRKNSt7__cxx1112basic_stringIcSt11char_traitsIcESaIcEEEE0_EEEE9constructISF_JRKSE_EEEvRSG_PT_DpOT0_
FNDA:1,_ZNSt16allocator_traitsISaIN5Catch5clara6detail11BoundLambdaIZNS0_21makeCommandLineParserERNS0_10ConfigDataEEUlbE8_EEEE9constructIS7_JRKS6_EEEvRS8_PT_DpOT0_
FNDA:1,_ZNSt16allocator_traitsISaIN5Catch5clara6detail11BoundLambdaIZNS0_21makeCommandLineParserERNS0_10ConfigDataEEUlRKNSt7__cxx1112basic_stringIcSt11char_traitsIcESaIcEEEE_EEEE9constructISF_JRKSE_EEEvRSG_PT_DpOT0_
FNDA:1,_ZNSt16allocator_traitsISaIN5Catch5clara6detail11BoundLambdaIZNS0_21makeCommandLineParserERNS0_10ConfigDataEEUliE7_EEEE9constructIS7_JRKS6_EEEvRS8_PT_DpOT0_
FNDA:1,_ZNSt16allocator_traitsISaIN5Catch17ReporterRegistrarINS0_11XmlReporterEE15ReporterFactoryEEE9constructIS4_JEEEvRS5_PT_DpOT0_
FNDA:1,_ZNSt16allocator_traitsISaIN5Catch17ReporterRegistrarINS0_13JunitReporterEE15ReporterFactoryEEE9constructIS4_JEEEvRS5_PT_DpOT0_
FNDA:0,_ZNSt16allocator_traitsISaIN5Catch22CumulativeReporterBaseINS0_13JunitReporterEE4NodeINS0_14TestGroupStatsENS4_INS0_13TestCaseStatsENS3_11SectionNodeEEEEEEE9constructIS9_JRKS5_EEEvRSA_PT_DpOT0_
FNDA:0,_ZNSt16allocator_traitsISaIN5Catch22CumulativeReporterBaseINS0_13JunitReporterEE4NodeINS0_13TestCaseStatsENS3_11SectionNodeEEEEE9constructIS7_JRKS5_EEEvRS8_PT_DpOT0_
FNDA:1,_ZNSt16allocator_traitsISaIN5Catch17ReporterRegistrarINS0_15ConsoleReporterEE15ReporterFactoryEEE9constructIS4_JEEEvRS5_PT_DpOT0_
FNDA:1,_ZNSt16allocator_traitsISaIN5Catch17ReporterRegistrarINS0_15CompactReporterEE15ReporterFactoryEEE9constructIS4_JEEEvRS5_PT_DpOT0_
FNDA:1,_ZNSt16allocator_traitsISaIN5Catch8TestSpec10TagPatternEEE9constructIS2_JRNSt7__cxx1112basic_stringIcSt11char_traitsIcESaIcEEEEEEvRS3_PT_DpOT0_
FNDA:1,_ZNSt16allocator_traitsISaIN5Catch8TestSpec15ExcludedPatternEEE9constructIS2_JRSt10shared_ptrINS1_7PatternEEEEEvRS3_PT_DpOT0_
FNDA:0,_ZNSt16allocator_traitsISaIN5Catch8TestSpec11NamePatternEEE9constructIS2_JRNSt7__cxx1112basic_stringIcSt11char_traitsIcESaIcEEEEEEvRS3_PT_DpOT0_
FNDA:3,_ZNSt16allocator_traitsISaIN5Catch5clara6detail8BoundRefISt6vectorINSt7__cxx1112basic_stringIcSt11char_traitsIcESaIcEEESaISA_EEEEEE9constructISD_JRSC_EEEvRSE_PT_DpOT0_
FNDA:1,_ZNSt16allocator_traitsISaIN5Catch5clara6detail15BoundFlagLambdaIZNS0_21makeCommandLineParserERNS0_10ConfigDataEEUlbE6_EEEE9constructIS7_JRKS6_EEEvRS8_PT_DpOT0_
FNDA:1,_ZNSt16allocator_traitsISaIN5Catch5clara6detail15BoundFlagLambdaIZNS2_4HelpC4ERbEUlbE_EEEE9constructIS7_JRKS6_EEEvRS8_PT_DpOT0_
FNDA:0,_ZNSt16allocator_traitsISaIN5Catch16TestCaseTracking12IndexTrackerEEE9constructIS2_JRKNS1_15NameAndLocationERNS1_14TrackerContextEPNS1_8ITrackerERiEEEvRS3_PT_DpOT0_
FNDA:7,_ZNSt16allocator_traitsISaIN5Catch16TestCaseTracking14SectionTrackerEEE9constructIS2_JRKNS1_15NameAndLocationERNS1_14TrackerContextEPNS1_8ITrackerEEEEvRS3_PT_DpOT0_
FNDA:3,_ZNSt16allocator_traitsISaIN5Catch16TestCaseTracking14SectionTrackerEEE9constructIS2_JNS1_15NameAndLocationERNS1_14TrackerContextEDnEEEvRS3_PT_DpOT0_
FNDA:3,_ZNSt16allocator_traitsISaISt13_Rb_tree_nodeIN5Catch8TestCaseEEEE9constructIS2_JRKS2_EEEvRS4_PT_DpOT0_
FNDA:0,_ZNSt16allocator_traitsISaISt13_Rb_tree_nodeISt4pairIKNSt7__cxx1112basic_stringIcSt11char_traitsIcESaIcEEEN5Catch8TagAliasEEEEE9constructISB_JS1_IS7_SA_EEEEvRSD_PT_DpOT0_
FNDA:1,_ZNSt16allocator_traitsISaIN5Catch6ConfigEEE9constructIS1_JRNS0_10ConfigDataEEEEvRS2_PT_DpOT0_
FNDA:0,_ZNSt16allocator_traitsISaISt13_Rb_tree_nodeISt4pairIKNSt7__cxx1112basic_stringIcSt11char_traitsIcESaIcEEEN5Catch7TagInfoEEEEE9constructISB_JS1_IS7_SA_EEEEvRSD_PT_DpOT0_
FNDA:0,_ZNSt16allocator_traitsISaISt13_Rb_tree_nodeINSt7__cxx1112basic_stringIcSt11char_traitsIcESaIcEEEEEE9constructIS6_JRKS6_EEEvRS8_PT_DpOT0_
FNDA:10,_ZNSt16allocator_traitsISaIN5Catch5clara6detail12BoundFlagRefEEE9constructIS3_JRbEEEvRS4_PT_DpOT0_
FNDA:3,_ZNSt16allocator_traitsISaIN5Catch5clara6detail8BoundRefINSt7__cxx1112basic_stringIcSt11char_traitsIcESaIcEEEEEEE9constructISA_JRS9_EEEvRSB_PT_DpOT0_
FNDA:3,_ZNSt16allocator_traitsISaINSt7__cxx1112basic_stringIcSt11char_traitsIcESaIcEEEEE9constructIS5_JRA13_KcEEEvRS6_PT_DpOT0_
FNDA:4,_ZNSt16allocator_traitsISaISt13_Rb_tree_nodeISt4pairIKNSt7__cxx1112basic_stringIcSt11char_traitsIcESaIcEEESt10shared_ptrIN5Catch16IReporterFactoryEEEEEE9constructISD_JRS8_RKSC_EEEvRSF_PT_DpOT0_
FNDA:0,_ZNSt16allocator_traitsISaISt10unique_ptrIN5Catch18IStreamingReporterESt14default_deleteIS2_EEEE9constructIS5_JS5_EEEvRS6_PT_DpOT0_
FNDA:0,_ZNSt16allocator_traitsISaISt10shared_ptrIN5Catch22CumulativeReporterBaseINS1_13JunitReporterEE4NodeINS1_14TestGroupStatsENS5_INS1_13TestCaseStatsENS4_11SectionNodeEEEEEEEE9constructISB_JRKSB_EEEvRSC_PT_DpOT0_
FNDA:0,_ZNSt16allocator_traitsISaISt10shared_ptrIN5Catch22CumulativeReporterBaseINS1_13JunitReporterEE4NodeINS1_13TestCaseStatsENS4_11SectionNodeEEEEEE9constructIS9_JRKS9_EEEvRSA_PT_DpOT0_
FNDA:0,_ZNSt16allocator_traitsISaISt10shared_ptrIN5Catch22CumulativeReporterBaseINS1_13JunitReporterEE11SectionNodeEEEE9constructIS6_JRKS6_EEEvRS7_PT_DpOT0_
FNDA:0,_ZNSt16allocator_traitsISaIN5Catch14AssertionStatsEEE9constructIS1_JRKS1_EEEvRS2_PT_DpOT0_
FNDA:0,_ZNSt16allocator_traitsISaIN5Catch15ConsoleReporter13SummaryColumnEEE9constructIS2_JS2_EEEvRS3_PT_DpOT0_
FNDA:8,_ZNSt16allocator_traitsISaIN5Catch11SectionInfoEEE9constructIS1_JRKS1_EEEvRS2_PT_DpOT0_
FNDA:1,_ZNSt16allocator_traitsISaISt10shared_ptrIN5Catch8TestSpec7PatternEEEE9constructIS4_JRKS4_EEEvRS5_PT_DpOT0_
FNDA:4,_ZNSt16allocator_traitsISaIPN5Catch16TestCaseTracking8ITrackerEEE9constructIS3_JS3_EEEvRS4_PT_DpOT0_
FNDA:0,_ZNSt16allocator_traitsISaISt10unique_ptrIKN5Catch20IExceptionTranslatorESt14default_deleteIS3_EEEE9constructIS6_JS6_EEEvRS7_PT_DpOT0_
FNDA:0,_ZNSt16allocator_traitsISaIN5Catch5clara6detail5TokenEEE9constructIS3_JS3_EEEvRS4_PT_DpOT0_
FNDA:0,_ZNSt16allocator_traitsISaINSt7__cxx1112basic_stringIcSt11char_traitsIcESaIcEEEEE9constructIS5_JS5_EEEvRS6_PT_DpOT0_
FNDA:0,_ZNSt16allocator_traitsISaIN5Catch5clara8TextFlow6Column8iteratorEEE9constructIS4_JS4_EEEvRS5_PT_DpOT0_
FNDA:1,_ZNSt16allocator_traitsISaIN5Catch8TestSpec6FilterEEE9constructIS2_JRKS2_EEEvRS3_PT_DpOT0_
FNDA:0,_ZNSt16allocator_traitsISaImEE9constructImJRKmEEEvRS0_PT_DpOT0_
FNDA:7,_ZNSt16allocator_traitsISaISt10shared_ptrIN5Catch16TestCaseTracking8ITrackerEEEE9constructIS4_JRKS4_EEEvRS5_PT_DpOT0_
FNDA:3,_ZNSt16allocator_traitsISaIN5Catch8TestCaseEEE9constructIS1_JRKS1_EEEvRS2_PT_DpOT0_
FNDA:0,_ZNSt16allocator_traitsISaINSt15__exception_ptr13exception_ptrEEE9constructIS1_JRKS1_EEEvRS2_PT_DpOT0_
FNDA:0,_ZNSt16allocator_traitsISaIN5Catch14SectionEndInfoEEE9constructIS1_JRKS1_EEEvRS2_PT_DpOT0_
FNDA:0,_ZNSt16allocator_traitsISaISt10shared_ptrIN5Catch16IReporterFactoryEEEE9constructIS3_JRKS3_EEEvRS4_PT_DpOT0_
FNDA:0,_ZNSt16allocator_traitsISaIN5Catch11MessageInfoEEE9constructIS1_JRKS1_EEEvRS2_PT_DpOT0_
FNDA:26,_ZNSt16allocator_traitsISaIN5Catch5clara6detail3OptEEE9constructIS3_JRKS3_EEEvRS4_PT_DpOT0_
FNDA:1,_ZNSt16allocator_traitsISaIN5Catch5clara6detail3ArgEEE9constructIS3_JRKS3_EEEvRS4_PT_DpOT0_
FNDA:0,_ZNSt16allocator_traitsISaIN5Catch5clara8TextFlow6ColumnEEE9constructIS3_JRKS3_EEEvRS4_PT_DpOT0_
FNDA:51,_ZNSt16allocator_traitsISaINSt7__cxx1112basic_stringIcSt11char_traitsIcESaIcEEEEE9constructIS5_JRKS5_EEEvRS6_PT_DpOT0_
FNDA:0,_ZNSt16allocator_traitsISaIN5Catch22CumulativeReporterBaseINS0_13JunitReporterEE11SectionNodeEEE7destroyIS4_EEvRS5_PT_
FNDA:0,_ZNSt16allocator_traitsISaIN5Catch22CumulativeReporterBaseINS0_13JunitReporterEE4NodeINS0_12TestRunStatsENS4_INS0_14TestGroupStatsENS4_INS0_13TestCaseStatsENS3_11SectionNodeEEEEEEEEE7destroyISB_EEvRSC_PT_
FNDA:0,_ZNSt16allocator_traitsISaISt10shared_ptrIN5Catch22CumulativeReporterBaseINS1_13JunitReporterEE4NodeINS1_12TestRunStatsENS5_INS1_14TestGroupStatsENS5_INS1_13TestCaseStatsENS4_11SectionNodeEEEEEEEEEE7destroyISD_EEvRSE_PT_
FNDA:3,_ZNSt16allocator_traitsISaIN5Catch5clara6detail8BoundRefINSt7__cxx1112basic_stringIcSt11char_traitsIcESaIcEEEEEEE7destroyISA_EEvRSB_PT_
FNDA:10,_ZNSt16allocator_traitsISaIN5Catch5clara6detail12BoundFlagRefEEE7destroyIS3_EEvRS4_PT_
FNDA:1,_ZNSt16allocator_traitsISaIN5Catch6ConfigEEE7destroyIS1_EEvRS2_PT_
FNDA:10,_ZNSt16allocator_traitsISaIN5Catch16TestCaseTracking14SectionTrackerEEE7destroyIS2_EEvRS3_PT_
FNDA:0,_ZNSt16allocator_traitsISaIN5Catch16TestCaseTracking12IndexTrackerEEE7destroyIS2_EEvRS3_PT_
FNDA:1,_ZNSt16allocator_traitsISaIN5Catch5clara6detail15BoundFlagLambdaIZNS2_4HelpC4ERbEUlbE_EEEE7destroyIS7_EEvRS8_PT_
FNDA:1,_ZNSt16allocator_traitsISaIN5Catch5clara6detail15BoundFlagLambdaIZNS0_21makeCommandLineParserERNS0_10ConfigDataEEUlbE6_EEEE7destroyIS7_EEvRS8_PT_
FNDA:3,_ZNSt16allocator_traitsISaIN5Catch5clara6detail8BoundRefISt6vectorINSt7__cxx1112basic_stringIcSt11char_traitsIcESaIcEEESaISA_EEEEEE7destroyISD_EEvRSE_PT_
FNDA:0,_ZNSt16allocator_traitsISaIN5Catch8TestSpec11NamePatternEEE7destroyIS2_EEvRS3_PT_
FNDA:1,_ZNSt16allocator_traitsISaIN5Catch8TestSpec15ExcludedPatternEEE7destroyIS2_EEvRS3_PT_
FNDA:1,_ZNSt16allocator_traitsISaIN5Catch8TestSpec10TagPatternEEE7destroyIS2_EEvRS3_PT_
FNDA:1,_ZNSt16allocator_traitsISaIN5Catch17ReporterRegistrarINS0_15CompactReporterEE15ReporterFactoryEEE7destroyIS4_EEvRS5_PT_
FNDA:1,_ZNSt16allocator_traitsISaIN5Catch17ReporterRegistrarINS0_15ConsoleReporterEE15ReporterFactoryEEE7destroyIS4_EEvRS5_PT_
FNDA:0,_ZNSt16allocator_traitsISaIN5Catch22CumulativeReporterBaseINS0_13JunitReporterEE4NodeINS0_13TestCaseStatsENS3_11SectionNodeEEEEE7destroyIS7_EEvRS8_PT_
FNDA:0,_ZNSt16allocator_traitsISaIN5Catch22CumulativeReporterBaseINS0_13JunitReporterEE4NodeINS0_14TestGroupStatsENS4_INS0_13TestCaseStatsENS3_11SectionNodeEEEEEEE7destroyIS9_EEvRSA_PT_
FNDA:1,_ZNSt16allocator_traitsISaIN5Catch17ReporterRegistrarINS0_13JunitReporterEE15ReporterFactoryEEE7destroyIS4_EEvRS5_PT_
FNDA:1,_ZNSt16allocator_traitsISaIN5Catch17ReporterRegistrarINS0_11XmlReporterEE15ReporterFactoryEEE7destroyIS4_EEvRS5_PT_
FNDA:1,_ZNSt16allocator_traitsISaIN5Catch5clara6detail11BoundLambdaIZNS0_21makeCommandLineParserERNS0_10ConfigDataEEUliE7_EEEE7destroyIS7_EEvRS8_PT_
FNDA:1,_ZNSt16allocator_traitsISaIN5Catch5clara6detail11BoundLambdaIZNS0_21makeCommandLineParserERNS0_10ConfigDataEEUlRKNSt7__cxx1112basic_stringIcSt11char_traitsIcESaIcEEEE_EEEE7destroyISF_EEvRSG_PT_
FNDA:1,_ZNSt16allocator_traitsISaIN5Catch5clara6detail11BoundLambdaIZNS0_21makeCommandLineParserERNS0_10ConfigDataEEUlbE8_EEEE7destroyIS7_EEvRS8_PT_
FNDA:1,_ZNSt16allocator_traitsISaIN5Catch5clara6detail11BoundLambdaIZNS0_21makeCommandLineParserERNS0_10ConfigDataEEUlRKNSt7__cxx1112basic_stringIcSt11char_traitsIcESaIcEEEE0_EEEE7destroyISF_EEvRSG_PT_
FNDA:1,_ZNSt16allocator_traitsISaIN5Catch5clara6detail11BoundLambdaIZNS0_21makeCommandLineParserERNS0_10ConfigDataEEUlRKNSt7__cxx1112basic_stringIcSt11char_traitsIcESaIcEEEE5_EEEE7destroyISF_EEvRSG_PT_
FNDA:1,_ZNSt16allocator_traitsISaIN5Catch5clara6detail11BoundLambdaIZNS0_21makeCommandLineParserERNS0_10ConfigDataEEUlRKNSt7__cxx1112basic_stringIcSt11char_traitsIcESaIcEEEE1_EEEE7destroyISF_EEvRSG_PT_
FNDA:1,_ZNSt16allocator_traitsISaIN5Catch5clara6detail11BoundLambdaIZNS0_21makeCommandLineParserERNS0_10ConfigDataEEUlRKNSt7__cxx1112basic_stringIcSt11char_traitsIcESaIcEEEE2_EEEE7destroyISF_EEvRSG_PT_
FNDA:1,_ZNSt16allocator_traitsISaIN5Catch5clara6detail11BoundLambdaIZNS0_21makeCommandLineParserERNS0_10ConfigDataEEUlRKNSt7__cxx1112basic_stringIcSt11char_traitsIcESaIcEEEE3_EEEE7destroyISF_EEvRSG_PT_
FNDA:1,_ZNSt16allocator_traitsISaIN5Catch5clara6detail11BoundLambdaIZNS0_21makeCommandLineParserERNS0_10ConfigDataEEUlRKNSt7__cxx1112basic_stringIcSt11char_traitsIcESaIcEEEE4_EEEE7destroyISF_EEvRSG_PT_
FNDA:1,_ZNSt16allocator_traitsISaIN5Catch5clara6detail8BoundRefIiEEEE7destroyIS4_EEvRS5_PT_
FNDA:1,_ZNSt16allocator_traitsISaISt13_Rb_tree_nodeIN5Catch9VerbosityEEEE7destroyIS2_EEvRS4_PT_
FNDA:3,_ZNSt16allocator_traitsISaISt13_Rb_tree_nodeIN5Catch8TestCaseEEEE7destroyIS2_EEvRS4_PT_
FNDA:0,_ZNSt16allocator_traitsISaISt13_Rb_tree_nodeISt4pairIKNSt7__cxx1112basic_stringIcSt11char_traitsIcESaIcEEEN5Catch8TagAliasEEEEE7destroyISB_EEvRSD_PT_
FNDA:4,_ZNSt16allocator_traitsISaISt13_Rb_tree_nodeISt4pairIKNSt7__cxx1112basic_stringIcSt11char_traitsIcESaIcEEESt10shared_ptrIN5Catch16IReporterFactoryEEEEEE7destroyISD_EEvRSF_PT_
FNDA:0,_ZNSt16allocator_traitsISaISt13_Rb_tree_nodeINSt7__cxx1112basic_stringIcSt11char_traitsIcESaIcEEEEEE7destroyIS6_EEvRS8_PT_
FNDA:0,_ZNSt16allocator_traitsISaISt13_Rb_tree_nodeISt4pairIKNSt7__cxx1112basic_stringIcSt11char_traitsIcESaIcEEEN5Catch7TagInfoEEEEE7destroyISB_EEvRSD_PT_
FNDA:0,_ZNSt16allocator_traitsISaISt10unique_ptrIN5Catch18IStreamingReporterESt14default_deleteIS2_EEEE7destroyIS5_EEvRS6_PT_
FNDA:0,_ZNSt16allocator_traitsISaISt10shared_ptrIN5Catch22CumulativeReporterBaseINS1_13JunitReporterEE4NodeINS1_14TestGroupStatsENS5_INS1_13TestCaseStatsENS4_11SectionNodeEEEEEEEE7destroyISB_EEvRSC_PT_
FNDA:0,_ZNSt16allocator_traitsISaISt10shared_ptrIN5Catch22CumulativeReporterBaseINS1_13JunitReporterEE4NodeINS1_13TestCaseStatsENS4_11SectionNodeEEEEEE7destroyIS9_EEvRSA_PT_
FNDA:0,_ZNSt16allocator_traitsISaISt10shared_ptrIN5Catch22CumulativeReporterBaseINS1_13JunitReporterEE11SectionNodeEEEE7destroyIS6_EEvRS7_PT_
FNDA:0,_ZNSt16allocator_traitsISaIN5Catch14AssertionStatsEEE7destroyIS1_EEvRS2_PT_
FNDA:0,_ZNSt16allocator_traitsISaIN5Catch15ConsoleReporter13SummaryColumnEEE7destroyIS2_EEvRS3_PT_
FNDA:0,_ZNSt16allocator_traitsISaISt10shared_ptrIN5Catch8TestSpec7PatternEEEE7destroyIS4_EEvRS5_PT_
FNDA:0,_ZNSt16allocator_traitsISaISt10unique_ptrIKN5Catch20IExceptionTranslatorESt14default_deleteIS3_EEEE7destroyIS6_EEvRS7_PT_
FNDA:0,_ZNSt16allocator_traitsISaIN5Catch5clara8TextFlow6Column8iteratorEEE7destroyIS4_EEvRS5_PT_
FNDA:8,_ZNSt16allocator_traitsISaIN5Catch11SectionInfoEEE7destroyIS1_EEvRS2_PT_
FNDA:0,_ZNSt16allocator_traitsISaIN5Catch8TestSpec6FilterEEE7destroyIS2_EEvRS3_PT_
FNDA:0,_ZNSt16allocator_traitsISaImEE7destroyImEEvRS0_PT_
FNDA:0,_ZNSt16allocator_traitsISaISt10shared_ptrIN5Catch16TestCaseTracking8ITrackerEEEE7destroyIS4_EEvRS5_PT_
FNDA:0,_ZNSt16allocator_traitsISaIN5Catch8TestCaseEEE7destroyIS1_EEvRS2_PT_
FNDA:0,_ZNSt16allocator_traitsISaINSt15__exception_ptr13exception_ptrEEE7destroyIS1_EEvRS2_PT_
FNDA:0,_ZNSt16allocator_traitsISaIN5Catch14SectionEndInfoEEE7destroyIS1_EEvRS2_PT_
FNDA:0,_ZNSt16allocator_traitsISaISt10shared_ptrIN5Catch16IReporterFactoryEEEE7destroyIS3_EEvRS4_PT_
FNDA:0,_ZNSt16allocator_traitsISaIN5Catch11MessageInfoEEE7destroyIS1_EEvRS2_PT_
FNDA:0,_ZNSt16allocator_traitsISaIN5Catch5clara6detail3OptEEE7destroyIS3_EEvRS4_PT_
FNDA:0,_ZNSt16allocator_traitsISaIN5Catch5clara6detail3ArgEEE7destroyIS3_EEvRS4_PT_
FNDA:0,_ZNSt16allocator_traitsISaIN5Catch5clara6detail5TokenEEE7destroyIS3_EEvRS4_PT_
FNDA:0,_ZNSt16allocator_traitsISaIN5Catch5clara8TextFlow6ColumnEEE7destroyIS3_EEvRS4_PT_
FNDA:3,_ZNSt16allocator_traitsISaINSt7__cxx1112basic_stringIcSt11char_traitsIcESaIcEEEEE7destroyIS5_EEvRS6_PT_
FNDA:4,_ZNSt16allocator_traitsISaIPN5Catch16TestCaseTracking8ITrackerEEE7destroyIS3_EEvRS4_PT_
FNDA:0,_ZNSt16allocator_traitsISaISt10shared_ptrIN5Catch22CumulativeReporterBaseINS1_13JunitReporterEE4NodeINS1_12TestRunStatsENS5_INS1_14TestGroupStatsENS5_INS1_13TestCaseStatsENS4_11SectionNodeEEEEEEEEEE8max_sizeERKSE_
FNDA:0,_ZNSt16allocator_traitsISaISt10unique_ptrIN5Catch18IStreamingReporterESt14default_deleteIS2_EEEE8max_sizeERKS6_
FNDA:0,_ZNSt16allocator_traitsISaISt10shared_ptrIN5Catch22CumulativeReporterBaseINS1_13JunitReporterEE4NodeINS1_14TestGroupStatsENS5_INS1_13TestCaseStatsENS4_11SectionNodeEEEEEEEE8max_sizeERKSC_
FNDA:0,_ZNSt16allocator_traitsISaISt10shared_ptrIN5Catch22CumulativeReporterBaseINS1_13JunitReporterEE4NodeINS1_13TestCaseStatsENS4_11SectionNodeEEEEEE8max_sizeERKSA_
FNDA:0,_ZNSt16allocator_traitsISaISt10shared_ptrIN5Catch22CumulativeReporterBaseINS1_13JunitReporterEE11SectionNodeEEEE8max_sizeERKS7_
FNDA:0,_ZNSt16allocator_traitsISaIN5Catch14AssertionStatsEEE8max_sizeERKS2_
FNDA:0,_ZNSt16allocator_traitsISaIN5Catch15ConsoleReporter13SummaryColumnEEE8max_sizeERKS3_
FNDA:4,_ZNSt16allocator_traitsISaIN5Catch11SectionInfoEEE8max_sizeERKS2_
FNDA:2,_ZNSt16allocator_traitsISaISt10shared_ptrIN5Catch8TestSpec7PatternEEEE8max_sizeERKS5_
FNDA:2,_ZNSt16allocator_traitsISaIPN5Catch16TestCaseTracking8ITrackerEEE8max_sizeERKS4_
FNDA:0,_ZNSt16allocator_traitsISaISt10unique_ptrIKN5Catch20IExceptionTranslatorESt14default_deleteIS3_EEEE8max_sizeERKS7_
FNDA:0,_ZNSt16allocator_traitsISaIN5Catch5clara6detail11HelpColumnsEEE8max_sizeERKS4_
FNDA:2,_ZNSt16allocator_traitsISaIN5Catch8TestSpec6FilterEEE8max_sizeERKS3_
FNDA:0,_ZNSt16allocator_traitsISaImEE8max_sizeERKS0_
FNDA:14,_ZNSt16allocator_traitsISaISt10shared_ptrIN5Catch16TestCaseTracking8ITrackerEEEE8max_sizeERKS5_
FNDA:0,_ZNSt16allocator_traitsISaINSt15__exception_ptr13exception_ptrEEE8max_sizeERKS2_
FNDA:0,_ZNSt16allocator_traitsISaIN5Catch14SectionEndInfoEEE8max_sizeERKS2_
FNDA:0,_ZNSt16allocator_traitsISaISt10shared_ptrIN5Catch16IReporterFactoryEEEE8max_sizeERKS4_
FNDA:0,_ZNSt16allocator_traitsISaIN5Catch11MessageInfoEEE8max_sizeERKS2_
FNDA:52,_ZNSt16allocator_traitsISaIN5Catch5clara6detail3OptEEE8max_sizeERKS4_
FNDA:2,_ZNSt16allocator_traitsISaIN5Catch5clara6detail3ArgEEE8max_sizeERKS4_
FNDA:0,_ZNSt16allocator_traitsISaIN5Catch5clara6detail5TokenEEE8max_sizeERKS4_
FNDA:0,_ZNSt16allocator_traitsISaIN5Catch5clara8TextFlow6ColumnEEE8max_sizeERKS4_
FNDA:102,_ZNSt16allocator_traitsISaINSt7__cxx1112basic_stringIcSt11char_traitsIcESaIcEEEEE8max_sizeERKS6_
FNDA:6,_ZNSt16allocator_traitsISaIN5Catch8TestCaseEEE8max_sizeERKS2_
FNDA:0,_ZNSt16allocator_traitsISaIN5Catch5clara8TextFlow6Column8iteratorEEE8max_sizeERKS5_
FNDA:2,_ZNSt16allocator_traitsISaISt10shared_ptrIN5Catch8TestSpec7PatternEEEE37select_on_container_copy_constructionERKS5_
FNDA:56,_ZNSt16allocator_traitsISaIN5Catch5clara6detail3ArgEEE37select_on_container_copy_constructionERKS4_
FNDA:56,_ZNSt16allocator_traitsISaIN5Catch5clara6detail3OptEEE37select_on_container_copy_constructionERKS4_
FNDA:1,_ZNSt16allocator_traitsISaIN5Catch12_GLOBAL__N_110ColumnInfoEEE37select_on_container_copy_constructionERKS3_
FNDA:1,_ZNSt16allocator_traitsISaIN5Catch8TestCaseEEE37select_on_container_copy_constructionERKS2_
FNDA:2,_ZNSt16allocator_traitsISaIN5Catch8TestSpec6FilterEEE37select_on_container_copy_constructionERKS3_
FNDA:4,_ZNSt16allocator_traitsISaIN5Catch11MessageInfoEEE37select_on_container_copy_constructionERKS2_
FNDA:802,_ZNSt16allocator_traitsISaINSt7__cxx1112basic_stringIcSt11char_traitsIcESaIcEEEEE37select_on_container_copy_constructionERKS6_
FNDA:4,_ZNSt16allocator_traitsISaIN5Catch5clara6detail5TokenEEE37select_on_container_copy_constructionERKS4_
FNDA:0,_ZNSt16allocator_traitsISaIN5Catch5clara8TextFlow6ColumnEEE37select_on_container_copy_constructionERKS4_
FNDA:0,_ZSt18__do_alloc_on_copyISaIN5Catch5clara6detail3ArgEEEvRT_RKS5_St17integral_constantIbLb0EE
FNDA:0,_ZSt18__do_alloc_on_copyISaIN5Catch5clara6detail3OptEEEvRT_RKS5_St17integral_constantIbLb0EE
FNDA:0,_ZSt18__do_alloc_on_copyISaINSt7__cxx1112basic_stringIcSt11char_traitsIcESaIcEEEEEvRT_RKS7_St17integral_constantIbLb0EE
FNDA:0,_ZSt15__alloc_on_copyISaIN5Catch5clara6detail3ArgEEEvRT_RKS5_
FNDA:0,_ZSt15__alloc_on_copyISaIN5Catch5clara6detail3OptEEEvRT_RKS5_
FNDA:0,_ZSt15__alloc_on_copyISaINSt7__cxx1112basic_stringIcSt11char_traitsIcESaIcEEEEEvRT_RKS7_
FNDA:1,_ZSt18__do_alloc_on_moveISaISt10shared_ptrIN5Catch8TestSpec7PatternEEEEvRT_S7_St17integral_constantIbLb1EE
FNDA:1,_ZSt18__do_alloc_on_moveISaIN5Catch8TestCaseEEEvRT_S4_St17integral_constantIbLb1EE
FNDA:3,_ZSt18__do_alloc_on_moveISaINSt7__cxx1112basic_stringIcSt11char_traitsIcESaIcEEEEEvRT_S8_St17integral_constantIbLb1EE
FNDA:1,_ZSt18__do_alloc_on_moveISaIN5Catch5clara6detail3ArgEEEvRT_S6_St17integral_constantIbLb1EE
FNDA:1,_ZSt18__do_alloc_on_moveISaIN5Catch5clara6detail3OptEEEvRT_S6_St17integral_constantIbLb1EE
FNDA:1,_ZSt18__do_alloc_on_moveISaIN5Catch8TestSpec6FilterEEEvRT_S5_St17integral_constantIbLb1EE
FNDA:1,_ZSt15__alloc_on_moveISaISt10shared_ptrIN5Catch8TestSpec7PatternEEEEvRT_S7_
FNDA:1,_ZSt15__alloc_on_moveISaIN5Catch8TestCaseEEEvRT_S4_
FNDA:3,_ZSt15__alloc_on_moveISaINSt7__cxx1112basic_stringIcSt11char_traitsIcESaIcEEEEEvRT_S8_
FNDA:1,_ZSt15__alloc_on_moveISaIN5Catch5clara6detail3ArgEEEvRT_S6_
FNDA:1,_ZSt15__alloc_on_moveISaIN5Catch5clara6detail3OptEEEvRT_S6_
FNDA:1,_ZSt15__alloc_on_moveISaIN5Catch8TestSpec6FilterEEEvRT_S5_
FNDA:0,_ZSt18__do_alloc_on_swapISaISt10shared_ptrIN5Catch22CumulativeReporterBaseINS1_13JunitReporterEE4NodeINS1_14TestGroupStatsENS5_INS1_13TestCaseStatsENS4_11SectionNodeEEEEEEEEvRT_SE_St17integral_constantIbLb0EE
FNDA:0,_ZSt18__do_alloc_on_swapISaISt10shared_ptrIN5Catch22CumulativeReporterBaseINS1_13JunitReporterEE4NodeINS1_13TestCaseStatsENS4_11SectionNodeEEEEEEvRT_SC_St17integral_constantIbLb0EE
FNDA:0,_ZSt15__alloc_on_swapISaISt10shared_ptrIN5Catch22CumulativeReporterBaseINS1_13JunitReporterEE4NodeINS1_14TestGroupStatsENS5_INS1_13TestCaseStatsENS4_11SectionNodeEEEEEEEEvRT_SE_
FNDA:0,_ZSt15__alloc_on_swapISaISt10shared_ptrIN5Catch22CumulativeReporterBaseINS1_13JunitReporterEE4NodeINS1_13TestCaseStatsENS4_11SectionNodeEEEEEEvRT_SC_
FNF:308
FNH:170
DA:490,1008
DA:491,1008
DA:516,1008
DA:517,1008
DA:529,158
DA:530,158
DA:541,68
DA:542,68
DA:550,186
DA:551,186
DA:559,928
DA:560,928
DA:571,0
DA:572,0
DA:575,0
DA:579,0
DA:580,0
DA:590,8
DA:591,8
DA:598,8
DA:602,8
DA:603,8
DA:613,0
DA:614,0
DA:617,0
DA:621,0
DA:622,0
LF:27
LH:17
end_of_record
SF:/usr/include/c++/5/bits/allocated_ptr.h
FN:52,_ZNSt15__allocated_ptrISaISt23_Sp_counted_ptr_inplaceIN5Catch5clara6detail11BoundLambdaIZNS1_21makeCommandLineParserERNS1_10ConfigDataEEUlbE8_EESaIS8_ELN9__gnu_cxx12_Lock_policyE2EEEEC2ERSD_PSC_
FN:52,_ZNSt15__allocated_ptrISaISt23_Sp_counted_ptr_inplaceIN5Catch8TestSpec11NamePatternESaIS3_ELN9__gnu_cxx12_Lock_policyE2EEEEC2ERS8_PS7_
FN:52,_ZNSt15__allocated_ptrISaISt23_Sp_counted_ptr_inplaceIN5Catch5clara6detail11BoundLambdaIZNS1_21makeCommandLineParserERNS1_10ConfigDataEEUlRKNSt7__cxx1112basic_stringIcSt11char_traitsIcESaIcEEEE2_EESaISG_ELN9__gnu_cxx12_Lock_policyE2EEEEC2ERSL_PSK_
FN:52,_ZNSt15__allocated_ptrISaISt23_Sp_counted_ptr_inplaceIN5Catch5clara6detail11BoundLambdaIZNS1_21makeCommandLineParserERNS1_10ConfigDataEEUlRKNSt7__cxx1112basic_stringIcSt11char_traitsIcESaIcEEEE5_EESaISG_ELN9__gnu_cxx12_Lock_policyE2EEEEC2ERSL_PSK_
FN:52,_ZNSt15__allocated_ptrISaISt23_Sp_counted_ptr_inplaceIN5Catch5clara6detail11BoundLambdaIZNS1_21makeCommandLineParserERNS1_10ConfigDataEEUliE7_EESaIS8_ELN9__gnu_cxx12_Lock_policyE2EEEEC2ERSD_PSC_
FN:52,_ZNSt15__allocated_ptrISaISt23_Sp_counted_ptr_inplaceIN5Catch5clara6detail11BoundLambdaIZNS1_21makeCommandLineParserERNS1_10ConfigDataEEUlRKNSt7__cxx1112basic_stringIcSt11char_traitsIcESaIcEEEE1_EESaISG_ELN9__gnu_cxx12_Lock_policyE2EEEEC2ERSL_PSK_
FN:52,_ZNSt15__allocated_ptrISaISt23_Sp_counted_ptr_inplaceIN5Catch5clara6detail11BoundLambdaIZNS1_21makeCommandLineParserERNS1_10ConfigDataEEUlRKNSt7__cxx1112basic_stringIcSt11char_traitsIcESaIcEEEE3_EESaISG_ELN9__gnu_cxx12_Lock_policyE2EEEEC2ERSL_PSK_
FN:52,_ZNSt15__allocated_ptrISaISt23_Sp_counted_ptr_inplaceIN5Catch5clara6detail8BoundRefINSt7__cxx1112basic_stringIcSt11char_traitsIcESaIcEEEEESaISB_ELN9__gnu_cxx12_Lock_policyE2EEEEC2ERSG_PSF_
FN:52,_ZNSt15__allocated_ptrISaISt23_Sp_counted_ptr_inplaceIN5Catch5clara6detail15BoundFlagLambdaIZNS1_21makeCommandLineParserERNS1_10ConfigDataEEUlbE6_EESaIS8_ELN9__gnu_cxx12_Lock_policyE2EEEEC2ERSD_PSC_
FN:52,_ZNSt15__allocated_ptrISaISt23_Sp_counted_ptr_inplaceIN5Catch17ReporterRegistrarINS1_15CompactReporterEE15ReporterFactoryESaIS5_ELN9__gnu_cxx12_Lock_policyE2EEEEC2ERSA_PS9_
FN:52,_ZNSt15__allocated_ptrISaISt23_Sp_counted_ptr_inplaceIN5Catch5clara6detail8BoundRefIiEESaIS5_ELN9__gnu_cxx12_Lock_policyE2EEEEC2ERSA_PS9_
FN:52,_ZNSt15__allocated_ptrISaISt23_Sp_counted_ptr_inplaceIN5Catch22CumulativeReporterBaseINS1_13JunitReporterEE4NodeINS1_14TestGroupStatsENS5_INS1_13TestCaseStatsENS4_11SectionNodeEEEEESaISA_ELN9__gnu_cxx12_Lock_policyE2EEEEC2ERSF_PSE_
FN:52,_ZNSt15__allocated_ptrISaISt23_Sp_counted_ptr_inplaceIN5Catch5clara6detail15BoundFlagLambdaIZNS3_4HelpC4ERbEUlbE_EESaIS8_ELN9__gnu_cxx12_Lock_policyE2EEEEC2ERSD_PSC_
FN:52,_ZNSt15__allocated_ptrISaISt23_Sp_counted_ptr_inplaceINSt7__cxx1112basic_stringIcSt11char_traitsIcESaIcEEESaIS6_ELN9__gnu_cxx12_Lock_policyE2EEEEC2ERSB_PSA_
FN:52,_ZNSt15__allocated_ptrISaISt23_Sp_counted_ptr_inplaceIN5Catch8TestSpec10TagPatternESaIS3_ELN9__gnu_cxx12_Lock_policyE2EEEEC2ERS8_PS7_
FN:52,_ZNSt15__allocated_ptrISaISt23_Sp_counted_ptr_inplaceIN5Catch17ReporterRegistrarINS1_15ConsoleReporterEE15ReporterFactoryESaIS5_ELN9__gnu_cxx12_Lock_policyE2EEEEC2ERSA_PS9_
FN:52,_ZNSt15__allocated_ptrISaISt23_Sp_counted_ptr_inplaceIN5Catch5clara6detail12BoundFlagRefESaIS4_ELN9__gnu_cxx12_Lock_policyE2EEEEC2ERS9_PS8_
FN:52,_ZNSt15__allocated_ptrISaISt23_Sp_counted_ptr_inplaceIN5Catch5clara6detail11BoundLambdaIZNS1_21makeCommandLineParserERNS1_10ConfigDataEEUlRKNSt7__cxx1112basic_stringIcSt11char_traitsIcESaIcEEEE0_EESaISG_ELN9__gnu_cxx12_Lock_policyE2EEEEC2ERSL_PSK_
FN:52,_ZNSt15__allocated_ptrISaISt23_Sp_counted_ptr_inplaceIN5Catch5clara6detail11BoundLambdaIZNS1_21makeCommandLineParserERNS1_10ConfigDataEEUlRKNSt7__cxx1112basic_stringIcSt11char_traitsIcESaIcEEEE4_EESaISG_ELN9__gnu_cxx12_Lock_policyE2EEEEC2ERSL_PSK_
FN:52,_ZNSt15__allocated_ptrISaISt23_Sp_counted_ptr_inplaceIN5Catch5clara6detail8BoundRefISt6vectorINSt7__cxx1112basic_stringIcSt11char_traitsIcESaIcEEESaISB_EEEESaISE_ELN9__gnu_cxx12_Lock_policyE2EEEEC2ERSJ_PSI_
FN:52,_ZNSt15__allocated_ptrISaISt23_Sp_counted_ptr_inplaceIN5Catch8TestSpec15ExcludedPatternESaIS3_ELN9__gnu_cxx12_Lock_policyE2EEEEC2ERS8_PS7_
FN:52,_ZNSt15__allocated_ptrISaISt23_Sp_counted_ptr_inplaceIN5Catch22CumulativeReporterBaseINS1_13JunitReporterEE11SectionNodeESaIS5_ELN9__gnu_cxx12_Lock_policyE2EEEEC2ERSA_PS9_
FN:52,_ZNSt15__allocated_ptrISaISt23_Sp_counted_ptr_inplaceIN5Catch5clara6detail11BoundLambdaIZNS1_21makeCommandLineParserERNS1_10ConfigDataEEUlRKNSt7__cxx1112basic_stringIcSt11char_traitsIcESaIcEEEE_EESaISG_ELN9__gnu_cxx12_Lock_policyE2EEEEC2ERSL_PSK_
FN:52,_ZNSt15__allocated_ptrISaISt23_Sp_counted_ptr_inplaceIN5Catch16TestCaseTracking12IndexTrackerESaIS3_ELN9__gnu_cxx12_Lock_policyE2EEEEC2ERS8_PS7_
FN:52,_ZNSt15__allocated_ptrISaISt23_Sp_counted_ptr_inplaceIN5Catch17ReporterRegistrarINS1_11XmlReporterEE15ReporterFactoryESaIS5_ELN9__gnu_cxx12_Lock_policyE2EEEEC2ERSA_PS9_
FN:52,_ZNSt15__allocated_ptrISaISt23_Sp_counted_ptr_inplaceIN5Catch22CumulativeReporterBaseINS1_13JunitReporterEE4NodeINS1_13TestCaseStatsENS4_11SectionNodeEEESaIS8_ELN9__gnu_cxx12_Lock_policyE2EEEEC2ERSD_PSC_
FN:52,_ZNSt15__allocated_ptrISaISt23_Sp_counted_ptr_inplaceIN5Catch6ConfigESaIS2_ELN9__gnu_cxx12_Lock_policyE2EEEEC2ERS7_PS6_
FN:52,_ZNSt15__allocated_ptrISaISt23_Sp_counted_ptr_inplaceIN5Catch22CumulativeReporterBaseINS1_13JunitReporterEE4NodeINS1_12TestRunStatsENS5_INS1_14TestGroupStatsENS5_INS1_13TestCaseStatsENS4_11SectionNodeEEEEEEESaISC_ELN9__gnu_cxx12_Lock_policyE2EEEEC2ERSH_PSG_
FN:52,_ZNSt15__allocated_ptrISaISt23_Sp_counted_ptr_inplaceIN5Catch16TestCaseTracking14SectionTrackerESaIS3_ELN9__gnu_cxx12_Lock_policyE2EEEEC2ERS8_PS7_
FN:52,_ZNSt15__allocated_ptrISaISt23_Sp_counted_ptr_inplaceIN5Catch17ReporterRegistrarINS1_13JunitReporterEE15ReporterFactoryESaIS5_ELN9__gnu_cxx12_Lock_policyE2EEEEC2ERSA_PS9_
FN:69,_ZNSt15__allocated_ptrISaISt23_Sp_counted_ptr_inplaceIN5Catch16TestCaseTracking12IndexTrackerESaIS3_ELN9__gnu_cxx12_Lock_policyE2EEEED2Ev
FN:69,_ZNSt15__allocated_ptrISaISt23_Sp_counted_ptr_inplaceIN5Catch17ReporterRegistrarINS1_15CompactReporterEE15ReporterFactoryESaIS5_ELN9__gnu_cxx12_Lock_policyE2EEEED2Ev
FN:69,_ZNSt15__allocated_ptrISaISt23_Sp_counted_ptr_inplaceIN5Catch5clara6detail11BoundLambdaIZNS1_21makeCommandLineParserERNS1_10ConfigDataEEUlRKNSt7__cxx1112basic_stringIcSt11char_traitsIcESaIcEEEE2_EESaISG_ELN9__gnu_cxx12_Lock_policyE2EEEED2Ev
FN:69,_ZNSt15__allocated_ptrISaISt23_Sp_counted_ptr_inplaceIN5Catch5clara6detail11BoundLambdaIZNS1_21makeCommandLineParserERNS1_10ConfigDataEEUlRKNSt7__cxx1112basic_stringIcSt11char_traitsIcESaIcEEEE1_EESaISG_ELN9__gnu_cxx12_Lock_policyE2EEEED2Ev
FN:69,_ZNSt15__allocated_ptrISaISt23_Sp_counted_ptr_inplaceIN5Catch5clara6detail8BoundRefIiEESaIS5_ELN9__gnu_cxx12_Lock_policyE2EEEED2Ev
FN:69,_ZNSt15__allocated_ptrISaISt23_Sp_counted_ptr_inplaceIN5Catch5clara6detail12BoundFlagRefESaIS4_ELN9__gnu_cxx12_Lock_policyE2EEEED2Ev
FN:69,_ZNSt15__allocated_ptrISaISt23_Sp_counted_ptr_inplaceIN5Catch22CumulativeReporterBaseINS1_13JunitReporterEE11SectionNodeESaIS5_ELN9__gnu_cxx12_Lock_policyE2EEEED2Ev
FN:69,_ZNSt15__allocated_ptrISaISt23_Sp_counted_ptr_inplaceIN5Catch22CumulativeReporterBaseINS1_13JunitReporterEE4NodeINS1_14TestGroupStatsENS5_INS1_13TestCaseStatsENS4_11SectionNodeEEEEESaISA_ELN9__gnu_cxx12_Lock_policyE2EEEED2Ev
FN:69,_ZNSt15__allocated_ptrISaISt23_Sp_counted_ptr_inplaceIN5Catch8TestSpec10TagPatternESaIS3_ELN9__gnu_cxx12_Lock_policyE2EEEED2Ev
FN:69,_ZNSt15__allocated_ptrISaISt23_Sp_counted_ptr_inplaceIN5Catch5clara6detail11BoundLambdaIZNS1_21makeCommandLineParserERNS1_10ConfigDataEEUlbE8_EESaIS8_ELN9__gnu_cxx12_Lock_policyE2EEEED2Ev
FN:69,_ZNSt15__allocated_ptrISaISt23_Sp_counted_ptr_inplaceIN5Catch5clara6detail11BoundLambdaIZNS1_21makeCommandLineParserERNS1_10ConfigDataEEUlRKNSt7__cxx1112basic_stringIcSt11char_traitsIcESaIcEEEE5_EESaISG_ELN9__gnu_cxx12_Lock_policyE2EEEED2Ev
FN:69,_ZNSt15__allocated_ptrISaISt23_Sp_counted_ptr_inplaceIN5Catch5clara6detail15BoundFlagLambdaIZNS1_21makeCommandLineParserERNS1_10ConfigDataEEUlbE6_EESaIS8_ELN9__gnu_cxx12_Lock_policyE2EEEED2Ev
FN:69,_ZNSt15__allocated_ptrISaISt23_Sp_counted_ptr_inplaceIN5Catch5clara6detail11BoundLambdaIZNS1_21makeCommandLineParserERNS1_10ConfigDataEEUliE7_EESaIS8_ELN9__gnu_cxx12_Lock_policyE2EEEED2Ev
FN:69,_ZNSt15__allocated_ptrISaISt23_Sp_counted_ptr_inplaceIN5Catch5clara6detail11BoundLambdaIZNS1_21makeCommandLineParserERNS1_10ConfigDataEEUlRKNSt7__cxx1112basic_stringIcSt11char_traitsIcESaIcEEEE3_EESaISG_ELN9__gnu_cxx12_Lock_policyE2EEEED2Ev
FN:69,_ZNSt15__allocated_ptrISaISt23_Sp_counted_ptr_inplaceIN5Catch5clara6detail8BoundRefISt6vectorINSt7__cxx1112basic_stringIcSt11char_traitsIcESaIcEEESaISB_EEEESaISE_ELN9__gnu_cxx12_Lock_policyE2EEEED2Ev
FN:69,_ZNSt15__allocated_ptrISaISt23_Sp_counted_ptr_inplaceIN5Catch22CumulativeReporterBaseINS1_13JunitReporterEE4NodeINS1_13TestCaseStatsENS4_11SectionNodeEEESaIS8_ELN9__gnu_cxx12_Lock_policyE2EEEED2Ev
FN:69,_ZNSt15__allocated_ptrISaISt23_Sp_counted_ptr_inplaceIN5Catch17ReporterRegistrarINS1_13JunitReporterEE15ReporterFactoryESaIS5_ELN9__gnu_cxx12_Lock_policyE2EEEED2Ev
FN:69,_ZNSt15__allocated_ptrISaISt23_Sp_counted_ptr_inplaceIN5Catch5clara6detail11BoundLambdaIZNS1_21makeCommandLineParserERNS1_10ConfigDataEEUlRKNSt7__cxx1112basic_stringIcSt11char_traitsIcESaIcEEEE0_EESaISG_ELN9__gnu_cxx12_Lock_policyE2EEEED2Ev
FN:69,_ZNSt15__allocated_ptrISaISt23_Sp_counted_ptr_inplaceIN5Catch16TestCaseTracking14SectionTrackerESaIS3_ELN9__gnu_cxx12_Lock_policyE2EEEED2Ev
FN:69,_ZNSt15__allocated_ptrISaISt23_Sp_counted_ptr_inplaceIN5Catch5clara6detail8BoundRefINSt7__cxx1112basic_stringIcSt11char_traitsIcESaIcEEEEESaISB_ELN9__gnu_cxx12_Lock_policyE2EEEED2Ev
FN:69,_ZNSt15__allocated_ptrISaISt23_Sp_counted_ptr_inplaceIN5Catch22CumulativeReporterBaseINS1_13JunitReporterEE4NodeINS1_12TestRunStatsENS5_INS1_14TestGroupStatsENS5_INS1_13TestCaseStatsENS4_11SectionNodeEEEEEEESaISC_ELN9__gnu_cxx12_Lock_policyE2EEEED2Ev
FN:69,_ZNSt15__allocated_ptrISaISt23_Sp_counted_ptr_inplaceIN5Catch8TestSpec15ExcludedPatternESaIS3_ELN9__gnu_cxx12_Lock_policyE2EEEED2Ev
FN:69,_ZNSt15__allocated_ptrISaISt23_Sp_counted_ptr_inplaceIN5Catch5clara6detail15BoundFlagLambdaIZNS3_4HelpC4ERbEUlbE_EESaIS8_ELN9__gnu_cxx12_Lock_policyE2EEEED2Ev
FN:69,_ZNSt15__allocated_ptrISaISt23_Sp_counted_ptr_inplaceIN5Catch5clara6detail11BoundLambdaIZNS1_21makeCommandLineParserERNS1_10ConfigDataEEUlRKNSt7__cxx1112basic_stringIcSt11char_traitsIcESaIcEEEE4_EESaISG_ELN9__gnu_cxx12_Lock_policyE2EEEED2Ev
FN:69,_ZNSt15__allocated_ptrISaISt23_Sp_counted_ptr_inplaceIN5Catch17ReporterRegistrarINS1_15ConsoleReporterEE15ReporterFactoryESaIS5_ELN9__gnu_cxx12_Lock_policyE2EEEED2Ev
FN:69,_ZNSt15__allocated_ptrISaISt23_Sp_counted_ptr_inplaceIN5Catch5clara6detail11BoundLambdaIZNS1_21makeCommandLineParserERNS1_10ConfigDataEEUlRKNSt7__cxx1112basic_stringIcSt11char_traitsIcESaIcEEEE_EESaISG_ELN9__gnu_cxx12_Lock_policyE2EEEED2Ev
FN:69,_ZNSt15__allocated_ptrISaISt23_Sp_counted_ptr_inplaceIN5Catch17ReporterRegistrarINS1_11XmlReporterEE15ReporterFactoryESaIS5_ELN9__gnu_cxx12_Lock_policyE2EEEED2Ev
FN:69,_ZNSt15__allocated_ptrISaISt23_Sp_counted_ptr_inplaceIN5Catch8TestSpec11NamePatternESaIS3_ELN9__gnu_cxx12_Lock_policyE2EEEED2Ev
FN:69,_ZNSt15__allocated_ptrISaISt23_Sp_counted_ptr_inplaceIN5Catch6ConfigESaIS2_ELN9__gnu_cxx12_Lock_policyE2EEEED2Ev
FN:69,_ZNSt15__allocated_ptrISaISt23_Sp_counted_ptr_inplaceINSt7__cxx1112basic_stringIcSt11char_traitsIcESaIcEEESaIS6_ELN9__gnu_cxx12_Lock_policyE2EEEED2Ev
FN:77,_ZNSt15__allocated_ptrISaISt23_Sp_counted_ptr_inplaceIN5Catch5clara6detail11BoundLambdaIZNS1_21makeCommandLineParserERNS1_10ConfigDataEEUlRKNSt7__cxx1112basic_stringIcSt11char_traitsIcESaIcEEEE1_EESaISG_ELN9__gnu_cxx12_Lock_policyE2EEEEaSEDn
FN:77,_ZNSt15__allocated_ptrISaISt23_Sp_counted_ptr_inplaceIN5Catch5clara6detail12BoundFlagRefESaIS4_ELN9__gnu_cxx12_Lock_policyE2EEEEaSEDn
FN:77,_ZNSt15__allocated_ptrISaISt23_Sp_counted_ptr_inplaceIN5Catch16TestCaseTracking14SectionTrackerESaIS3_ELN9__gnu_cxx12_Lock_policyE2EEEEaSEDn
FN:77,_ZNSt15__allocated_ptrISaISt23_Sp_counted_ptr_inplaceIN5Catch8TestSpec11NamePatternESaIS3_ELN9__gnu_cxx12_Lock_policyE2EEEEaSEDn
FN:77,_ZNSt15__allocated_ptrISaISt23_Sp_counted_ptr_inplaceIN5Catch5clara6detail11BoundLambdaIZNS1_21makeCommandLineParserERNS1_10ConfigDataEEUlRKNSt7__cxx1112basic_stringIcSt11char_traitsIcESaIcEEEE2_EESaISG_ELN9__gnu_cxx12_Lock_policyE2EEEEaSEDn
FN:77,_ZNSt15__allocated_ptrISaISt23_Sp_counted_ptr_inplaceIN5Catch22CumulativeReporterBaseINS1_13JunitReporterEE4NodeINS1_12TestRunStatsENS5_INS1_14TestGroupStatsENS5_INS1_13TestCaseStatsENS4_11SectionNodeEEEEEEESaISC_ELN9__gnu_cxx12_Lock_policyE2EEEEaSEDn
FN:77,_ZNSt15__allocated_ptrISaISt23_Sp_counted_ptr_inplaceIN5Catch5clara6detail8BoundRefIiEESaIS5_ELN9__gnu_cxx12_Lock_policyE2EEEEaSEDn
FN:77,_ZNSt15__allocated_ptrISaISt23_Sp_counted_ptr_inplaceINSt7__cxx1112basic_stringIcSt11char_traitsIcESaIcEEESaIS6_ELN9__gnu_cxx12_Lock_policyE2EEEEaSEDn
FN:77,_ZNSt15__allocated_ptrISaISt23_Sp_counted_ptr_inplaceIN5Catch5clara6detail11BoundLambdaIZNS1_21makeCommandLineParserERNS1_10ConfigDataEEUlRKNSt7__cxx1112basic_stringIcSt11char_traitsIcESaIcEEEE3_EESaISG_ELN9__gnu_cxx12_Lock_policyE2EEEEaSEDn
FN:77,_ZNSt15__allocated_ptrISaISt23_Sp_counted_ptr_inplaceIN5Catch22CumulativeReporterBaseINS1_13JunitReporterEE4NodeINS1_14TestGroupStatsENS5_INS1_13TestCaseStatsENS4_11SectionNodeEEEEESaISA_ELN9__gnu_cxx12_Lock_policyE2EEEEaSEDn
FN:77,_ZNSt15__allocated_ptrISaISt23_Sp_counted_ptr_inplaceIN5Catch22CumulativeReporterBaseINS1_13JunitReporterEE11SectionNodeESaIS5_ELN9__gnu_cxx12_Lock_policyE2EEEEaSEDn
FN:77,_ZNSt15__allocated_ptrISaISt23_Sp_counted_ptr_inplaceIN5Catch16TestCaseTracking12IndexTrackerESaIS3_ELN9__gnu_cxx12_Lock_policyE2EEEEaSEDn
FN:77,_ZNSt15__allocated_ptrISaISt23_Sp_counted_ptr_inplaceIN5Catch6ConfigESaIS2_ELN9__gnu_cxx12_Lock_policyE2EEEEaSEDn
FN:77,_ZNSt15__allocated_ptrISaISt23_Sp_counted_ptr_inplaceIN5Catch22CumulativeReporterBaseINS1_13JunitReporterEE4NodeINS1_13TestCaseStatsENS4_11SectionNodeEEESaIS8_ELN9__gnu_cxx12_Lock_policyE2EEEEaSEDn
FN:77,_ZNSt15__allocated_ptrISaISt23_Sp_counted_ptr_inplaceIN5Catch5clara6detail8BoundRefINSt7__cxx1112basic_stringIcSt11char_traitsIcESaIcEEEEESaISB_ELN9__gnu_cxx12_Lock_policyE2EEEEaSEDn
FN:77,_ZNSt15__allocated_ptrISaISt23_Sp_counted_ptr_inplaceIN5Catch5clara6detail15BoundFlagLambdaIZNS1_21makeCommandLineParserERNS1_10ConfigDataEEUlbE6_EESaIS8_ELN9__gnu_cxx12_Lock_policyE2EEEEaSEDn
FN:77,_ZNSt15__allocated_ptrISaISt23_Sp_counted_ptr_inplaceIN5Catch5clara6detail8BoundRefISt6vectorINSt7__cxx1112basic_stringIcSt11char_traitsIcESaIcEEESaISB_EEEESaISE_ELN9__gnu_cxx12_Lock_policyE2EEEEaSEDn
FN:77,_ZNSt15__allocated_ptrISaISt23_Sp_counted_ptr_inplaceIN5Catch17ReporterRegistrarINS1_13JunitReporterEE15ReporterFactoryESaIS5_ELN9__gnu_cxx12_Lock_policyE2EEEEaSEDn
FN:77,_ZNSt15__allocated_ptrISaISt23_Sp_counted_ptr_inplaceIN5Catch5clara6detail11BoundLambdaIZNS1_21makeCommandLineParserERNS1_10ConfigDataEEUlbE8_EESaIS8_ELN9__gnu_cxx12_Lock_policyE2EEEEaSEDn
FN:77,_ZNSt15__allocated_ptrISaISt23_Sp_counted_ptr_inplaceIN5Catch5clara6detail11BoundLambdaIZNS1_21makeCommandLineParserERNS1_10ConfigDataEEUlRKNSt7__cxx1112basic_stringIcSt11char_traitsIcESaIcEEEE_EESaISG_ELN9__gnu_cxx12_Lock_policyE2EEEEaSEDn
FN:77,_ZNSt15__allocated_ptrISaISt23_Sp_counted_ptr_inplaceIN5Catch8TestSpec15ExcludedPatternESaIS3_ELN9__gnu_cxx12_Lock_policyE2EEEEaSEDn
FN:77,_ZNSt15__allocated_ptrISaISt23_Sp_counted_ptr_inplaceIN5Catch5clara6detail11BoundLambdaIZNS1_21makeCommandLineParserERNS1_10ConfigDataEEUlRKNSt7__cxx1112basic_stringIcSt11char_traitsIcESaIcEEEE5_EESaISG_ELN9__gnu_cxx12_Lock_policyE2EEEEaSEDn
FN:77,_ZNSt15__allocated_ptrISaISt23_Sp_counted_ptr_inplaceIN5Catch8TestSpec10TagPatternESaIS3_ELN9__gnu_cxx12_Lock_policyE2EEEEaSEDn
FN:77,_ZNSt15__allocated_ptrISaISt23_Sp_counted_ptr_inplaceIN5Catch17ReporterRegistrarINS1_15ConsoleReporterEE15ReporterFactoryESaIS5_ELN9__gnu_cxx12_Lock_policyE2EEEEaSEDn
FN:77,_ZNSt15__allocated_ptrISaISt23_Sp_counted_ptr_inplaceIN5Catch17ReporterRegistrarINS1_11XmlReporterEE15ReporterFactoryESaIS5_ELN9__gnu_cxx12_Lock_policyE2EEEEaSEDn
FN:77,_ZNSt15__allocated_ptrISaISt23_Sp_counted_ptr_inplaceIN5Catch17ReporterRegistrarINS1_15CompactReporterEE15ReporterFactoryESaIS5_ELN9__gnu_cxx12_Lock_policyE2EEEEaSEDn
FN:77,_ZNSt15__allocated_ptrISaISt23_Sp_counted_ptr_inplaceIN5Catch5clara6detail11BoundLambdaIZNS1_21makeCommandLineParserERNS1_10ConfigDataEEUlRKNSt7__cxx1112basic_stringIcSt11char_traitsIcESaIcEEEE4_EESaISG_ELN9__gnu_cxx12_Lock_policyE2EEEEaSEDn
FN:77,_ZNSt15__allocated_ptrISaISt23_Sp_counted_ptr_inplaceIN5Catch5clara6detail15BoundFlagLambdaIZNS3_4HelpC4ERbEUlbE_EESaIS8_ELN9__gnu_cxx12_Lock_policyE2EEEEaSEDn
FN:77,_ZNSt15__allocated_ptrISaISt23_Sp_counted_ptr_inplaceIN5Catch5clara6detail11BoundLambdaIZNS1_21makeCommandLineParserERNS1_10ConfigDataEEUlRKNSt7__cxx1112basic_stringIcSt11char_traitsIcESaIcEEEE0_EESaISG_ELN9__gnu_cxx12_Lock_policyE2EEEEaSEDn
FN:77,_ZNSt15__allocated_ptrISaISt23_Sp_counted_ptr_inplaceIN5Catch5clara6detail11BoundLambdaIZNS1_21makeCommandLineParserERNS1_10ConfigDataEEUliE7_EESaIS8_ELN9__gnu_cxx12_Lock_policyE2EEEEaSEDn
FN:84,_ZNSt15__allocated_ptrISaISt23_Sp_counted_ptr_inplaceIN5Catch22CumulativeReporterBaseINS1_13JunitReporterEE4NodeINS1_13TestCaseStatsENS4_11SectionNodeEEESaIS8_ELN9__gnu_cxx12_Lock_policyE2EEEE3getEv
FN:84,_ZNSt15__allocated_ptrISaISt23_Sp_counted_ptr_inplaceIN5Catch17ReporterRegistrarINS1_15CompactReporterEE15ReporterFactoryESaIS5_ELN9__gnu_cxx12_Lock_policyE2EEEE3getEv
FN:84,_ZNSt15__allocated_ptrISaISt23_Sp_counted_ptr_inplaceIN5Catch5clara6detail8BoundRefIiEESaIS5_ELN9__gnu_cxx12_Lock_policyE2EEEE3getEv
FN:84,_ZNSt15__allocated_ptrISaISt23_Sp_counted_ptr_inplaceIN5Catch16TestCaseTracking14SectionTrackerESaIS3_ELN9__gnu_cxx12_Lock_policyE2EEEE3getEv
FN:84,_ZNSt15__allocated_ptrISaISt23_Sp_counted_ptr_inplaceIN5Catch5clara6detail8BoundRefISt6vectorINSt7__cxx1112basic_stringIcSt11char_traitsIcESaIcEEESaISB_EEEESaISE_ELN9__gnu_cxx12_Lock_policyE2EEEE3getEv
FN:84,_ZNSt15__allocated_ptrISaISt23_Sp_counted_ptr_inplaceIN5Catch5clara6detail11BoundLambdaIZNS1_21makeCommandLineParserERNS1_10ConfigDataEEUlRKNSt7__cxx1112basic_stringIcSt11char_traitsIcESaIcEEEE2_EESaISG_ELN9__gnu_cxx12_Lock_policyE2EEEE3getEv
FN:84,_ZNSt15__allocated_ptrISaISt23_Sp_counted_ptr_inplaceIN5Catch22CumulativeReporterBaseINS1_13JunitReporterEE4NodeINS1_14TestGroupStatsENS5_INS1_13TestCaseStatsENS4_11SectionNodeEEEEESaISA_ELN9__gnu_cxx12_Lock_policyE2EEEE3getEv
FN:84,_ZNSt15__allocated_ptrISaISt23_Sp_counted_ptr_inplaceIN5Catch22CumulativeReporterBaseINS1_13JunitReporterEE4NodeINS1_12TestRunStatsENS5_INS1_14TestGroupStatsENS5_INS1_13TestCaseStatsENS4_11SectionNodeEEEEEEESaISC_ELN9__gnu_cxx12_Lock_policyE2EEEE3getEv
FN:84,_ZNSt15__allocated_ptrISaISt23_Sp_counted_ptr_inplaceINSt7__cxx1112basic_stringIcSt11char_traitsIcESaIcEEESaIS6_ELN9__gnu_cxx12_Lock_policyE2EEEE3getEv
FN:84,_ZNSt15__allocated_ptrISaISt23_Sp_counted_ptr_inplaceIN5Catch17ReporterRegistrarINS1_13JunitReporterEE15ReporterFactoryESaIS5_ELN9__gnu_cxx12_Lock_policyE2EEEE3getEv
FN:84,_ZNSt15__allocated_ptrISaISt23_Sp_counted_ptr_inplaceIN5Catch5clara6detail11BoundLambdaIZNS1_21makeCommandLineParserERNS1_10ConfigDataEEUlRKNSt7__cxx1112basic_stringIcSt11char_traitsIcESaIcEEEE4_EESaISG_ELN9__gnu_cxx12_Lock_policyE2EEEE3getEv
FN:84,_ZNSt15__allocated_ptrISaISt23_Sp_counted_ptr_inplaceIN5Catch5clara6detail8BoundRefINSt7__cxx1112basic_stringIcSt11char_traitsIcESaIcEEEEESaISB_ELN9__gnu_cxx12_Lock_policyE2EEEE3getEv
FN:84,_ZNSt15__allocated_ptrISaISt23_Sp_counted_ptr_inplaceIN5Catch17ReporterRegistrarINS1_15ConsoleReporterEE15ReporterFactoryESaIS5_ELN9__gnu_cxx12_Lock_policyE2EEEE3getEv
FN:84,_ZNSt15__allocated_ptrISaISt23_Sp_counted_ptr_inplaceIN5Catch8TestSpec11NamePatternESaIS3_ELN9__gnu_cxx12_Lock_policyE2EEEE3getEv
FN:84,_ZNSt15__allocated_ptrISaISt23_Sp_counted_ptr_inplaceIN5Catch5clara6detail11BoundLambdaIZNS1_21makeCommandLineParserERNS1_10ConfigDataEEUlRKNSt7__cxx1112basic_stringIcSt11char_traitsIcESaIcEEEE3_EESaISG_ELN9__gnu_cxx12_Lock_policyE2EEEE3getEv
FN:84,_ZNSt15__allocated_ptrISaISt23_Sp_counted_ptr_inplaceIN5Catch5clara6detail11BoundLambdaIZNS1_21makeCommandLineParserERNS1_10ConfigDataEEUlRKNSt7__cxx1112basic_stringIcSt11char_traitsIcESaIcEEEE1_EESaISG_ELN9__gnu_cxx12_Lock_policyE2EEEE3getEv
FN:84,_ZNSt15__allocated_ptrISaISt23_Sp_counted_ptr_inplaceIN5Catch8TestSpec15ExcludedPatternESaIS3_ELN9__gnu_cxx12_Lock_policyE2EEEE3getEv
FN:84,_ZNSt15__allocated_ptrISaISt23_Sp_counted_ptr_inplaceIN5Catch5clara6detail11BoundLambdaIZNS1_21makeCommandLineParserERNS1_10ConfigDataEEUlRKNSt7__cxx1112basic_stringIcSt11char_traitsIcESaIcEEEE0_EESaISG_ELN9__gnu_cxx12_Lock_policyE2EEEE3getEv
FN:84,_ZNSt15__allocated_ptrISaISt23_Sp_counted_ptr_inplaceIN5Catch5clara6detail15BoundFlagLambdaIZNS1_21makeCommandLineParserERNS1_10ConfigDataEEUlbE6_EESaIS8_ELN9__gnu_cxx12_Lock_policyE2EEEE3getEv
FN:84,_ZNSt15__allocated_ptrISaISt23_Sp_counted_ptr_inplaceIN5Catch5clara6detail12BoundFlagRefESaIS4_ELN9__gnu_cxx12_Lock_policyE2EEEE3getEv
FN:84,_ZNSt15__allocated_ptrISaISt23_Sp_counted_ptr_inplaceIN5Catch5clara6detail11BoundLambdaIZNS1_21makeCommandLineParserERNS1_10ConfigDataEEUlRKNSt7__cxx1112basic_stringIcSt11char_traitsIcESaIcEEEE5_EESaISG_ELN9__gnu_cxx12_Lock_policyE2EEEE3getEv
FN:84,_ZNSt15__allocated_ptrISaISt23_Sp_counted_ptr_inplaceIN5Catch5clara6detail11BoundLambdaIZNS1_21makeCommandLineParserERNS1_10ConfigDataEEUlbE8_EESaIS8_ELN9__gnu_cxx12_Lock_policyE2EEEE3getEv
FN:84,_ZNSt15__allocated_ptrISaISt23_Sp_counted_ptr_inplaceIN5Catch5clara6detail11BoundLambdaIZNS1_21makeCommandLineParserERNS1_10ConfigDataEEUliE7_EESaIS8_ELN9__gnu_cxx12_Lock_policyE2EEEE3getEv
FN:84,_ZNSt15__allocated_ptrISaISt23_Sp_counted_ptr_inplaceIN5Catch5clara6detail15BoundFlagLambdaIZNS3_4HelpC4ERbEUlbE_EESaIS8_ELN9__gnu_cxx12_Lock_policyE2EEEE3getEv
FN:84,_ZNSt15__allocated_ptrISaISt23_Sp_counted_ptr_inplaceIN5Catch17ReporterRegistrarINS1_11XmlReporterEE15ReporterFactoryESaIS5_ELN9__gnu_cxx12_Lock_policyE2EEEE3getEv
FN:84,_ZNSt15__allocated_ptrISaISt23_Sp_counted_ptr_inplaceIN5Catch8TestSpec10TagPatternESaIS3_ELN9__gnu_cxx12_Lock_policyE2EEEE3getEv
FN:84,_ZNSt15__allocated_ptrISaISt23_Sp_counted_ptr_inplaceIN5Catch6ConfigESaIS2_ELN9__gnu_cxx12_Lock_policyE2EEEE3getEv
FN:84,_ZNSt15__allocated_ptrISaISt23_Sp_counted_ptr_inplaceIN5Catch5clara6detail11BoundLambdaIZNS1_21makeCommandLineParserERNS1_10ConfigDataEEUlRKNSt7__cxx1112basic_stringIcSt11char_traitsIcESaIcEEEE_EESaISG_ELN9__gnu_cxx12_Lock_policyE2EEEE3getEv
FN:84,_ZNSt15__allocated_ptrISaISt23_Sp_counted_ptr_inplaceIN5Catch22CumulativeReporterBaseINS1_13JunitReporterEE11SectionNodeESaIS5_ELN9__gnu_cxx12_Lock_policyE2EEEE3getEv
FN:84,_ZNSt15__allocated_ptrISaISt23_Sp_counted_ptr_inplaceIN5Catch16TestCaseTracking12IndexTrackerESaIS3_ELN9__gnu_cxx12_Lock_policyE2EEEE3getEv
FN:87,_ZNSt15__allocated_ptrISaISt23_Sp_counted_ptr_inplaceIN5Catch17ReporterRegistrarINS1_13JunitReporterEE15ReporterFactoryESaIS5_ELN9__gnu_cxx12_Lock_policyE2EEEE10_S_raw_ptrEPS9_
FN:87,_ZNSt15__allocated_ptrISaISt23_Sp_counted_ptr_inplaceIN5Catch5clara6detail15BoundFlagLambdaIZNS3_4HelpC4ERbEUlbE_EESaIS8_ELN9__gnu_cxx12_Lock_policyE2EEEE10_S_raw_ptrEPSC_
FN:87,_ZNSt15__allocated_ptrISaISt23_Sp_counted_ptr_inplaceIN5Catch5clara6detail11BoundLambdaIZNS1_21makeCommandLineParserERNS1_10ConfigDataEEUlbE8_EESaIS8_ELN9__gnu_cxx12_Lock_policyE2EEEE10_S_raw_ptrEPSC_
FN:87,_ZNSt15__allocated_ptrISaISt23_Sp_counted_ptr_inplaceIN5Catch5clara6detail11BoundLambdaIZNS1_21makeCommandLineParserERNS1_10ConfigDataEEUlRKNSt7__cxx1112basic_stringIcSt11char_traitsIcESaIcEEEE_EESaISG_ELN9__gnu_cxx12_Lock_policyE2EEEE10_S_raw_ptrEPSK_
FN:87,_ZNSt15__allocated_ptrISaISt23_Sp_counted_ptr_inplaceIN5Catch5clara6detail8BoundRefISt6vectorINSt7__cxx1112basic_stringIcSt11char_traitsIcESaIcEEESaISB_EEEESaISE_ELN9__gnu_cxx12_Lock_policyE2EEEE10_S_raw_ptrEPSI_
FN:87,_ZNSt15__allocated_ptrISaISt23_Sp_counted_ptr_inplaceIN5Catch22CumulativeReporterBaseINS1_13JunitReporterEE4NodeINS1_12TestRunStatsENS5_INS1_14TestGroupStatsENS5_INS1_13TestCaseStatsENS4_11SectionNodeEEEEEEESaISC_ELN9__gnu_cxx12_Lock_policyE2EEEE10_S_raw_ptrEPSG_
FN:87,_ZNSt15__allocated_ptrISaISt23_Sp_counted_ptr_inplaceIN5Catch5clara6detail11BoundLambdaIZNS1_21makeCommandLineParserERNS1_10ConfigDataEEUliE7_EESaIS8_ELN9__gnu_cxx12_Lock_policyE2EEEE10_S_raw_ptrEPSC_
FN:87,_ZNSt15__allocated_ptrISaISt23_Sp_counted_ptr_inplaceIN5Catch22CumulativeReporterBaseINS1_13JunitReporterEE4NodeINS1_13TestCaseStatsENS4_11SectionNodeEEESaIS8_ELN9__gnu_cxx12_Lock_policyE2EEEE10_S_raw_ptrEPSC_
FN:87,_ZNSt15__allocated_ptrISaISt23_Sp_counted_ptr_inplaceIN5Catch16TestCaseTracking12IndexTrackerESaIS3_ELN9__gnu_cxx12_Lock_policyE2EEEE10_S_raw_ptrEPS7_
FN:87,_ZNSt15__allocated_ptrISaISt23_Sp_counted_ptr_inplaceIN5Catch8TestSpec11NamePatternESaIS3_ELN9__gnu_cxx12_Lock_policyE2EEEE10_S_raw_ptrEPS7_
FN:87,_ZNSt15__allocated_ptrISaISt23_Sp_counted_ptr_inplaceIN5Catch17ReporterRegistrarINS1_11XmlReporterEE15ReporterFactoryESaIS5_ELN9__gnu_cxx12_Lock_policyE2EEEE10_S_raw_ptrEPS9_
FN:87,_ZNSt15__allocated_ptrISaISt23_Sp_counted_ptr_inplaceIN5Catch5clara6detail11BoundLambdaIZNS1_21makeCommandLineParserERNS1_10ConfigDataEEUlRKNSt7__cxx1112basic_stringIcSt11char_traitsIcESaIcEEEE2_EESaISG_ELN9__gnu_cxx12_Lock_policyE2EEEE10_S_raw_ptrEPSK_
FN:87,_ZNSt15__allocated_ptrISaISt23_Sp_counted_ptr_inplaceIN5Catch16TestCaseTracking14SectionTrackerESaIS3_ELN9__gnu_cxx12_Lock_policyE2EEEE10_S_raw_ptrEPS7_
FN:87,_ZNSt15__allocated_ptrISaISt23_Sp_counted_ptr_inplaceIN5Catch5clara6detail11BoundLambdaIZNS1_21makeCommandLineParserERNS1_10ConfigDataEEUlRKNSt7__cxx1112basic_stringIcSt11char_traitsIcESaIcEEEE0_EESaISG_ELN9__gnu_cxx12_Lock_policyE2EEEE10_S_raw_ptrEPSK_
FN:87,_ZNSt15__allocated_ptrISaISt23_Sp_counted_ptr_inplaceIN5Catch5clara6detail11BoundLambdaIZNS1_21makeCommandLineParserERNS1_10ConfigDataEEUlRKNSt7__cxx1112basic_stringIcSt11char_traitsIcESaIcEEEE1_EESaISG_ELN9__gnu_cxx12_Lock_policyE2EEEE10_S_raw_ptrEPSK_
FN:87,_ZNSt15__allocated_ptrISaISt23_Sp_counted_ptr_inplaceIN5Catch5clara6detail15BoundFlagLambdaIZNS1_21makeCommandLineParserERNS1_10ConfigDataEEUlbE6_EESaIS8_ELN9__gnu_cxx12_Lock_policyE2EEEE10_S_raw_ptrEPSC_
FN:87,_ZNSt15__allocated_ptrISaISt23_Sp_counted_ptr_inplaceIN5Catch5clara6detail11BoundLambdaIZNS1_21makeCommandLineParserERNS1_10ConfigDataEEUlRKNSt7__cxx1112basic_stringIcSt11char_traitsIcESaIcEEEE4_EESaISG_ELN9__gnu_cxx12_Lock_policyE2EEEE10_S_raw_ptrEPSK_
FN:87,_ZNSt15__allocated_ptrISaISt23_Sp_counted_ptr_inplaceIN5Catch22CumulativeReporterBaseINS1_13JunitReporterEE4NodeINS1_14TestGroupStatsENS5_INS1_13TestCaseStatsENS4_11SectionNodeEEEEESaISA_ELN9__gnu_cxx12_Lock_policyE2EEEE10_S_raw_ptrEPSE_
FN:87,_ZNSt15__allocated_ptrISaISt23_Sp_counted_ptr_inplaceIN5Catch8TestSpec10TagPatternESaIS3_ELN9__gnu_cxx12_Lock_policyE2EEEE10_S_raw_ptrEPS7_
FN:87,_ZNSt15__allocated_ptrISaISt23_Sp_counted_ptr_inplaceIN5Catch17ReporterRegistrarINS1_15CompactReporterEE15ReporterFactoryESaIS5_ELN9__gnu_cxx12_Lock_policyE2EEEE10_S_raw_ptrEPS9_
FN:87,_ZNSt15__allocated_ptrISaISt23_Sp_counted_ptr_inplaceIN5Catch17ReporterRegistrarINS1_15ConsoleReporterEE15ReporterFactoryESaIS5_ELN9__gnu_cxx12_Lock_policyE2EEEE10_S_raw_ptrEPS9_
FN:87,_ZNSt15__allocated_ptrISaISt23_Sp_counted_ptr_inplaceIN5Catch5clara6detail11BoundLambdaIZNS1_21makeCommandLineParserERNS1_10ConfigDataEEUlRKNSt7__cxx1112basic_stringIcSt11char_traitsIcESaIcEEEE3_EESaISG_ELN9__gnu_cxx12_Lock_policyE2EEEE10_S_raw_ptrEPSK_
FN:87,_ZNSt15__allocated_ptrISaISt23_Sp_counted_ptr_inplaceIN5Catch5clara6detail11BoundLambdaIZNS1_21makeCommandLineParserERNS1_10ConfigDataEEUlRKNSt7__cxx1112basic_stringIcSt11char_traitsIcESaIcEEEE5_EESaISG_ELN9__gnu_cxx12_Lock_policyE2EEEE10_S_raw_ptrEPSK_
FN:87,_ZNSt15__allocated_ptrISaISt23_Sp_counted_ptr_inplaceIN5Catch5clara6detail8BoundRefINSt7__cxx1112basic_stringIcSt11char_traitsIcESaIcEEEEESaISB_ELN9__gnu_cxx12_Lock_policyE2EEEE10_S_raw_ptrEPSF_
FN:87,_ZNSt15__allocated_ptrISaISt23_Sp_counted_ptr_inplaceIN5Catch8TestSpec15ExcludedPatternESaIS3_ELN9__gnu_cxx12_Lock_policyE2EEEE10_S_raw_ptrEPS7_
FN:87,_ZNSt15__allocated_ptrISaISt23_Sp_counted_ptr_inplaceIN5Catch22CumulativeReporterBaseINS1_13JunitReporterEE11SectionNodeESaIS5_ELN9__gnu_cxx12_Lock_policyE2EEEE10_S_raw_ptrEPS9_
FN:87,_ZNSt15__allocated_ptrISaISt23_Sp_counted_ptr_inplaceIN5Catch5clara6detail12BoundFlagRefESaIS4_ELN9__gnu_cxx12_Lock_policyE2EEEE10_S_raw_ptrEPS8_
FN:87,_ZNSt15__allocated_ptrISaISt23_Sp_counted_ptr_inplaceIN5Catch6ConfigESaIS2_ELN9__gnu_cxx12_Lock_policyE2EEEE10_S_raw_ptrEPS6_
FN:87,_ZNSt15__allocated_ptrISaISt23_Sp_counted_ptr_inplaceINSt7__cxx1112basic_stringIcSt11char_traitsIcESaIcEEESaIS6_ELN9__gnu_cxx12_Lock_policyE2EEEE10_S_raw_ptrEPSA_
FN:87,_ZNSt15__allocated_ptrISaISt23_Sp_counted_ptr_inplaceIN5Catch5clara6detail8BoundRefIiEESaIS5_ELN9__gnu_cxx12_Lock_policyE2EEEE10_S_raw_ptrEPS9_
FN:100,_ZSt18__allocate_guardedISaISt23_Sp_counted_ptr_inplaceIN5Catch17ReporterRegistrarINS1_15CompactReporterEE15ReporterFactoryESaIS5_ELN9__gnu_cxx12_Lock_policyE2EEEESt15__allocated_ptrIT_ERSC_
FN:100,_ZSt18__allocate_guardedISaISt23_Sp_counted_ptr_inplaceIN5Catch5clara6detail11BoundLambdaIZNS1_21makeCommandLineParserERNS1_10ConfigDataEEUliE7_EESaIS8_ELN9__gnu_cxx12_Lock_policyE2EEEESt15__allocated_ptrIT_ERSF_
FN:100,_ZSt18__allocate_guardedISaISt23_Sp_counted_ptr_inplaceIN5Catch5clara6detail15BoundFlagLambdaIZNS1_21makeCommandLineParserERNS1_10ConfigDataEEUlbE6_EESaIS8_ELN9__gnu_cxx12_Lock_policyE2EEEESt15__allocated_ptrIT_ERSF_
FN:100,_ZSt18__allocate_guardedISaISt23_Sp_counted_ptr_inplaceIN5Catch8TestSpec15ExcludedPatternESaIS3_ELN9__gnu_cxx12_Lock_policyE2EEEESt15__allocated_ptrIT_ERSA_
FN:100,_ZSt18__allocate_guardedISaISt23_Sp_counted_ptr_inplaceIN5Catch5clara6detail12BoundFlagRefESaIS4_ELN9__gnu_cxx12_Lock_policyE2EEEESt15__allocated_ptrIT_ERSB_
FN:100,_ZSt18__allocate_guardedISaISt23_Sp_counted_ptr_inplaceIN5Catch5clara6detail8BoundRefINSt7__cxx1112basic_stringIcSt11char_traitsIcESaIcEEEEESaISB_ELN9__gnu_cxx12_Lock_policyE2EEEESt15__allocated_ptrIT_ERSI_
FN:100,_ZSt18__allocate_guardedISaISt23_Sp_counted_ptr_inplaceIN5Catch5clara6detail11BoundLambdaIZNS1_21makeCommandLineParserERNS1_10ConfigDataEEUlRKNSt7__cxx1112basic_stringIcSt11char_traitsIcESaIcEEEE3_EESaISG_ELN9__gnu_cxx12_Lock_policyE2EEEESt15__allocated_ptrIT_ERSN_
FN:100,_ZSt18__allocate_guardedISaISt23_Sp_counted_ptr_inplaceIN5Catch8TestSpec10TagPatternESaIS3_ELN9__gnu_cxx12_Lock_policyE2EEEESt15__allocated_ptrIT_ERSA_
FN:100,_ZSt18__allocate_guardedISaISt23_Sp_counted_ptr_inplaceIN5Catch16TestCaseTracking14SectionTrackerESaIS3_ELN9__gnu_cxx12_Lock_policyE2EEEESt15__allocated_ptrIT_ERSA_
FN:100,_ZSt18__allocate_guardedISaISt23_Sp_counted_ptr_inplaceIN5Catch8TestSpec11NamePatternESaIS3_ELN9__gnu_cxx12_Lock_policyE2EEEESt15__allocated_ptrIT_ERSA_
FN:100,_ZSt18__allocate_guardedISaISt23_Sp_counted_ptr_inplaceIN5Catch17ReporterRegistrarINS1_11XmlReporterEE15ReporterFactoryESaIS5_ELN9__gnu_cxx12_Lock_policyE2EEEESt15__allocated_ptrIT_ERSC_
FN:100,_ZSt18__allocate_guardedISaISt23_Sp_counted_ptr_inplaceIN5Catch5clara6detail11BoundLambdaIZNS1_21makeCommandLineParserERNS1_10ConfigDataEEUlRKNSt7__cxx1112basic_stringIcSt11char_traitsIcESaIcEEEE2_EESaISG_ELN9__gnu_cxx12_Lock_policyE2EEEESt15__allocated_ptrIT_ERSN_
FN:100,_ZSt18__allocate_guardedISaISt23_Sp_counted_ptr_inplaceIN5Catch22CumulativeReporterBaseINS1_13JunitReporterEE4NodeINS1_14TestGroupStatsENS5_INS1_13TestCaseStatsENS4_11SectionNodeEEEEESaISA_ELN9__gnu_cxx12_Lock_policyE2EEEESt15__allocated_ptrIT_ERSH_
FN:100,_ZSt18__allocate_guardedISaISt23_Sp_counted_ptr_inplaceIN5Catch16TestCaseTracking12IndexTrackerESaIS3_ELN9__gnu_cxx12_Lock_policyE2EEEESt15__allocated_ptrIT_ERSA_
FN:100,_ZSt18__allocate_guardedISaISt23_Sp_counted_ptr_inplaceIN5Catch22CumulativeReporterBaseINS1_13JunitReporterEE4NodeINS1_13TestCaseStatsENS4_11SectionNodeEEESaIS8_ELN9__gnu_cxx12_Lock_policyE2EEEESt15__allocated_ptrIT_ERSF_
FN:100,_ZSt18__allocate_guardedISaISt23_Sp_counted_ptr_inplaceIN5Catch22CumulativeReporterBaseINS1_13JunitReporterEE4NodeINS1_12TestRunStatsENS5_INS1_14TestGroupStatsENS5_INS1_13TestCaseStatsENS4_11SectionNodeEEEEEEESaISC_ELN9__gnu_cxx12_Lock_policyE2EEEESt15__allocated_ptrIT_ERSJ_
FN:100,_ZSt18__allocate_guardedISaISt23_Sp_counted_ptr_inplaceIN5Catch6ConfigESaIS2_ELN9__gnu_cxx12_Lock_policyE2EEEESt15__allocated_ptrIT_ERS9_
FN:100,_ZSt18__allocate_guardedISaISt23_Sp_counted_ptr_inplaceIN5Catch5clara6detail11BoundLambdaIZNS1_21makeCommandLineParserERNS1_10ConfigDataEEUlRKNSt7__cxx1112basic_stringIcSt11char_traitsIcESaIcEEEE1_EESaISG_ELN9__gnu_cxx12_Lock_policyE2EEEESt15__allocated_ptrIT_ERSN_
FN:100,_ZSt18__allocate_guardedISaISt23_Sp_counted_ptr_inplaceIN5Catch22CumulativeReporterBaseINS1_13JunitReporterEE11SectionNodeESaIS5_ELN9__gnu_cxx12_Lock_policyE2EEEESt15__allocated_ptrIT_ERSC_
FN:100,_ZSt18__allocate_guardedISaISt23_Sp_counted_ptr_inplaceINSt7__cxx1112basic_stringIcSt11char_traitsIcESaIcEEESaIS6_ELN9__gnu_cxx12_Lock_policyE2EEEESt15__allocated_ptrIT_ERSD_
FN:100,_ZSt18__allocate_guardedISaISt23_Sp_counted_ptr_inplaceIN5Catch5clara6detail11BoundLambdaIZNS1_21makeCommandLineParserERNS1_10ConfigDataEEUlRKNSt7__cxx1112basic_stringIcSt11char_traitsIcESaIcEEEE4_EESaISG_ELN9__gnu_cxx12_Lock_policyE2EEEESt15__allocated_ptrIT_ERSN_
FN:100,_ZSt18__allocate_guardedISaISt23_Sp_counted_ptr_inplaceIN5Catch5clara6detail11BoundLambdaIZNS1_21makeCommandLineParserERNS1_10ConfigDataEEUlRKNSt7__cxx1112basic_stringIcSt11char_traitsIcESaIcEEEE5_EESaISG_ELN9__gnu_cxx12_Lock_policyE2EEEESt15__allocated_ptrIT_ERSN_
FN:100,_ZSt18__allocate_guardedISaISt23_Sp_counted_ptr_inplaceIN5Catch5clara6detail11BoundLambdaIZNS1_21makeCommandLineParserERNS1_10ConfigDataEEUlbE8_EESaIS8_ELN9__gnu_cxx12_Lock_policyE2EEEESt15__allocated_ptrIT_ERSF_
FN:100,_ZSt18__allocate_guardedISaISt23_Sp_counted_ptr_inplaceIN5Catch5clara6detail11BoundLambdaIZNS1_21makeCommandLineParserERNS1_10ConfigDataEEUlRKNSt7__cxx1112basic_stringIcSt11char_traitsIcESaIcEEEE_EESaISG_ELN9__gnu_cxx12_Lock_policyE2EEEESt15__allocated_ptrIT_ERSN_
FN:100,_ZSt18__allocate_guardedISaISt23_Sp_counted_ptr_inplaceIN5Catch5clara6detail11BoundLambdaIZNS1_21makeCommandLineParserERNS1_10ConfigDataEEUlRKNSt7__cxx1112basic_stringIcSt11char_traitsIcESaIcEEEE0_EESaISG_ELN9__gnu_cxx12_Lock_policyE2EEEESt15__allocated_ptrIT_ERSN_
FN:100,_ZSt18__allocate_guardedISaISt23_Sp_counted_ptr_inplaceIN5Catch17ReporterRegistrarINS1_13JunitReporterEE15ReporterFactoryESaIS5_ELN9__gnu_cxx12_Lock_policyE2EEEESt15__allocated_ptrIT_ERSC_
FN:100,_ZSt18__allocate_guardedISaISt23_Sp_counted_ptr_inplaceIN5Catch5clara6detail15BoundFlagLambdaIZNS3_4HelpC4ERbEUlbE_EESaIS8_ELN9__gnu_cxx12_Lock_policyE2EEEESt15__allocated_ptrIT_ERSF_
FN:100,_ZSt18__allocate_guardedISaISt23_Sp_counted_ptr_inplaceIN5Catch5clara6detail8BoundRefIiEESaIS5_ELN9__gnu_cxx12_Lock_policyE2EEEESt15__allocated_ptrIT_ERSC_
FN:100,_ZSt18__allocate_guardedISaISt23_Sp_counted_ptr_inplaceIN5Catch5clara6detail8BoundRefISt6vectorINSt7__cxx1112basic_stringIcSt11char_traitsIcESaIcEEESaISB_EEEESaISE_ELN9__gnu_cxx12_Lock_policyE2EEEESt15__allocated_ptrIT_ERSL_
FN:100,_ZSt18__allocate_guardedISaISt23_Sp_counted_ptr_inplaceIN5Catch17ReporterRegistrarINS1_15ConsoleReporterEE15ReporterFactoryESaIS5_ELN9__gnu_cxx12_Lock_policyE2EEEESt15__allocated_ptrIT_ERSC_
FNDA:0,_ZNSt15__allocated_ptrISaISt23_Sp_counted_ptr_inplaceIN5Catch22CumulativeReporterBaseINS1_13JunitReporterEE4NodeINS1_12TestRunStatsENS5_INS1_14TestGroupStatsENS5_INS1_13TestCaseStatsENS4_11SectionNodeEEEEEEESaISC_ELN9__gnu_cxx12_Lock_policyE2EEEEC2ERSH_PSG_
FNDA:0,_ZNSt15__allocated_ptrISaISt23_Sp_counted_ptr_inplaceIN5Catch22CumulativeReporterBaseINS1_13JunitReporterEE11SectionNodeESaIS5_ELN9__gnu_cxx12_Lock_policyE2EEEEC2ERSA_PS9_
FNDA:2,_ZNSt15__allocated_ptrISaISt23_Sp_counted_ptr_inplaceIN5Catch5clara6detail8BoundRefIiEESaIS5_ELN9__gnu_cxx12_Lock_policyE2EEEEC2ERSA_PS9_
FNDA:2,_ZNSt15__allocated_ptrISaISt23_Sp_counted_ptr_inplaceIN5Catch5clara6detail11BoundLambdaIZNS1_21makeCommandLineParserERNS1_10ConfigDataEEUlRKNSt7__cxx1112basic_stringIcSt11char_traitsIcESaIcEEEE4_EESaISG_ELN9__gnu_cxx12_Lock_policyE2EEEEC2ERSL_PSK_
FNDA:2,_ZNSt15__allocated_ptrISaISt23_Sp_counted_ptr_inplaceIN5Catch5clara6detail11BoundLambdaIZNS1_21makeCommandLineParserERNS1_10ConfigDataEEUlRKNSt7__cxx1112basic_stringIcSt11char_traitsIcESaIcEEEE3_EESaISG_ELN9__gnu_cxx12_Lock_policyE2EEEEC2ERSL_PSK_
FNDA:2,_ZNSt15__allocated_ptrISaISt23_Sp_counted_ptr_inplaceIN5Catch5clara6detail11BoundLambdaIZNS1_21makeCommandLineParserERNS1_10ConfigDataEEUlRKNSt7__cxx1112basic_stringIcSt11char_traitsIcESaIcEEEE2_EESaISG_ELN9__gnu_cxx12_Lock_policyE2EEEEC2ERSL_PSK_
FNDA:2,_ZNSt15__allocated_ptrISaISt23_Sp_counted_ptr_inplaceIN5Catch5clara6detail11BoundLambdaIZNS1_21makeCommandLineParserERNS1_10ConfigDataEEUlRKNSt7__cxx1112basic_stringIcSt11char_traitsIcESaIcEEEE1_EESaISG_ELN9__gnu_cxx12_Lock_policyE2EEEEC2ERSL_PSK_
FNDA:2,_ZNSt15__allocated_ptrISaISt23_Sp_counted_ptr_inplaceIN5Catch5clara6detail11BoundLambdaIZNS1_21makeCommandLineParserERNS1_10ConfigDataEEUlRKNSt7__cxx1112basic_stringIcSt11char_traitsIcESaIcEEEE5_EESaISG_ELN9__gnu_cxx12_Lock_policyE2EEEEC2ERSL_PSK_
FNDA:2,_ZNSt15__allocated_ptrISaISt23_Sp_counted_ptr_inplaceIN5Catch5clara6detail11BoundLambdaIZNS1_21makeCommandLineParserERNS1_10ConfigDataEEUlRKNSt7__cxx1112basic_stringIcSt11char_traitsIcESaIcEEEE0_EESaISG_ELN9__gnu_cxx12_Lock_policyE2EEEEC2ERSL_PSK_
FNDA:2,_ZNSt15__allocated_ptrISaISt23_Sp_counted_ptr_inplaceIN5Catch5clara6detail11BoundLambdaIZNS1_21makeCommandLineParserERNS1_10ConfigDataEEUlbE8_EESaIS8_ELN9__gnu_cxx12_Lock_policyE2EEEEC2ERSD_PSC_
FNDA:2,_ZNSt15__allocated_ptrISaISt23_Sp_counted_ptr_inplaceIN5Catch5clara6detail11BoundLambdaIZNS1_21makeCommandLineParserERNS1_10ConfigDataEEUlRKNSt7__cxx1112basic_stringIcSt11char_traitsIcESaIcEEEE_EESaISG_ELN9__gnu_cxx12_Lock_policyE2EEEEC2ERSL_PSK_
FNDA:2,_ZNSt15__allocated_ptrISaISt23_Sp_counted_ptr_inplaceIN5Catch5clara6detail11BoundLambdaIZNS1_21makeCommandLineParserERNS1_10ConfigDataEEUliE7_EESaIS8_ELN9__gnu_cxx12_Lock_policyE2EEEEC2ERSD_PSC_
FNDA:2,_ZNSt15__allocated_ptrISaISt23_Sp_counted_ptr_inplaceIN5Catch17ReporterRegistrarINS1_11XmlReporterEE15ReporterFactoryESaIS5_ELN9__gnu_cxx12_Lock_policyE2EEEEC2ERSA_PS9_
FNDA:2,_ZNSt15__allocated_ptrISaISt23_Sp_counted_ptr_inplaceIN5Catch17ReporterRegistrarINS1_13JunitReporterEE15ReporterFactoryESaIS5_ELN9__gnu_cxx12_Lock_policyE2EEEEC2ERSA_PS9_
FNDA:0,_ZNSt15__allocated_ptrISaISt23_Sp_counted_ptr_inplaceIN5Catch22CumulativeReporterBaseINS1_13JunitReporterEE4NodeINS1_14TestGroupStatsENS5_INS1_13TestCaseStatsENS4_11SectionNodeEEEEESaISA_ELN9__gnu_cxx12_Lock_policyE2EEEEC2ERSF_PSE_
FNDA:0,_ZNSt15__allocated_ptrISaISt23_Sp_counted_ptr_inplaceIN5Catch22CumulativeReporterBaseINS1_13JunitReporterEE4NodeINS1_13TestCaseStatsENS4_11SectionNodeEEESaIS8_ELN9__gnu_cxx12_Lock_policyE2EEEEC2ERSD_PSC_
FNDA:2,_ZNSt15__allocated_ptrISaISt23_Sp_counted_ptr_inplaceIN5Catch17ReporterRegistrarINS1_15ConsoleReporterEE15ReporterFactoryESaIS5_ELN9__gnu_cxx12_Lock_policyE2EEEEC2ERSA_PS9_
FNDA:2,_ZNSt15__allocated_ptrISaISt23_Sp_counted_ptr_inplaceIN5Catch17ReporterRegistrarINS1_15CompactReporterEE15ReporterFactoryESaIS5_ELN9__gnu_cxx12_Lock_policyE2EEEEC2ERSA_PS9_
FNDA:2,_ZNSt15__allocated_ptrISaISt23_Sp_counted_ptr_inplaceIN5Catch8TestSpec10TagPatternESaIS3_ELN9__gnu_cxx12_Lock_policyE2EEEEC2ERS8_PS7_
FNDA:2,_ZNSt15__allocated_ptrISaISt23_Sp_counted_ptr_inplaceIN5Catch8TestSpec15ExcludedPatternESaIS3_ELN9__gnu_cxx12_Lock_policyE2EEEEC2ERS8_PS7_
FNDA:0,_ZNSt15__allocated_ptrISaISt23_Sp_counted_ptr_inplaceIN5Catch8TestSpec11NamePatternESaIS3_ELN9__gnu_cxx12_Lock_policyE2EEEEC2ERS8_PS7_
FNDA:6,_ZNSt15__allocated_ptrISaISt23_Sp_counted_ptr_inplaceIN5Catch5clara6detail8BoundRefISt6vectorINSt7__cxx1112basic_stringIcSt11char_traitsIcESaIcEEESaISB_EEEESaISE_ELN9__gnu_cxx12_Lock_policyE2EEEEC2ERSJ_PSI_
FNDA:2,_ZNSt15__allocated_ptrISaISt23_Sp_counted_ptr_inplaceIN5Catch5clara6detail15BoundFlagLambdaIZNS1_21makeCommandLineParserERNS1_10ConfigDataEEUlbE6_EESaIS8_ELN9__gnu_cxx12_Lock_policyE2EEEEC2ERSD_PSC_
FNDA:2,_ZNSt15__allocated_ptrISaISt23_Sp_counted_ptr_inplaceIN5Catch5clara6detail15BoundFlagLambdaIZNS3_4HelpC4ERbEUlbE_EESaIS8_ELN9__gnu_cxx12_Lock_policyE2EEEEC2ERSD_PSC_
FNDA:0,_ZNSt15__allocated_ptrISaISt23_Sp_counted_ptr_inplaceIN5Catch16TestCaseTracking12IndexTrackerESaIS3_ELN9__gnu_cxx12_Lock_policyE2EEEEC2ERS8_PS7_
FNDA:20,_ZNSt15__allocated_ptrISaISt23_Sp_counted_ptr_inplaceIN5Catch16TestCaseTracking14SectionTrackerESaIS3_ELN9__gnu_cxx12_Lock_policyE2EEEEC2ERS8_PS7_
FNDA:2,_ZNSt15__allocated_ptrISaISt23_Sp_counted_ptr_inplaceIN5Catch6ConfigESaIS2_ELN9__gnu_cxx12_Lock_policyE2EEEEC2ERS7_PS6_
FNDA:20,_ZNSt15__allocated_ptrISaISt23_Sp_counted_ptr_inplaceIN5Catch5clara6detail12BoundFlagRefESaIS4_ELN9__gnu_cxx12_Lock_policyE2EEEEC2ERS9_PS8_
FNDA:6,_ZNSt15__allocated_ptrISaISt23_Sp_counted_ptr_inplaceIN5Catch5clara6detail8BoundRefINSt7__cxx1112basic_stringIcSt11char_traitsIcESaIcEEEEESaISB_ELN9__gnu_cxx12_Lock_policyE2EEEEC2ERSG_PSF_
FNDA:6,_ZNSt15__allocated_ptrISaISt23_Sp_counted_ptr_inplaceINSt7__cxx1112basic_stringIcSt11char_traitsIcESaIcEEESaIS6_ELN9__gnu_cxx12_Lock_policyE2EEEEC2ERSB_PSA_
FNDA:0,_ZNSt15__allocated_ptrISaISt23_Sp_counted_ptr_inplaceIN5Catch22CumulativeReporterBaseINS1_13JunitReporterEE4NodeINS1_12TestRunStatsENS5_INS1_14TestGroupStatsENS5_INS1_13TestCaseStatsENS4_11SectionNodeEEEEEEESaISC_ELN9__gnu_cxx12_Lock_policyE2EEEED2Ev
FNDA:0,_ZNSt15__allocated_ptrISaISt23_Sp_counted_ptr_inplaceIN5Catch22CumulativeReporterBaseINS1_13JunitReporterEE11SectionNodeESaIS5_ELN9__gnu_cxx12_Lock_policyE2EEEED2Ev
FNDA:2,_ZNSt15__allocated_ptrISaISt23_Sp_counted_ptr_inplaceIN5Catch5clara6detail8BoundRefIiEESaIS5_ELN9__gnu_cxx12_Lock_policyE2EEEED2Ev
FNDA:2,_ZNSt15__allocated_ptrISaISt23_Sp_counted_ptr_inplaceIN5Catch5clara6detail11BoundLambdaIZNS1_21makeCommandLineParserERNS1_10ConfigDataEEUlRKNSt7__cxx1112basic_stringIcSt11char_traitsIcESaIcEEEE4_EESaISG_ELN9__gnu_cxx12_Lock_policyE2EEEED2Ev
FNDA:2,_ZNSt15__allocated_ptrISaISt23_Sp_counted_ptr_inplaceIN5Catch5clara6detail11BoundLambdaIZNS1_21makeCommandLineParserERNS1_10ConfigDataEEUlRKNSt7__cxx1112basic_stringIcSt11char_traitsIcESaIcEEEE3_EESaISG_ELN9__gnu_cxx12_Lock_policyE2EEEED2Ev
FNDA:2,_ZNSt15__allocated_ptrISaISt23_Sp_counted_ptr_inplaceIN5Catch5clara6detail11BoundLambdaIZNS1_21makeCommandLineParserERNS1_10ConfigDataEEUlRKNSt7__cxx1112basic_stringIcSt11char_traitsIcESaIcEEEE2_EESaISG_ELN9__gnu_cxx12_Lock_policyE2EEEED2Ev
FNDA:2,_ZNSt15__allocated_ptrISaISt23_Sp_counted_ptr_inplaceIN5Catch5clara6detail11BoundLambdaIZNS1_21makeCommandLineParserERNS1_10ConfigDataEEUlRKNSt7__cxx1112basic_stringIcSt11char_traitsIcESaIcEEEE1_EESaISG_ELN9__gnu_cxx12_Lock_policyE2EEEED2Ev
FNDA:2,_ZNSt15__allocated_ptrISaISt23_Sp_counted_ptr_inplaceIN5Catch5clara6detail11BoundLambdaIZNS1_21makeCommandLineParserERNS1_10ConfigDataEEUlRKNSt7__cxx1112basic_stringIcSt11char_traitsIcESaIcEEEE5_EESaISG_ELN9__gnu_cxx12_Lock_policyE2EEEED2Ev
FNDA:2,_ZNSt15__allocated_ptrISaISt23_Sp_counted_ptr_inplaceIN5Catch5clara6detail11BoundLambdaIZNS1_21makeCommandLineParserERNS1_10ConfigDataEEUlRKNSt7__cxx1112basic_stringIcSt11char_traitsIcESaIcEEEE0_EESaISG_ELN9__gnu_cxx12_Lock_policyE2EEEED2Ev
FNDA:2,_ZNSt15__allocated_ptrISaISt23_Sp_counted_ptr_inplaceIN5Catch5clara6detail11BoundLambdaIZNS1_21makeCommandLineParserERNS1_10ConfigDataEEUlbE8_EESaIS8_ELN9__gnu_cxx12_Lock_policyE2EEEED2Ev
FNDA:2,_ZNSt15__allocated_ptrISaISt23_Sp_counted_ptr_inplaceIN5Catch5clara6detail11BoundLambdaIZNS1_21makeCommandLineParserERNS1_10ConfigDataEEUlRKNSt7__cxx1112basic_stringIcSt11char_traitsIcESaIcEEEE_EESaISG_ELN9__gnu_cxx12_Lock_policyE2EEEED2Ev
FNDA:2,_ZNSt15__allocated_ptrISaISt23_Sp_counted_ptr_inplaceIN5Catch5clara6detail11BoundLambdaIZNS1_21makeCommandLineParserERNS1_10ConfigDataEEUliE7_EESaIS8_ELN9__gnu_cxx12_Lock_policyE2EEEED2Ev
FNDA:2,_ZNSt15__allocated_ptrISaISt23_Sp_counted_ptr_inplaceIN5Catch17ReporterRegistrarINS1_11XmlReporterEE15ReporterFactoryESaIS5_ELN9__gnu_cxx12_Lock_policyE2EEEED2Ev
FNDA:2,_ZNSt15__allocated_ptrISaISt23_Sp_counted_ptr_inplaceIN5Catch17ReporterRegistrarINS1_13JunitReporterEE15ReporterFactoryESaIS5_ELN9__gnu_cxx12_Lock_policyE2EEEED2Ev
FNDA:0,_ZNSt15__allocated_ptrISaISt23_Sp_counted_ptr_inplaceIN5Catch22CumulativeReporterBaseINS1_13JunitReporterEE4NodeINS1_14TestGroupStatsENS5_INS1_13TestCaseStatsENS4_11SectionNodeEEEEESaISA_ELN9__gnu_cxx12_Lock_policyE2EEEED2Ev
FNDA:0,_ZNSt15__allocated_ptrISaISt23_Sp_counted_ptr_inplaceIN5Catch22CumulativeReporterBaseINS1_13JunitReporterEE4NodeINS1_13TestCaseStatsENS4_11SectionNodeEEESaIS8_ELN9__gnu_cxx12_Lock_policyE2EEEED2Ev
FNDA:2,_ZNSt15__allocated_ptrISaISt23_Sp_counted_ptr_inplaceIN5Catch17ReporterRegistrarINS1_15ConsoleReporterEE15ReporterFactoryESaIS5_ELN9__gnu_cxx12_Lock_policyE2EEEED2Ev
FNDA:2,_ZNSt15__allocated_ptrISaISt23_Sp_counted_ptr_inplaceIN5Catch17ReporterRegistrarINS1_15CompactReporterEE15ReporterFactoryESaIS5_ELN9__gnu_cxx12_Lock_policyE2EEEED2Ev
FNDA:2,_ZNSt15__allocated_ptrISaISt23_Sp_counted_ptr_inplaceIN5Catch8TestSpec10TagPatternESaIS3_ELN9__gnu_cxx12_Lock_policyE2EEEED2Ev
FNDA:2,_ZNSt15__allocated_ptrISaISt23_Sp_counted_ptr_inplaceIN5Catch8TestSpec15ExcludedPatternESaIS3_ELN9__gnu_cxx12_Lock_policyE2EEEED2Ev
FNDA:0,_ZNSt15__allocated_ptrISaISt23_Sp_counted_ptr_inplaceIN5Catch8TestSpec11NamePatternESaIS3_ELN9__gnu_cxx12_Lock_policyE2EEEED2Ev
FNDA:6,_ZNSt15__allocated_ptrISaISt23_Sp_counted_ptr_inplaceIN5Catch5clara6detail8BoundRefISt6vectorINSt7__cxx1112basic_stringIcSt11char_traitsIcESaIcEEESaISB_EEEESaISE_ELN9__gnu_cxx12_Lock_policyE2EEEED2Ev
FNDA:2,_ZNSt15__allocated_ptrISaISt23_Sp_counted_ptr_inplaceIN5Catch5clara6detail15BoundFlagLambdaIZNS1_21makeCommandLineParserERNS1_10ConfigDataEEUlbE6_EESaIS8_ELN9__gnu_cxx12_Lock_policyE2EEEED2Ev
FNDA:2,_ZNSt15__allocated_ptrISaISt23_Sp_counted_ptr_inplaceIN5Catch5clara6detail15BoundFlagLambdaIZNS3_4HelpC4ERbEUlbE_EESaIS8_ELN9__gnu_cxx12_Lock_policyE2EEEED2Ev
FNDA:0,_ZNSt15__allocated_ptrISaISt23_Sp_counted_ptr_inplaceIN5Catch16TestCaseTracking12IndexTrackerESaIS3_ELN9__gnu_cxx12_Lock_policyE2EEEED2Ev
FNDA:20,_ZNSt15__allocated_ptrISaISt23_Sp_counted_ptr_inplaceIN5Catch16TestCaseTracking14SectionTrackerESaIS3_ELN9__gnu_cxx12_Lock_policyE2EEEED2Ev
FNDA:2,_ZNSt15__allocated_ptrISaISt23_Sp_counted_ptr_inplaceIN5Catch6ConfigESaIS2_ELN9__gnu_cxx12_Lock_policyE2EEEED2Ev
FNDA:20,_ZNSt15__allocated_ptrISaISt23_Sp_counted_ptr_inplaceIN5Catch5clara6detail12BoundFlagRefESaIS4_ELN9__gnu_cxx12_Lock_policyE2EEEED2Ev
FNDA:6,_ZNSt15__allocated_ptrISaISt23_Sp_counted_ptr_inplaceIN5Catch5clara6detail8BoundRefINSt7__cxx1112basic_stringIcSt11char_traitsIcESaIcEEEEESaISB_ELN9__gnu_cxx12_Lock_policyE2EEEED2Ev
FNDA:6,_ZNSt15__allocated_ptrISaISt23_Sp_counted_ptr_inplaceINSt7__cxx1112basic_stringIcSt11char_traitsIcESaIcEEESaIS6_ELN9__gnu_cxx12_Lock_policyE2EEEED2Ev
FNDA:0,_ZNSt15__allocated_ptrISaISt23_Sp_counted_ptr_inplaceIN5Catch22CumulativeReporterBaseINS1_13JunitReporterEE4NodeINS1_12TestRunStatsENS5_INS1_14TestGroupStatsENS5_INS1_13TestCaseStatsENS4_11SectionNodeEEEEEEESaISC_ELN9__gnu_cxx12_Lock_policyE2EEEEaSEDn
FNDA:0,_ZNSt15__allocated_ptrISaISt23_Sp_counted_ptr_inplaceIN5Catch22CumulativeReporterBaseINS1_13JunitReporterEE11SectionNodeESaIS5_ELN9__gnu_cxx12_Lock_policyE2EEEEaSEDn
FNDA:1,_ZNSt15__allocated_ptrISaISt23_Sp_counted_ptr_inplaceIN5Catch5clara6detail8BoundRefIiEESaIS5_ELN9__gnu_cxx12_Lock_policyE2EEEEaSEDn
FNDA:1,_ZNSt15__allocated_ptrISaISt23_Sp_counted_ptr_inplaceIN5Catch5clara6detail11BoundLambdaIZNS1_21makeCommandLineParserERNS1_10ConfigDataEEUlRKNSt7__cxx1112basic_stringIcSt11char_traitsIcESaIcEEEE4_EESaISG_ELN9__gnu_cxx12_Lock_policyE2EEEEaSEDn
FNDA:1,_ZNSt15__allocated_ptrISaISt23_Sp_counted_ptr_inplaceIN5Catch5clara6detail11BoundLambdaIZNS1_21makeCommandLineParserERNS1_10ConfigDataEEUlRKNSt7__cxx1112basic_stringIcSt11char_traitsIcESaIcEEEE3_EESaISG_ELN9__gnu_cxx12_Lock_policyE2EEEEaSEDn
FNDA:1,_ZNSt15__allocated_ptrISaISt23_Sp_counted_ptr_inplaceIN5Catch5clara6detail11BoundLambdaIZNS1_21makeCommandLineParserERNS1_10ConfigDataEEUlRKNSt7__cxx1112basic_stringIcSt11char_traitsIcESaIcEEEE2_EESaISG_ELN9__gnu_cxx12_Lock_policyE2EEEEaSEDn
FNDA:1,_ZNSt15__allocated_ptrISaISt23_Sp_counted_ptr_inplaceIN5Catch5clara6detail11BoundLambdaIZNS1_21makeCommandLineParserERNS1_10ConfigDataEEUlRKNSt7__cxx1112basic_stringIcSt11char_traitsIcESaIcEEEE1_EESaISG_ELN9__gnu_cxx12_Lock_policyE2EEEEaSEDn
FNDA:1,_ZNSt15__allocated_ptrISaISt23_Sp_counted_ptr_inplaceIN5Catch5clara6detail11BoundLambdaIZNS1_21makeCommandLineParserERNS1_10ConfigDataEEUlRKNSt7__cxx1112basic_stringIcSt11char_traitsIcESaIcEEEE5_EESaISG_ELN9__gnu_cxx12_Lock_policyE2EEEEaSEDn
FNDA:1,_ZNSt15__allocated_ptrISaISt23_Sp_counted_ptr_inplaceIN5Catch5clara6detail11BoundLambdaIZNS1_21makeCommandLineParserERNS1_10ConfigDataEEUlRKNSt7__cxx1112basic_stringIcSt11char_traitsIcESaIcEEEE0_EESaISG_ELN9__gnu_cxx12_Lock_policyE2EEEEaSEDn
FNDA:1,_ZNSt15__allocated_ptrISaISt23_Sp_counted_ptr_inplaceIN5Catch5clara6detail11BoundLambdaIZNS1_21makeCommandLineParserERNS1_10ConfigDataEEUlbE8_EESaIS8_ELN9__gnu_cxx12_Lock_policyE2EEEEaSEDn
FNDA:1,_ZNSt15__allocated_ptrISaISt23_Sp_counted_ptr_inplaceIN5Catch5clara6detail11BoundLambdaIZNS1_21makeCommandLineParserERNS1_10ConfigDataEEUlRKNSt7__cxx1112basic_stringIcSt11char_traitsIcESaIcEEEE_EESaISG_ELN9__gnu_cxx12_Lock_policyE2EEEEaSEDn
FNDA:1,_ZNSt15__allocated_ptrISaISt23_Sp_counted_ptr_inplaceIN5Catch5clara6detail11BoundLambdaIZNS1_21makeCommandLineParserERNS1_10ConfigDataEEUliE7_EESaIS8_ELN9__gnu_cxx12_Lock_policyE2EEEEaSEDn
FNDA:1,_ZNSt15__allocated_ptrISaISt23_Sp_counted_ptr_inplaceIN5Catch17ReporterRegistrarINS1_11XmlReporterEE15ReporterFactoryESaIS5_ELN9__gnu_cxx12_Lock_policyE2EEEEaSEDn
FNDA:1,_ZNSt15__allocated_ptrISaISt23_Sp_counted_ptr_inplaceIN5Catch17ReporterRegistrarINS1_13JunitReporterEE15ReporterFactoryESaIS5_ELN9__gnu_cxx12_Lock_policyE2EEEEaSEDn
FNDA:0,_ZNSt15__allocated_ptrISaISt23_Sp_counted_ptr_inplaceIN5Catch22CumulativeReporterBaseINS1_13JunitReporterEE4NodeINS1_14TestGroupStatsENS5_INS1_13TestCaseStatsENS4_11SectionNodeEEEEESaISA_ELN9__gnu_cxx12_Lock_policyE2EEEEaSEDn
FNDA:0,_ZNSt15__allocated_ptrISaISt23_Sp_counted_ptr_inplaceIN5Catch22CumulativeReporterBaseINS1_13JunitReporterEE4NodeINS1_13TestCaseStatsENS4_11SectionNodeEEESaIS8_ELN9__gnu_cxx12_Lock_policyE2EEEEaSEDn
FNDA:1,_ZNSt15__allocated_ptrISaISt23_Sp_counted_ptr_inplaceIN5Catch17ReporterRegistrarINS1_15ConsoleReporterEE15ReporterFactoryESaIS5_ELN9__gnu_cxx12_Lock_policyE2EEEEaSEDn
FNDA:1,_ZNSt15__allocated_ptrISaISt23_Sp_counted_ptr_inplaceIN5Catch17ReporterRegistrarINS1_15CompactReporterEE15ReporterFactoryESaIS5_ELN9__gnu_cxx12_Lock_policyE2EEEEaSEDn
FNDA:1,_ZNSt15__allocated_ptrISaISt23_Sp_counted_ptr_inplaceIN5Catch8TestSpec10TagPatternESaIS3_ELN9__gnu_cxx12_Lock_policyE2EEEEaSEDn
FNDA:1,_ZNSt15__allocated_ptrISaISt23_Sp_counted_ptr_inplaceIN5Catch8TestSpec15ExcludedPatternESaIS3_ELN9__gnu_cxx12_Lock_policyE2EEEEaSEDn
FNDA:0,_ZNSt15__allocated_ptrISaISt23_Sp_counted_ptr_inplaceIN5Catch8TestSpec11NamePatternESaIS3_ELN9__gnu_cxx12_Lock_policyE2EEEEaSEDn
FNDA:3,_ZNSt15__allocated_ptrISaISt23_Sp_counted_ptr_inplaceIN5Catch5clara6detail8BoundRefISt6vectorINSt7__cxx1112basic_stringIcSt11char_traitsIcESaIcEEESaISB_EEEESaISE_ELN9__gnu_cxx12_Lock_policyE2EEEEaSEDn
FNDA:1,_ZNSt15__allocated_ptrISaISt23_Sp_counted_ptr_inplaceIN5Catch5clara6detail15BoundFlagLambdaIZNS1_21makeCommandLineParserERNS1_10ConfigDataEEUlbE6_EESaIS8_ELN9__gnu_cxx12_Lock_policyE2EEEEaSEDn
FNDA:1,_ZNSt15__allocated_ptrISaISt23_Sp_counted_ptr_inplaceIN5Catch5clara6detail15BoundFlagLambdaIZNS3_4HelpC4ERbEUlbE_EESaIS8_ELN9__gnu_cxx12_Lock_policyE2EEEEaSEDn
FNDA:0,_ZNSt15__allocated_ptrISaISt23_Sp_counted_ptr_inplaceIN5Catch16TestCaseTracking12IndexTrackerESaIS3_ELN9__gnu_cxx12_Lock_policyE2EEEEaSEDn
FNDA:10,_ZNSt15__allocated_ptrISaISt23_Sp_counted_ptr_inplaceIN5Catch16TestCaseTracking14SectionTrackerESaIS3_ELN9__gnu_cxx12_Lock_policyE2EEEEaSEDn
FNDA:1,_ZNSt15__allocated_ptrISaISt23_Sp_counted_ptr_inplaceIN5Catch6ConfigESaIS2_ELN9__gnu_cxx12_Lock_policyE2EEEEaSEDn
FNDA:10,_ZNSt15__allocated_ptrISaISt23_Sp_counted_ptr_inplaceIN5Catch5clara6detail12BoundFlagRefESaIS4_ELN9__gnu_cxx12_Lock_policyE2EEEEaSEDn
FNDA:3,_ZNSt15__allocated_ptrISaISt23_Sp_counted_ptr_inplaceIN5Catch5clara6detail8BoundRefINSt7__cxx1112basic_stringIcSt11char_traitsIcESaIcEEEEESaISB_ELN9__gnu_cxx12_Lock_policyE2EEEEaSEDn
FNDA:3,_ZNSt15__allocated_ptrISaISt23_Sp_counted_ptr_inplaceINSt7__cxx1112basic_stringIcSt11char_traitsIcESaIcEEESaIS6_ELN9__gnu_cxx12_Lock_policyE2EEEEaSEDn
FNDA:0,_ZNSt15__allocated_ptrISaISt23_Sp_counted_ptr_inplaceIN5Catch22CumulativeReporterBaseINS1_13JunitReporterEE4NodeINS1_12TestRunStatsENS5_INS1_14TestGroupStatsENS5_INS1_13TestCaseStatsENS4_11SectionNodeEEEEEEESaISC_ELN9__gnu_cxx12_Lock_policyE2EEEE3getEv
FNDA:0,_ZNSt15__allocated_ptrISaISt23_Sp_counted_ptr_inplaceIN5Catch22CumulativeReporterBaseINS1_13JunitReporterEE11SectionNodeESaIS5_ELN9__gnu_cxx12_Lock_policyE2EEEE3getEv
FNDA:1,_ZNSt15__allocated_ptrISaISt23_Sp_counted_ptr_inplaceIN5Catch5clara6detail8BoundRefIiEESaIS5_ELN9__gnu_cxx12_Lock_policyE2EEEE3getEv
FNDA:1,_ZNSt15__allocated_ptrISaISt23_Sp_counted_ptr_inplaceIN5Catch5clara6detail11BoundLambdaIZNS1_21makeCommandLineParserERNS1_10ConfigDataEEUlRKNSt7__cxx1112basic_stringIcSt11char_traitsIcESaIcEEEE4_EESaISG_ELN9__gnu_cxx12_Lock_policyE2EEEE3getEv
FNDA:1,_ZNSt15__allocated_ptrISaISt23_Sp_counted_ptr_inplaceIN5Catch5clara6detail11BoundLambdaIZNS1_21makeCommandLineParserERNS1_10ConfigDataEEUlRKNSt7__cxx1112basic_stringIcSt11char_traitsIcESaIcEEEE3_EESaISG_ELN9__gnu_cxx12_Lock_policyE2EEEE3getEv
FNDA:1,_ZNSt15__allocated_ptrISaISt23_Sp_counted_ptr_inplaceIN5Catch5clara6detail11BoundLambdaIZNS1_21makeCommandLineParserERNS1_10ConfigDataEEUlRKNSt7__cxx1112basic_stringIcSt11char_traitsIcESaIcEEEE2_EESaISG_ELN9__gnu_cxx12_Lock_policyE2EEEE3getEv
FNDA:1,_ZNSt15__allocated_ptrISaISt23_Sp_counted_ptr_inplaceIN5Catch5clara6detail11BoundLambdaIZNS1_21makeCommandLineParserERNS1_10ConfigDataEEUlRKNSt7__cxx1112basic_stringIcSt11char_traitsIcESaIcEEEE1_EESaISG_ELN9__gnu_cxx12_Lock_policyE2EEEE3getEv
FNDA:1,_ZNSt15__allocated_ptrISaISt23_Sp_counted_ptr_inplaceIN5Catch5clara6detail11BoundLambdaIZNS1_21makeCommandLineParserERNS1_10ConfigDataEEUlRKNSt7__cxx1112basic_stringIcSt11char_traitsIcESaIcEEEE5_EESaISG_ELN9__gnu_cxx12_Lock_policyE2EEEE3getEv
FNDA:1,_ZNSt15__allocated_ptrISaISt23_Sp_counted_ptr_inplaceIN5Catch5clara6detail11BoundLambdaIZNS1_21makeCommandLineParserERNS1_10ConfigDataEEUlRKNSt7__cxx1112basic_stringIcSt11char_traitsIcESaIcEEEE0_EESaISG_ELN9__gnu_cxx12_Lock_policyE2EEEE3getEv
FNDA:1,_ZNSt15__allocated_ptrISaISt23_Sp_counted_ptr_inplaceIN5Catch5clara6detail11BoundLambdaIZNS1_21makeCommandLineParserERNS1_10ConfigDataEEUlbE8_EESaIS8_ELN9__gnu_cxx12_Lock_policyE2EEEE3getEv
FNDA:1,_ZNSt15__allocated_ptrISaISt23_Sp_counted_ptr_inplaceIN5Catch5clara6detail11BoundLambdaIZNS1_21makeCommandLineParserERNS1_10ConfigDataEEUlRKNSt7__cxx1112basic_stringIcSt11char_traitsIcESaIcEEEE_EESaISG_ELN9__gnu_cxx12_Lock_policyE2EEEE3getEv
FNDA:1,_ZNSt15__allocated_ptrISaISt23_Sp_counted_ptr_inplaceIN5Catch5clara6detail11BoundLambdaIZNS1_21makeCommandLineParserERNS1_10ConfigDataEEUliE7_EESaIS8_ELN9__gnu_cxx12_Lock_policyE2EEEE3getEv
FNDA:1,_ZNSt15__allocated_ptrISaISt23_Sp_counted_ptr_inplaceIN5Catch17ReporterRegistrarINS1_11XmlReporterEE15ReporterFactoryESaIS5_ELN9__gnu_cxx12_Lock_policyE2EEEE3getEv
FNDA:1,_ZNSt15__allocated_ptrISaISt23_Sp_counted_ptr_inplaceIN5Catch17ReporterRegistrarINS1_13JunitReporterEE15ReporterFactoryESaIS5_ELN9__gnu_cxx12_Lock_policyE2EEEE3getEv
FNDA:0,_ZNSt15__allocated_ptrISaISt23_Sp_counted_ptr_inplaceIN5Catch22CumulativeReporterBaseINS1_13JunitReporterEE4NodeINS1_14TestGroupStatsENS5_INS1_13TestCaseStatsENS4_11SectionNodeEEEEESaISA_ELN9__gnu_cxx12_Lock_policyE2EEEE3getEv
FNDA:0,_ZNSt15__allocated_ptrISaISt23_Sp_counted_ptr_inplaceIN5Catch22CumulativeReporterBaseINS1_13JunitReporterEE4NodeINS1_13TestCaseStatsENS4_11SectionNodeEEESaIS8_ELN9__gnu_cxx12_Lock_policyE2EEEE3getEv
FNDA:1,_ZNSt15__allocated_ptrISaISt23_Sp_counted_ptr_inplaceIN5Catch17ReporterRegistrarINS1_15ConsoleReporterEE15ReporterFactoryESaIS5_ELN9__gnu_cxx12_Lock_policyE2EEEE3getEv
FNDA:1,_ZNSt15__allocated_ptrISaISt23_Sp_counted_ptr_inplaceIN5Catch17ReporterRegistrarINS1_15CompactReporterEE15ReporterFactoryESaIS5_ELN9__gnu_cxx12_Lock_policyE2EEEE3getEv
FNDA:1,_ZNSt15__allocated_ptrISaISt23_Sp_counted_ptr_inplaceIN5Catch8TestSpec10TagPatternESaIS3_ELN9__gnu_cxx12_Lock_policyE2EEEE3getEv
FNDA:1,_ZNSt15__allocated_ptrISaISt23_Sp_counted_ptr_inplaceIN5Catch8TestSpec15ExcludedPatternESaIS3_ELN9__gnu_cxx12_Lock_policyE2EEEE3getEv
FNDA:0,_ZNSt15__allocated_ptrISaISt23_Sp_counted_ptr_inplaceIN5Catch8TestSpec11NamePatternESaIS3_ELN9__gnu_cxx12_Lock_policyE2EEEE3getEv
FNDA:3,_ZNSt15__allocated_ptrISaISt23_Sp_counted_ptr_inplaceIN5Catch5clara6detail8BoundRefISt6vectorINSt7__cxx1112basic_stringIcSt11char_traitsIcESaIcEEESaISB_EEEESaISE_ELN9__gnu_cxx12_Lock_policyE2EEEE3getEv
FNDA:1,_ZNSt15__allocated_ptrISaISt23_Sp_counted_ptr_inplaceIN5Catch5clara6detail15BoundFlagLambdaIZNS1_21makeCommandLineParserERNS1_10ConfigDataEEUlbE6_EESaIS8_ELN9__gnu_cxx12_Lock_policyE2EEEE3getEv
FNDA:1,_ZNSt15__allocated_ptrISaISt23_Sp_counted_ptr_inplaceIN5Catch5clara6detail15BoundFlagLambdaIZNS3_4HelpC4ERbEUlbE_EESaIS8_ELN9__gnu_cxx12_Lock_policyE2EEEE3getEv
FNDA:0,_ZNSt15__allocated_ptrISaISt23_Sp_counted_ptr_inplaceIN5Catch16TestCaseTracking12IndexTrackerESaIS3_ELN9__gnu_cxx12_Lock_policyE2EEEE3getEv
FNDA:10,_ZNSt15__allocated_ptrISaISt23_Sp_counted_ptr_inplaceIN5Catch16TestCaseTracking14SectionTrackerESaIS3_ELN9__gnu_cxx12_Lock_policyE2EEEE3getEv
FNDA:1,_ZNSt15__allocated_ptrISaISt23_Sp_counted_ptr_inplaceIN5Catch6ConfigESaIS2_ELN9__gnu_cxx12_Lock_policyE2EEEE3getEv
FNDA:10,_ZNSt15__allocated_ptrISaISt23_Sp_counted_ptr_inplaceIN5Catch5clara6detail12BoundFlagRefESaIS4_ELN9__gnu_cxx12_Lock_policyE2EEEE3getEv
FNDA:3,_ZNSt15__allocated_ptrISaISt23_Sp_counted_ptr_inplaceIN5Catch5clara6detail8BoundRefINSt7__cxx1112basic_stringIcSt11char_traitsIcESaIcEEEEESaISB_ELN9__gnu_cxx12_Lock_policyE2EEEE3getEv
FNDA:3,_ZNSt15__allocated_ptrISaISt23_Sp_counted_ptr_inplaceINSt7__cxx1112basic_stringIcSt11char_traitsIcESaIcEEESaIS6_ELN9__gnu_cxx12_Lock_policyE2EEEE3getEv
FNDA:0,_ZNSt15__allocated_ptrISaISt23_Sp_counted_ptr_inplaceIN5Catch22CumulativeReporterBaseINS1_13JunitReporterEE4NodeINS1_12TestRunStatsENS5_INS1_14TestGroupStatsENS5_INS1_13TestCaseStatsENS4_11SectionNodeEEEEEEESaISC_ELN9__gnu_cxx12_Lock_policyE2EEEE10_S_raw_ptrEPSG_
FNDA:0,_ZNSt15__allocated_ptrISaISt23_Sp_counted_ptr_inplaceIN5Catch22CumulativeReporterBaseINS1_13JunitReporterEE11SectionNodeESaIS5_ELN9__gnu_cxx12_Lock_policyE2EEEE10_S_raw_ptrEPS9_
FNDA:1,_ZNSt15__allocated_ptrISaISt23_Sp_counted_ptr_inplaceIN5Catch5clara6detail8BoundRefIiEESaIS5_ELN9__gnu_cxx12_Lock_policyE2EEEE10_S_raw_ptrEPS9_
FNDA:1,_ZNSt15__allocated_ptrISaISt23_Sp_counted_ptr_inplaceIN5Catch5clara6detail11BoundLambdaIZNS1_21makeCommandLineParserERNS1_10ConfigDataEEUlRKNSt7__cxx1112basic_stringIcSt11char_traitsIcESaIcEEEE4_EESaISG_ELN9__gnu_cxx12_Lock_policyE2EEEE10_S_raw_ptrEPSK_
FNDA:1,_ZNSt15__allocated_ptrISaISt23_Sp_counted_ptr_inplaceIN5Catch5clara6detail11BoundLambdaIZNS1_21makeCommandLineParserERNS1_10ConfigDataEEUlRKNSt7__cxx1112basic_stringIcSt11char_traitsIcESaIcEEEE3_EESaISG_ELN9__gnu_cxx12_Lock_policyE2EEEE10_S_raw_ptrEPSK_
FNDA:1,_ZNSt15__allocated_ptrISaISt23_Sp_counted_ptr_inplaceIN5Catch5clara6detail11BoundLambdaIZNS1_21makeCommandLineParserERNS1_10ConfigDataEEUlRKNSt7__cxx1112basic_stringIcSt11char_traitsIcESaIcEEEE2_EESaISG_ELN9__gnu_cxx12_Lock_policyE2EEEE10_S_raw_ptrEPSK_
FNDA:1,_ZNSt15__allocated_ptrISaISt23_Sp_counted_ptr_inplaceIN5Catch5clara6detail11BoundLambdaIZNS1_21makeCommandLineParserERNS1_10ConfigDataEEUlRKNSt7__cxx1112basic_stringIcSt11char_traitsIcESaIcEEEE1_EESaISG_ELN9__gnu_cxx12_Lock_policyE2EEEE10_S_raw_ptrEPSK_
FNDA:1,_ZNSt15__allocated_ptrISaISt23_Sp_counted_ptr_inplaceIN5Catch5clara6detail11BoundLambdaIZNS1_21makeCommandLineParserERNS1_10ConfigDataEEUlRKNSt7__cxx1112basic_stringIcSt11char_traitsIcESaIcEEEE5_EESaISG_ELN9__gnu_cxx12_Lock_policyE2EEEE10_S_raw_ptrEPSK_
FNDA:1,_ZNSt15__allocated_ptrISaISt23_Sp_counted_ptr_inplaceIN5Catch5clara6detail11BoundLambdaIZNS1_21makeCommandLineParserERNS1_10ConfigDataEEUlRKNSt7__cxx1112basic_stringIcSt11char_traitsIcESaIcEEEE0_EESaISG_ELN9__gnu_cxx12_Lock_policyE2EEEE10_S_raw_ptrEPSK_
FNDA:1,_ZNSt15__allocated_ptrISaISt23_Sp_counted_ptr_inplaceIN5Catch5clara6detail11BoundLambdaIZNS1_21makeCommandLineParserERNS1_10ConfigDataEEUlbE8_EESaIS8_ELN9__gnu_cxx12_Lock_policyE2EEEE10_S_raw_ptrEPSC_
FNDA:1,_ZNSt15__allocated_ptrISaISt23_Sp_counted_ptr_inplaceIN5Catch5clara6detail11BoundLambdaIZNS1_21makeCommandLineParserERNS1_10ConfigDataEEUlRKNSt7__cxx1112basic_stringIcSt11char_traitsIcESaIcEEEE_EESaISG_ELN9__gnu_cxx12_Lock_policyE2EEEE10_S_raw_ptrEPSK_
FNDA:1,_ZNSt15__allocated_ptrISaISt23_Sp_counted_ptr_inplaceIN5Catch5clara6detail11BoundLambdaIZNS1_21makeCommandLineParserERNS1_10ConfigDataEEUliE7_EESaIS8_ELN9__gnu_cxx12_Lock_policyE2EEEE10_S_raw_ptrEPSC_
FNDA:1,_ZNSt15__allocated_ptrISaISt23_Sp_counted_ptr_inplaceIN5Catch17ReporterRegistrarINS1_11XmlReporterEE15ReporterFactoryESaIS5_ELN9__gnu_cxx12_Lock_policyE2EEEE10_S_raw_ptrEPS9_
FNDA:1,_ZNSt15__allocated_ptrISaISt23_Sp_counted_ptr_inplaceIN5Catch17ReporterRegistrarINS1_13JunitReporterEE15ReporterFactoryESaIS5_ELN9__gnu_cxx12_Lock_policyE2EEEE10_S_raw_ptrEPS9_
FNDA:0,_ZNSt15__allocated_ptrISaISt23_Sp_counted_ptr_inplaceIN5Catch22CumulativeReporterBaseINS1_13JunitReporterEE4NodeINS1_14TestGroupStatsENS5_INS1_13TestCaseStatsENS4_11SectionNodeEEEEESaISA_ELN9__gnu_cxx12_Lock_policyE2EEEE10_S_raw_ptrEPSE_
FNDA:0,_ZNSt15__allocated_ptrISaISt23_Sp_counted_ptr_inplaceIN5Catch22CumulativeReporterBaseINS1_13JunitReporterEE4NodeINS1_13TestCaseStatsENS4_11SectionNodeEEESaIS8_ELN9__gnu_cxx12_Lock_policyE2EEEE10_S_raw_ptrEPSC_
FNDA:1,_ZNSt15__allocated_ptrISaISt23_Sp_counted_ptr_inplaceIN5Catch17ReporterRegistrarINS1_15ConsoleReporterEE15ReporterFactoryESaIS5_ELN9__gnu_cxx12_Lock_policyE2EEEE10_S_raw_ptrEPS9_
FNDA:1,_ZNSt15__allocated_ptrISaISt23_Sp_counted_ptr_inplaceIN5Catch17ReporterRegistrarINS1_15CompactReporterEE15ReporterFactoryESaIS5_ELN9__gnu_cxx12_Lock_policyE2EEEE10_S_raw_ptrEPS9_
FNDA:1,_ZNSt15__allocated_ptrISaISt23_Sp_counted_ptr_inplaceIN5Catch8TestSpec10TagPatternESaIS3_ELN9__gnu_cxx12_Lock_policyE2EEEE10_S_raw_ptrEPS7_
FNDA:1,_ZNSt15__allocated_ptrISaISt23_Sp_counted_ptr_inplaceIN5Catch8TestSpec15ExcludedPatternESaIS3_ELN9__gnu_cxx12_Lock_policyE2EEEE10_S_raw_ptrEPS7_
FNDA:0,_ZNSt15__allocated_ptrISaISt23_Sp_counted_ptr_inplaceIN5Catch8TestSpec11NamePatternESaIS3_ELN9__gnu_cxx12_Lock_policyE2EEEE10_S_raw_ptrEPS7_
FNDA:3,_ZNSt15__allocated_ptrISaISt23_Sp_counted_ptr_inplaceIN5Catch5clara6detail8BoundRefISt6vectorINSt7__cxx1112basic_stringIcSt11char_traitsIcESaIcEEESaISB_EEEESaISE_ELN9__gnu_cxx12_Lock_policyE2EEEE10_S_raw_ptrEPSI_
FNDA:1,_ZNSt15__allocated_ptrISaISt23_Sp_counted_ptr_inplaceIN5Catch5clara6detail15BoundFlagLambdaIZNS1_21makeCommandLineParserERNS1_10ConfigDataEEUlbE6_EESaIS8_ELN9__gnu_cxx12_Lock_policyE2EEEE10_S_raw_ptrEPSC_
FNDA:1,_ZNSt15__allocated_ptrISaISt23_Sp_counted_ptr_inplaceIN5Catch5clara6detail15BoundFlagLambdaIZNS3_4HelpC4ERbEUlbE_EESaIS8_ELN9__gnu_cxx12_Lock_policyE2EEEE10_S_raw_ptrEPSC_
FNDA:0,_ZNSt15__allocated_ptrISaISt23_Sp_counted_ptr_inplaceIN5Catch16TestCaseTracking12IndexTrackerESaIS3_ELN9__gnu_cxx12_Lock_policyE2EEEE10_S_raw_ptrEPS7_
FNDA:10,_ZNSt15__allocated_ptrISaISt23_Sp_counted_ptr_inplaceIN5Catch16TestCaseTracking14SectionTrackerESaIS3_ELN9__gnu_cxx12_Lock_policyE2EEEE10_S_raw_ptrEPS7_
FNDA:1,_ZNSt15__allocated_ptrISaISt23_Sp_counted_ptr_inplaceIN5Catch6ConfigESaIS2_ELN9__gnu_cxx12_Lock_policyE2EEEE10_S_raw_ptrEPS6_
FNDA:10,_ZNSt15__allocated_ptrISaISt23_Sp_counted_ptr_inplaceIN5Catch5clara6detail12BoundFlagRefESaIS4_ELN9__gnu_cxx12_Lock_policyE2EEEE10_S_raw_ptrEPS8_
FNDA:3,_ZNSt15__allocated_ptrISaISt23_Sp_counted_ptr_inplaceIN5Catch5clara6detail8BoundRefINSt7__cxx1112basic_stringIcSt11char_traitsIcESaIcEEEEESaISB_ELN9__gnu_cxx12_Lock_policyE2EEEE10_S_raw_ptrEPSF_
FNDA:3,_ZNSt15__allocated_ptrISaISt23_Sp_counted_ptr_inplaceINSt7__cxx1112basic_stringIcSt11char_traitsIcESaIcEEESaIS6_ELN9__gnu_cxx12_Lock_policyE2EEEE10_S_raw_ptrEPSA_
FNDA:0,_ZSt18__allocate_guardedISaISt23_Sp_counted_ptr_inplaceIN5Catch22CumulativeReporterBaseINS1_13JunitReporterEE4NodeINS1_12TestRunStatsENS5_INS1_14TestGroupStatsENS5_INS1_13TestCaseStatsENS4_11SectionNodeEEEEEEESaISC_ELN9__gnu_cxx12_Lock_policyE2EEEESt15__allocated_ptrIT_ERSJ_
FNDA:0,_ZSt18__allocate_guardedISaISt23_Sp_counted_ptr_inplaceIN5Catch22CumulativeReporterBaseINS1_13JunitReporterEE11SectionNodeESaIS5_ELN9__gnu_cxx12_Lock_policyE2EEEESt15__allocated_ptrIT_ERSC_
FNDA:1,_ZSt18__allocate_guardedISaISt23_Sp_counted_ptr_inplaceIN5Catch5clara6detail8BoundRefIiEESaIS5_ELN9__gnu_cxx12_Lock_policyE2EEEESt15__allocated_ptrIT_ERSC_
FNDA:1,_ZSt18__allocate_guardedISaISt23_Sp_counted_ptr_inplaceIN5Catch5clara6detail11BoundLambdaIZNS1_21makeCommandLineParserERNS1_10ConfigDataEEUlRKNSt7__cxx1112basic_stringIcSt11char_traitsIcESaIcEEEE4_EESaISG_ELN9__gnu_cxx12_Lock_policyE2EEEESt15__allocated_ptrIT_ERSN_
FNDA:1,_ZSt18__allocate_guardedISaISt23_Sp_counted_ptr_inplaceIN5Catch5clara6detail11BoundLambdaIZNS1_21makeCommandLineParserERNS1_10ConfigDataEEUlRKNSt7__cxx1112basic_stringIcSt11char_traitsIcESaIcEEEE3_EESaISG_ELN9__gnu_cxx12_Lock_policyE2EEEESt15__allocated_ptrIT_ERSN_
FNDA:1,_ZSt18__allocate_guardedISaISt23_Sp_counted_ptr_inplaceIN5Catch5clara6detail11BoundLambdaIZNS1_21makeCommandLineParserERNS1_10ConfigDataEEUlRKNSt7__cxx1112basic_stringIcSt11char_traitsIcESaIcEEEE2_EESaISG_ELN9__gnu_cxx12_Lock_policyE2EEEESt15__allocated_ptrIT_ERSN_
FNDA:1,_ZSt18__allocate_guardedISaISt23_Sp_counted_ptr_inplaceIN5Catch5clara6detail11BoundLambdaIZNS1_21makeCommandLineParserERNS1_10ConfigDataEEUlRKNSt7__cxx1112basic_stringIcSt11char_traitsIcESaIcEEEE1_EESaISG_ELN9__gnu_cxx12_Lock_policyE2EEEESt15__allocated_ptrIT_ERSN_
FNDA:1,_ZSt18__allocate_guardedISaISt23_Sp_counted_ptr_inplaceIN5Catch5clara6detail11BoundLambdaIZNS1_21makeCommandLineParserERNS1_10ConfigDataEEUlRKNSt7__cxx1112basic_stringIcSt11char_traitsIcESaIcEEEE5_EESaISG_ELN9__gnu_cxx12_Lock_policyE2EEEESt15__allocated_ptrIT_ERSN_
FNDA:1,_ZSt18__allocate_guardedISaISt23_Sp_counted_ptr_inplaceIN5Catch5clara6detail11BoundLambdaIZNS1_21makeCommandLineParserERNS1_10ConfigDataEEUlRKNSt7__cxx1112basic_stringIcSt11char_traitsIcESaIcEEEE0_EESaISG_ELN9__gnu_cxx12_Lock_policyE2EEEESt15__allocated_ptrIT_ERSN_
FNDA:1,_ZSt18__allocate_guardedISaISt23_Sp_counted_ptr_inplaceIN5Catch5clara6detail11BoundLambdaIZNS1_21makeCommandLineParserERNS1_10ConfigDataEEUlbE8_EESaIS8_ELN9__gnu_cxx12_Lock_policyE2EEEESt15__allocated_ptrIT_ERSF_
FNDA:1,_ZSt18__allocate_guardedISaISt23_Sp_counted_ptr_inplaceIN5Catch5clara6detail11BoundLambdaIZNS1_21makeCommandLineParserERNS1_10ConfigDataEEUlRKNSt7__cxx1112basic_stringIcSt11char_traitsIcESaIcEEEE_EESaISG_ELN9__gnu_cxx12_Lock_policyE2EEEESt15__allocated_ptrIT_ERSN_
FNDA:1,_ZSt18__allocate_guardedISaISt23_Sp_counted_ptr_inplaceIN5Catch5clara6detail11BoundLambdaIZNS1_21makeCommandLineParserERNS1_10ConfigDataEEUliE7_EESaIS8_ELN9__gnu_cxx12_Lock_policyE2EEEESt15__allocated_ptrIT_ERSF_
FNDA:1,_ZSt18__allocate_guardedISaISt23_Sp_counted_ptr_inplaceIN5Catch17ReporterRegistrarINS1_11XmlReporterEE15ReporterFactoryESaIS5_ELN9__gnu_cxx12_Lock_policyE2EEEESt15__allocated_ptrIT_ERSC_
FNDA:1,_ZSt18__allocate_guardedISaISt23_Sp_counted_ptr_inplaceIN5Catch17ReporterRegistrarINS1_13JunitReporterEE15ReporterFactoryESaIS5_ELN9__gnu_cxx12_Lock_policyE2EEEESt15__allocated_ptrIT_ERSC_
FNDA:0,_ZSt18__allocate_guardedISaISt23_Sp_counted_ptr_inplaceIN5Catch22CumulativeReporterBaseINS1_13JunitReporterEE4NodeINS1_14TestGroupStatsENS5_INS1_13TestCaseStatsENS4_11SectionNodeEEEEESaISA_ELN9__gnu_cxx12_Lock_policyE2EEEESt15__allocated_ptrIT_ERSH_
FNDA:0,_ZSt18__allocate_guardedISaISt23_Sp_counted_ptr_inplaceIN5Catch22CumulativeReporterBaseINS1_13JunitReporterEE4NodeINS1_13TestCaseStatsENS4_11SectionNodeEEESaIS8_ELN9__gnu_cxx12_Lock_policyE2EEEESt15__allocated_ptrIT_ERSF_
FNDA:1,_ZSt18__allocate_guardedISaISt23_Sp_counted_ptr_inplaceIN5Catch17ReporterRegistrarINS1_15ConsoleReporterEE15ReporterFactoryESaIS5_ELN9__gnu_cxx12_Lock_policyE2EEEESt15__allocated_ptrIT_ERSC_
FNDA:1,_ZSt18__allocate_guardedISaISt23_Sp_counted_ptr_inplaceIN5Catch17ReporterRegistrarINS1_15CompactReporterEE15ReporterFactoryESaIS5_ELN9__gnu_cxx12_Lock_policyE2EEEESt15__allocated_ptrIT_ERSC_
FNDA:1,_ZSt18__allocate_guardedISaISt23_Sp_counted_ptr_inplaceIN5Catch8TestSpec10TagPatternESaIS3_ELN9__gnu_cxx12_Lock_policyE2EEEESt15__allocated_ptrIT_ERSA_
FNDA:1,_ZSt18__allocate_guardedISaISt23_Sp_counted_ptr_inplaceIN5Catch8TestSpec15ExcludedPatternESaIS3_ELN9__gnu_cxx12_Lock_policyE2EEEESt15__allocated_ptrIT_ERSA_
FNDA:0,_ZSt18__allocate_guardedISaISt23_Sp_counted_ptr_inplaceIN5Catch8TestSpec11NamePatternESaIS3_ELN9__gnu_cxx12_Lock_policyE2EEEESt15__allocated_ptrIT_ERSA_
FNDA:3,_ZSt18__allocate_guardedISaISt23_Sp_counted_ptr_inplaceIN5Catch5clara6detail8BoundRefISt6vectorINSt7__cxx1112basic_stringIcSt11char_traitsIcESaIcEEESaISB_EEEESaISE_ELN9__gnu_cxx12_Lock_policyE2EEEESt15__allocated_ptrIT_ERSL_
FNDA:1,_ZSt18__allocate_guardedISaISt23_Sp_counted_ptr_inplaceIN5Catch5clara6detail15BoundFlagLambdaIZNS1_21makeCommandLineParserERNS1_10ConfigDataEEUlbE6_EESaIS8_ELN9__gnu_cxx12_Lock_policyE2EEEESt15__allocated_ptrIT_ERSF_
FNDA:1,_ZSt18__allocate_guardedISaISt23_Sp_counted_ptr_inplaceIN5Catch5clara6detail15BoundFlagLambdaIZNS3_4HelpC4ERbEUlbE_EESaIS8_ELN9__gnu_cxx12_Lock_policyE2EEEESt15__allocated_ptrIT_ERSF_
FNDA:0,_ZSt18__allocate_guardedISaISt23_Sp_counted_ptr_inplaceIN5Catch16TestCaseTracking12IndexTrackerESaIS3_ELN9__gnu_cxx12_Lock_policyE2EEEESt15__allocated_ptrIT_ERSA_
FNDA:10,_ZSt18__allocate_guardedISaISt23_Sp_counted_ptr_inplaceIN5Catch16TestCaseTracking14SectionTrackerESaIS3_ELN9__gnu_cxx12_Lock_policyE2EEEESt15__allocated_ptrIT_ERSA_
FNDA:1,_ZSt18__allocate_guardedISaISt23_Sp_counted_ptr_inplaceIN5Catch6ConfigESaIS2_ELN9__gnu_cxx12_Lock_policyE2EEEESt15__allocated_ptrIT_ERS9_
FNDA:10,_ZSt18__allocate_guardedISaISt23_Sp_counted_ptr_inplaceIN5Catch5clara6detail12BoundFlagRefESaIS4_ELN9__gnu_cxx12_Lock_policyE2EEEESt15__allocated_ptrIT_ERSB_
FNDA:3,_ZSt18__allocate_guardedISaISt23_Sp_counted_ptr_inplaceIN5Catch5clara6detail8BoundRefINSt7__cxx1112basic_stringIcSt11char_traitsIcESaIcEEEEESaISB_ELN9__gnu_cxx12_Lock_policyE2EEEESt15__allocated_ptrIT_ERSI_
FNDA:3,_ZSt18__allocate_guardedISaISt23_Sp_counted_ptr_inplaceINSt7__cxx1112basic_stringIcSt11char_traitsIcESaIcEEESaIS6_ELN9__gnu_cxx12_Lock_policyE2EEEESt15__allocated_ptrIT_ERSD_
FNF:180
FNH:144
DA:52,96
DA:53,96
DA:54,96
DA:69,96
DA:71,96
DA:72,48
DA:73,96
DA:77,48
DA:79,48
DA:80,48
DA:84,48
DA:87,48
DA:100,48
DA:102,48
LF:14
LH:14
end_of_record
SF:/usr/include/c++/5/bits/allocator.h
FN:113,_ZNSaISt10shared_ptrIN5Catch22CumulativeReporterBaseINS0_13JunitReporterEE11SectionNodeEEEC2Ev
FN:113,_ZNSaIN5Catch5clara6detail11BoundLambdaIZNS_21makeCommandLineParserERNS_10ConfigDataEEUlRKNSt7__cxx1112basic_stringIcSt11char_traitsIcESaIcEEEE0_EEEC2Ev
FN:113,_ZNSaISt10unique_ptrIN5Catch18IStreamingReporterESt14default_deleteIS1_EEEC2Ev
FN:113,_ZNSaIN5Catch5clara6detail11BoundLambdaIZNS_21makeCommandLineParserERNS_10ConfigDataEEUlRKNSt7__cxx1112basic_stringIcSt11char_traitsIcESaIcEEEE_EEEC2Ev
FN:113,_ZNSaISt10shared_ptrIN5Catch22CumulativeReporterBaseINS0_13JunitReporterEE4NodeINS0_13TestCaseStatsENS3_11SectionNodeEEEEEC2Ev
FN:113,_ZNSaImEC2Ev
FN:113,_ZNSaIN5Catch5clara6detail11BoundLambdaIZNS_21makeCommandLineParserERNS_10ConfigDataEEUlRKNSt7__cxx1112basic_stringIcSt11char_traitsIcESaIcEEEE1_EEEC2Ev
FN:113,_ZNSaIN5Catch17ReporterRegistrarINS_11XmlReporterEE15ReporterFactoryEEC2Ev
FN:113,_ZNSaISt10shared_ptrIN5Catch22CumulativeReporterBaseINS0_13JunitReporterEE4NodeINS0_14TestGroupStatsENS4_INS0_13TestCaseStatsENS3_11SectionNodeEEEEEEEC2Ev
FN:113,_ZNSaISt13_Rb_tree_nodeISt4pairIKNSt7__cxx1112basic_stringIcSt11char_traitsIcESaIcEEEN5Catch8TagAliasEEEEC2Ev
FN:113,_ZNSaISt13_Rb_tree_nodeISt4pairIKNSt7__cxx1112basic_stringIcSt11char_traitsIcESaIcEEEN5Catch7TagInfoEEEEC2Ev
FN:113,_ZNSaISt6vectorISt10shared_ptrIN5Catch22CumulativeReporterBaseINS1_13JunitReporterEE11SectionNodeEESaIS6_EEEC2Ev
FN:113,_ZNSaIN5Catch5clara6detail15BoundFlagLambdaIZNS_21makeCommandLineParserERNS_10ConfigDataEEUlbE6_EEEC2Ev
FN:113,_ZNSaIN5Catch5clara8TextFlow6Column8iteratorEEC2Ev
FN:113,_ZNSaISt10shared_ptrIN5Catch16IReporterFactoryEEEC2Ev
FN:113,_ZNSaIN5Catch5clara6detail3OptEEC2Ev
FN:113,_ZNSaIN5Catch11MessageInfoEEC2Ev
FN:113,_ZNSaIN5Catch14AssertionStatsEEC2Ev
FN:113,_ZNSaIN5Catch5clara6detail11BoundLambdaIZNS_21makeCommandLineParserERNS_10ConfigDataEEUlRKNSt7__cxx1112basic_stringIcSt11char_traitsIcESaIcEEEE4_EEEC2Ev
FN:113,_ZNSaIN5Catch8TestSpec10TagPatternEEC2Ev
FN:113,_ZNSaIN5Catch8TestSpec6FilterEEC2Ev
FN:113,_ZNSaIN5Catch22CumulativeReporterBaseINS_13JunitReporterEE4NodeINS_12TestRunStatsENS3_INS_14TestGroupStatsENS3_INS_13TestCaseStatsENS2_11SectionNodeEEEEEEEEC2Ev
FN:113,_ZNSaISt13_Rb_tree_nodeISt4pairIKNSt7__cxx1112basic_stringIcSt11char_traitsIcESaIcEEESt10shared_ptrIN5Catch16IReporterFactoryEEEEEC2Ev
FN:113,_ZNSaIN5Catch5clara6detail11BoundLambdaIZNS_21makeCommandLineParserERNS_10ConfigDataEEUlRKNSt7__cxx1112basic_stringIcSt11char_traitsIcESaIcEEEE5_EEEC2Ev
FN:113,_ZNSaIN5Catch22CumulativeReporterBaseINS_13JunitReporterEE4NodeINS_14TestGroupStatsENS3_INS_13TestCaseStatsENS2_11SectionNodeEEEEEEC2Ev
FN:113,_ZNSaIN5Catch8TestCaseEEC2Ev
FN:113,_ZNSaIN5Catch5clara6detail12BoundFlagRefEEC2Ev
FN:113,_ZNSaIN5Catch14SectionEndInfoEEC2Ev
FN:113,_ZNSaIN5Catch8TestSpec11NamePatternEEC2Ev
FN:113,_ZNSaIN5Catch5clara6detail8BoundRefIiEEEC2Ev
FN:113,_ZNSaIN5Catch6ConfigEEC2Ev
FN:113,_ZNSaISt10shared_ptrIN5Catch22CumulativeReporterBaseINS0_13JunitReporterEE4NodeINS0_12TestRunStatsENS4_INS0_14TestGroupStatsENS4_INS0_13TestCaseStatsENS3_11SectionNodeEEEEEEEEEC2Ev
FN:113,_ZNSaIN5Catch9VerbosityEEC2Ev
FN:113,_ZNSaIN5Catch12_GLOBAL__N_110ColumnInfoEEC2Ev
FN:113,_ZNSaIN5Catch5clara6detail8BoundRefINSt7__cxx1112basic_stringIcSt11char_traitsIcESaIcEEEEEEC2Ev
FN:113,_ZNSaIN5Catch8TestSpec15ExcludedPatternEEC2Ev
FN:113,_ZNSaIN5Catch22CumulativeReporterBaseINS_13JunitReporterEE4NodeINS_13TestCaseStatsENS2_11SectionNodeEEEEC2Ev
FN:113,_ZNSaIN5Catch11SectionInfoEEC2Ev
FN:113,_ZNSaIN5Catch5clara6detail11BoundLambdaIZNS_21makeCommandLineParserERNS_10ConfigDataEEUliE7_EEEC2Ev
FN:113,_ZNSaIN5Catch15ConsoleReporter13SummaryColumnEEC2Ev
FN:113,_ZNSaIN5Catch5clara6detail3ArgEEC2Ev
FN:113,_ZNSaIN5Catch5clara6detail15BoundFlagLambdaIZNS1_4HelpC4ERbEUlbE_EEEC2Ev
FN:113,_ZNSaIN5Catch5clara6detail8BoundRefISt6vectorINSt7__cxx1112basic_stringIcSt11char_traitsIcESaIcEEESaIS9_EEEEEC2Ev
FN:113,_ZNSaISt10shared_ptrIN5Catch16TestCaseTracking8ITrackerEEEC2Ev
FN:113,_ZNSaIN5Catch5clara6detail5TokenEEC2Ev
FN:113,_ZNSaISt13_Rb_tree_nodeIN5Catch8TestCaseEEEC2Ev
FN:113,_ZNSaISt13_Rb_tree_nodeINSt7__cxx1112basic_stringIcSt11char_traitsIcESaIcEEEEEC2Ev
FN:113,_ZNSaIN5Catch17ReporterRegistrarINS_15ConsoleReporterEE15ReporterFactoryEEC2Ev
FN:113,_ZNSaISt10unique_ptrIKN5Catch20IExceptionTranslatorESt14default_deleteIS2_EEEC2Ev
FN:113,_ZNSaINSt7__cxx1112basic_stringIcSt11char_traitsIcESaIcEEEEC2Ev
FN:113,_ZNSaINSt15__exception_ptr13exception_ptrEEC2Ev
FN:113,_ZNSaIN5Catch5clara8TextFlow6ColumnEEC2Ev
FN:113,_ZNSaIN5Catch16TestCaseTracking12IndexTrackerEEC2Ev
FN:113,_ZNSaIN5Catch5clara6detail11BoundLambdaIZNS_21makeCommandLineParserERNS_10ConfigDataEEUlbE8_EEEC2Ev
FN:113,_ZNSaIPN5Catch16TestCaseTracking8ITrackerEEC2Ev
FN:113,_ZNSaIN5Catch17ReporterRegistrarINS_13JunitReporterEE15ReporterFactoryEEC2Ev
FN:113,_ZNSaIN5Catch5clara6detail11BoundLambdaIZNS_21makeCommandLineParserERNS_10ConfigDataEEUlRKNSt7__cxx1112basic_stringIcSt11char_traitsIcESaIcEEEE3_EEEC2Ev
FN:113,_ZNSaIN5Catch16TestCaseTracking14SectionTrackerEEC2Ev
FN:113,_ZNSaISt13_Rb_tree_nodeIN5Catch9VerbosityEEEC2Ev
FN:113,_ZNSaIN5Catch17ReporterRegistrarINS_15CompactReporterEE15ReporterFactoryEEC2Ev
FN:113,_ZNSaIN5Catch22CumulativeReporterBaseINS_13JunitReporterEE11SectionNodeEEC2Ev
FN:113,_ZNSaIN5Catch5clara6detail11BoundLambdaIZNS_21makeCommandLineParserERNS_10ConfigDataEEUlRKNSt7__cxx1112basic_stringIcSt11char_traitsIcESaIcEEEE2_EEEC2Ev
FN:113,_ZNSaIN5Catch5clara6detail11HelpColumnsEEC2Ev
FN:113,_ZNSaISt10shared_ptrIN5Catch8TestSpec7PatternEEEC2Ev
FN:115,_ZNSaIN5Catch22CumulativeReporterBaseINS_13JunitReporterEE4NodeINS_14TestGroupStatsENS3_INS_13TestCaseStatsENS2_11SectionNodeEEEEEEC2ERKS9_
FN:115,_ZNSaIN5Catch17ReporterRegistrarINS_15ConsoleReporterEE15ReporterFactoryEEC2ERKS4_
FN:115,_ZNSaISt13_Rb_tree_nodeINSt7__cxx1112basic_stringIcSt11char_traitsIcESaIcEEEEEC2ERKS7_
FN:115,_ZNSaIN5Catch8TestSpec6FilterEEC2ERKS2_
FN:115,_ZNSaIN5Catch22CumulativeReporterBaseINS_13JunitReporterEE4NodeINS_12TestRunStatsENS3_INS_14TestGroupStatsENS3_INS_13TestCaseStatsENS2_11SectionNodeEEEEEEEEC2ERKSB_
FN:115,_ZNSaIN5Catch17ReporterRegistrarINS_15CompactReporterEE15ReporterFactoryEEC2ERKS4_
FN:115,_ZNSaIN5Catch22CumulativeReporterBaseINS_13JunitReporterEE11SectionNodeEEC2ERKS4_
FN:115,_ZNSaISt10shared_ptrIN5Catch8TestSpec7PatternEEEC2ERKS4_
FN:115,_ZNSaIN5Catch5clara6detail5TokenEEC2ERKS3_
FN:115,_ZNSaIN5Catch8TestCaseEEC2ERKS1_
FN:115,_ZNSaIN5Catch12_GLOBAL__N_110ColumnInfoEEC2ERKS2_
FN:115,_ZNSaIN5Catch5clara6detail3OptEEC2ERKS3_
FN:115,_ZNSaIN5Catch17ReporterRegistrarINS_13JunitReporterEE15ReporterFactoryEEC2ERKS4_
FN:115,_ZNSaIN5Catch8TestSpec15ExcludedPatternEEC2ERKS2_
FN:115,_ZNSaIN5Catch16TestCaseTracking14SectionTrackerEEC2ERKS2_
FN:115,_ZNSaIN5Catch5clara6detail12BoundFlagRefEEC2ERKS3_
FN:115,_ZNSaIN5Catch5clara6detail8BoundRefINSt7__cxx1112basic_stringIcSt11char_traitsIcESaIcEEEEEEC2ERKSA_
FN:115,_ZNSaIN5Catch6ConfigEEC2ERKS1_
FN:115,_ZNSaINSt7__cxx1112basic_stringIcSt11char_traitsIcESaIcEEEEC2ERKS5_
FN:115,_ZNSaIN5Catch5clara6detail3ArgEEC2ERKS3_
FN:115,_ZNSaIN5Catch5clara6detail11BoundLambdaIZNS_21makeCommandLineParserERNS_10ConfigDataEEUlbE8_EEEC2ERKS7_
FN:115,_ZNSaIN5Catch5clara6detail15BoundFlagLambdaIZNS1_4HelpC4ERbEUlbE_EEEC2ERKS7_
FN:115,_ZNSaIN5Catch17ReporterRegistrarINS_11XmlReporterEE15ReporterFactoryEEC2ERKS4_
FN:115,_ZNSaIN5Catch8TestSpec11NamePatternEEC2ERKS2_
FN:115,_ZNSaIN5Catch5clara6detail11BoundLambdaIZNS_21makeCommandLineParserERNS_10ConfigDataEEUlRKNSt7__cxx1112basic_stringIcSt11char_traitsIcESaIcEEEE_EEEC2ERKSF_
FN:115,_ZNSaIN5Catch16TestCaseTracking12IndexTrackerEEC2ERKS2_
FN:115,_ZNSaIN5Catch5clara6detail11BoundLambdaIZNS_21makeCommandLineParserERNS_10ConfigDataEEUlRKNSt7__cxx1112basic_stringIcSt11char_traitsIcESaIcEEEE5_EEEC2ERKSF_
FN:115,_ZNSaIN5Catch11MessageInfoEEC2ERKS1_
FN:115,_ZNSaIN5Catch22CumulativeReporterBaseINS_13JunitReporterEE4NodeINS_13TestCaseStatsENS2_11SectionNodeEEEEC2ERKS7_
FN:115,_ZNSaIN5Catch5clara6detail11HelpColumnsEEC2ERKS3_
FN:115,_ZNSaIN5Catch5clara6detail8BoundRefISt6vectorINSt7__cxx1112basic_stringIcSt11char_traitsIcESaIcEEESaIS9_EEEEEC2ERKSD_
FN:115,_ZNSaIN5Catch5clara6detail8BoundRefIiEEEC2ERKS4_
FN:115,_ZNSaIN5Catch5clara6detail11BoundLambdaIZNS_21makeCommandLineParserERNS_10ConfigDataEEUlRKNSt7__cxx1112basic_stringIcSt11char_traitsIcESaIcEEEE0_EEEC2ERKSF_
FN:115,_ZNSaIN5Catch5clara8TextFlow6ColumnEEC2ERKS3_
FN:115,_ZNSaIN5Catch5clara6detail11BoundLambdaIZNS_21makeCommandLineParserERNS_10ConfigDataEEUlRKNSt7__cxx1112basic_stringIcSt11char_traitsIcESaIcEEEE1_EEEC2ERKSF_
FN:115,_ZNSaIN5Catch5clara6detail11BoundLambdaIZNS_21makeCommandLineParserERNS_10ConfigDataEEUlRKNSt7__cxx1112basic_stringIcSt11char_traitsIcESaIcEEEE3_EEEC2ERKSF_
FN:115,_ZNSaIN5Catch5clara6detail11BoundLambdaIZNS_21makeCommandLineParserERNS_10ConfigDataEEUliE7_EEEC2ERKS7_
FN:115,_ZNSaIN5Catch5clara6detail11BoundLambdaIZNS_21makeCommandLineParserERNS_10ConfigDataEEUlRKNSt7__cxx1112basic_stringIcSt11char_traitsIcESaIcEEEE4_EEEC2ERKSF_
FN:115,_ZNSaIN5Catch5clara6detail11BoundLambdaIZNS_21makeCommandLineParserERNS_10ConfigDataEEUlRKNSt7__cxx1112basic_stringIcSt11char_traitsIcESaIcEEEE2_EEEC2ERKSF_
FN:115,_ZNSaIN5Catch9VerbosityEEC2ERKS1_
FN:115,_ZNSaISt13_Rb_tree_nodeIN5Catch9VerbosityEEEC2ERKS3_
FN:115,_ZNSaIN5Catch8TestSpec10TagPatternEEC2ERKS2_
FN:115,_ZNSaIN5Catch5clara6detail15BoundFlagLambdaIZNS_21makeCommandLineParserERNS_10ConfigDataEEUlbE6_EEEC2ERKS7_
FN:119,_ZNSaISt23_Sp_counted_ptr_inplaceIN5Catch5clara6detail12BoundFlagRefESaIS3_ELN9__gnu_cxx12_Lock_policyE2EEEC2IS3_EERKSaIT_E
FN:119,_ZNSaISt23_Sp_counted_ptr_inplaceIN5Catch22CumulativeReporterBaseINS0_13JunitReporterEE4NodeINS0_12TestRunStatsENS4_INS0_14TestGroupStatsENS4_INS0_13TestCaseStatsENS3_11SectionNodeEEEEEEESaISB_ELN9__gnu_cxx12_Lock_policyE2EEEC2ISB_EERKSaIT_E
FN:119,_ZNSaISt23_Sp_counted_ptr_inplaceIN5Catch5clara6detail15BoundFlagLambdaIZNS2_4HelpC4ERbEUlbE_EESaIS7_ELN9__gnu_cxx12_Lock_policyE2EEEC2IS7_EERKSaIT_E
FN:119,_ZNSaISt23_Sp_counted_ptr_inplaceIN5Catch6ConfigESaIS1_ELN9__gnu_cxx12_Lock_policyE2EEEC2IS1_EERKSaIT_E
FN:119,_ZNSaISt23_Sp_counted_ptr_inplaceIN5Catch8TestSpec10TagPatternESaIS2_ELN9__gnu_cxx12_Lock_policyE2EEEC2IS2_EERKSaIT_E
FN:119,_ZNSaISt23_Sp_counted_ptr_inplaceIN5Catch17ReporterRegistrarINS0_11XmlReporterEE15ReporterFactoryESaIS4_ELN9__gnu_cxx12_Lock_policyE2EEEC2IS4_EERKSaIT_E
FN:119,_ZNSaISt23_Sp_counted_ptr_inplaceIN5Catch5clara6detail11BoundLambdaIZNS0_21makeCommandLineParserERNS0_10ConfigDataEEUlRKNSt7__cxx1112basic_stringIcSt11char_traitsIcESaIcEEEE5_EESaISF_ELN9__gnu_cxx12_Lock_policyE2EEEC2ISF_EERKSaIT_E
FN:119,_ZNSaISt23_Sp_counted_ptr_inplaceIN5Catch8TestSpec11NamePatternESaIS2_ELN9__gnu_cxx12_Lock_policyE2EEEC2IS2_EERKSaIT_E
FN:119,_ZNSaISt23_Sp_counted_ptr_inplaceIN5Catch5clara6detail11BoundLambdaIZNS0_21makeCommandLineParserERNS0_10ConfigDataEEUlRKNSt7__cxx1112basic_stringIcSt11char_traitsIcESaIcEEEE1_EESaISF_ELN9__gnu_cxx12_Lock_policyE2EEEC2ISF_EERKSaIT_E
FN:119,_ZNSaISt23_Sp_counted_ptr_inplaceIN5Catch17ReporterRegistrarINS0_15CompactReporterEE15ReporterFactoryESaIS4_ELN9__gnu_cxx12_Lock_policyE2EEEC2IS4_EERKSaIT_E
FN:119,_ZNSaISt23_Sp_counted_ptr_inplaceIN5Catch5clara6detail11BoundLambdaIZNS0_21makeCommandLineParserERNS0_10ConfigDataEEUlRKNSt7__cxx1112basic_stringIcSt11char_traitsIcESaIcEEEE2_EESaISF_ELN9__gnu_cxx12_Lock_policyE2EEEC2ISF_EERKSaIT_E
FN:119,_ZNSaISt23_Sp_counted_ptr_inplaceIN5Catch16TestCaseTracking12IndexTrackerESaIS2_ELN9__gnu_cxx12_Lock_policyE2EEEC2IS2_EERKSaIT_E
FN:119,_ZNSaISt23_Sp_counted_ptr_inplaceIN5Catch16TestCaseTracking14SectionTrackerESaIS2_ELN9__gnu_cxx12_Lock_policyE2EEEC2IS2_EERKSaIT_E
FN:119,_ZNSaISt23_Sp_counted_ptr_inplaceIN5Catch5clara6detail11BoundLambdaIZNS0_21makeCommandLineParserERNS0_10ConfigDataEEUlRKNSt7__cxx1112basic_stringIcSt11char_traitsIcESaIcEEEE_EESaISF_ELN9__gnu_cxx12_Lock_policyE2EEEC2ISF_EERKSaIT_E
FN:119,_ZNSaISt23_Sp_counted_ptr_inplaceIN5Catch5clara6detail8BoundRefISt6vectorINSt7__cxx1112basic_stringIcSt11char_traitsIcESaIcEEESaISA_EEEESaISD_ELN9__gnu_cxx12_Lock_policyE2EEEC2ISD_EERKSaIT_E
FN:119,_ZNSaISt23_Sp_counted_ptr_inplaceIN5Catch22CumulativeReporterBaseINS0_13JunitReporterEE4NodeINS0_14TestGroupStatsENS4_INS0_13TestCaseStatsENS3_11SectionNodeEEEEESaIS9_ELN9__gnu_cxx12_Lock_policyE2EEEC2IS9_EERKSaIT_E
FN:119,_ZNSaISt23_Sp_counted_ptr_inplaceINSt7__cxx1112basic_stringIcSt11char_traitsIcESaIcEEESaIS5_ELN9__gnu_cxx12_Lock_policyE2EEEC2IS5_EERKSaIT_E
FN:119,_ZNSaISt23_Sp_counted_ptr_inplaceIN5Catch5clara6detail11BoundLambdaIZNS0_21makeCommandLineParserERNS0_10ConfigDataEEUlRKNSt7__cxx1112basic_stringIcSt11char_traitsIcESaIcEEEE4_EESaISF_ELN9__gnu_cxx12_Lock_policyE2EEEC2ISF_EERKSaIT_E
FN:119,_ZNSaISt23_Sp_counted_ptr_inplaceIN5Catch17ReporterRegistrarINS0_13JunitReporterEE15ReporterFactoryESaIS4_ELN9__gnu_cxx12_Lock_policyE2EEEC2IS4_EERKSaIT_E
FN:119,_ZNSaISt23_Sp_counted_ptr_inplaceIN5Catch5clara6detail8BoundRefINSt7__cxx1112basic_stringIcSt11char_traitsIcESaIcEEEEESaISA_ELN9__gnu_cxx12_Lock_policyE2EEEC2ISA_EERKSaIT_E
FN:119,_ZNSaISt23_Sp_counted_ptr_inplaceIN5Catch5clara6detail8BoundRefIiEESaIS4_ELN9__gnu_cxx12_Lock_policyE2EEEC2IS4_EERKSaIT_E
FN:119,_ZNSaISt23_Sp_counted_ptr_inplaceIN5Catch5clara6detail11BoundLambdaIZNS0_21makeCommandLineParserERNS0_10ConfigDataEEUliE7_EESaIS7_ELN9__gnu_cxx12_Lock_policyE2EEEC2IS7_EERKSaIT_E
FN:119,_ZNSaISt23_Sp_counted_ptr_inplaceIN5Catch5clara6detail11BoundLambdaIZNS0_21makeCommandLineParserERNS0_10ConfigDataEEUlbE8_EESaIS7_ELN9__gnu_cxx12_Lock_policyE2EEEC2IS7_EERKSaIT_E
FN:119,_ZNSaISt23_Sp_counted_ptr_inplaceIN5Catch5clara6detail15BoundFlagLambdaIZNS0_21makeCommandLineParserERNS0_10ConfigDataEEUlbE6_EESaIS7_ELN9__gnu_cxx12_Lock_policyE2EEEC2IS7_EERKSaIT_E
FN:119,_ZNSaISt23_Sp_counted_ptr_inplaceIN5Catch17ReporterRegistrarINS0_15ConsoleReporterEE15ReporterFactoryESaIS4_ELN9__gnu_cxx12_Lock_policyE2EEEC2IS4_EERKSaIT_E
FN:119,_ZNSaISt23_Sp_counted_ptr_inplaceIN5Catch5clara6detail11BoundLambdaIZNS0_21makeCommandLineParserERNS0_10ConfigDataEEUlRKNSt7__cxx1112basic_stringIcSt11char_traitsIcESaIcEEEE0_EESaISF_ELN9__gnu_cxx12_Lock_policyE2EEEC2ISF_EERKSaIT_E
FN:119,_ZNSaISt23_Sp_counted_ptr_inplaceIN5Catch5clara6detail11BoundLambdaIZNS0_21makeCommandLineParserERNS0_10ConfigDataEEUlRKNSt7__cxx1112basic_stringIcSt11char_traitsIcESaIcEEEE3_EESaISF_ELN9__gnu_cxx12_Lock_policyE2EEEC2ISF_EERKSaIT_E
FN:119,_ZNSaISt23_Sp_counted_ptr_inplaceIN5Catch8TestSpec15ExcludedPatternESaIS2_ELN9__gnu_cxx12_Lock_policyE2EEEC2IS2_EERKSaIT_E
FN:119,_ZNSaISt13_Rb_tree_nodeIN5Catch9VerbosityEEEC2IS1_EERKSaIT_E
FN:119,_ZNSaISt23_Sp_counted_ptr_inplaceIN5Catch22CumulativeReporterBaseINS0_13JunitReporterEE4NodeINS0_13TestCaseStatsENS3_11SectionNodeEEESaIS7_ELN9__gnu_cxx12_Lock_policyE2EEEC2IS7_EERKSaIT_E
FN:119,_ZNSaISt23_Sp_counted_ptr_inplaceIN5Catch22CumulativeReporterBaseINS0_13JunitReporterEE11SectionNodeESaIS4_ELN9__gnu_cxx12_Lock_policyE2EEEC2IS4_EERKSaIT_E
FN:121,_ZNSaIN5Catch22CumulativeReporterBaseINS_13JunitReporterEE4NodeINS_14TestGroupStatsENS3_INS_13TestCaseStatsENS2_11SectionNodeEEEEEED2Ev
FN:121,_ZNSaIN5Catch14SectionEndInfoEED2Ev
FN:121,_ZNSaISt13_Rb_tree_nodeISt4pairIKNSt7__cxx1112basic_stringIcSt11char_traitsIcESaIcEEESt10shared_ptrIN5Catch16IReporterFactoryEEEEED2Ev
FN:121,_ZNSaISt23_Sp_counted_ptr_inplaceIN5Catch5clara6detail11BoundLambdaIZNS0_21makeCommandLineParserERNS0_10ConfigDataEEUlRKNSt7__cxx1112basic_stringIcSt11char_traitsIcESaIcEEEE5_EESaISF_ELN9__gnu_cxx12_Lock_policyE2EEED2Ev
FN:121,_ZNSaIN5Catch16TestCaseTracking14SectionTrackerEED2Ev
FN:121,_ZNSaISt13_Rb_tree_nodeIN5Catch8TestCaseEEED2Ev
FN:121,_ZNSaISt10unique_ptrIKN5Catch20IExceptionTranslatorESt14default_deleteIS2_EEED2Ev
FN:121,_ZNSaISt23_Sp_counted_ptr_inplaceIN5Catch6ConfigESaIS1_ELN9__gnu_cxx12_Lock_policyE2EEED2Ev
FN:121,_ZNSaISt23_Sp_counted_ptr_inplaceIN5Catch8TestSpec11NamePatternESaIS2_ELN9__gnu_cxx12_Lock_policyE2EEED2Ev
FN:121,_ZNSaIN5Catch5clara6detail3ArgEED2Ev
FN:121,_ZNSaINSt15__exception_ptr13exception_ptrEED2Ev
FN:121,_ZNSaIN5Catch5clara6detail15BoundFlagLambdaIZNS_21makeCommandLineParserERNS_10ConfigDataEEUlbE6_EEED2Ev
FN:121,_ZNSaIN5Catch9VerbosityEED2Ev
FN:121,_ZNSaISt23_Sp_counted_ptr_inplaceIN5Catch5clara6detail12BoundFlagRefESaIS3_ELN9__gnu_cxx12_Lock_policyE2EEED2Ev
FN:121,_ZNSaISt23_Sp_counted_ptr_inplaceIN5Catch5clara6detail11BoundLambdaIZNS0_21makeCommandLineParserERNS0_10ConfigDataEEUlRKNSt7__cxx1112basic_stringIcSt11char_traitsIcESaIcEEEE_EESaISF_ELN9__gnu_cxx12_Lock_policyE2EEED2Ev
FN:121,_ZNSaISt23_Sp_counted_ptr_inplaceIN5Catch5clara6detail11BoundLambdaIZNS0_21makeCommandLineParserERNS0_10ConfigDataEEUlRKNSt7__cxx1112basic_stringIcSt11char_traitsIcESaIcEEEE3_EESaISF_ELN9__gnu_cxx12_Lock_policyE2EEED2Ev
FN:121,_ZNSaIN5Catch5clara6detail11BoundLambdaIZNS_21makeCommandLineParserERNS_10ConfigDataEEUlRKNSt7__cxx1112basic_stringIcSt11char_traitsIcESaIcEEEE4_EEED2Ev
FN:121,_ZNSaIN5Catch5clara6detail11BoundLambdaIZNS_21makeCommandLineParserERNS_10ConfigDataEEUlRKNSt7__cxx1112basic_stringIcSt11char_traitsIcESaIcEEEE5_EEED2Ev
FN:121,_ZNSaIN5Catch8TestSpec15ExcludedPatternEED2Ev
FN:121,_ZNSaISt23_Sp_counted_ptr_inplaceIN5Catch22CumulativeReporterBaseINS0_13JunitReporterEE4NodeINS0_13TestCaseStatsENS3_11SectionNodeEEESaIS7_ELN9__gnu_cxx12_Lock_policyE2EEED2Ev
FN:121,_ZNSaISt10shared_ptrIN5Catch22CumulativeReporterBaseINS0_13JunitReporterEE11SectionNodeEEED2Ev
FN:121,_ZNSaISt6vectorISt10shared_ptrIN5Catch22CumulativeReporterBaseINS1_13JunitReporterEE11SectionNodeEESaIS6_EEED2Ev
FN:121,_ZNSaISt23_Sp_counted_ptr_inplaceIN5Catch8TestSpec15ExcludedPatternESaIS2_ELN9__gnu_cxx12_Lock_policyE2EEED2Ev
FN:121,_ZNSaISt23_Sp_counted_ptr_inplaceIN5Catch22CumulativeReporterBaseINS0_13JunitReporterEE11SectionNodeESaIS4_ELN9__gnu_cxx12_Lock_policyE2EEED2Ev
FN:121,_ZNSaISt10shared_ptrIN5Catch22CumulativeReporterBaseINS0_13JunitReporterEE4NodeINS0_13TestCaseStatsENS3_11SectionNodeEEEEED2Ev
FN:121,_ZNSaISt23_Sp_counted_ptr_inplaceIN5Catch5clara6detail8BoundRefIiEESaIS4_ELN9__gnu_cxx12_Lock_policyE2EEED2Ev
FN:121,_ZNSaISt23_Sp_counted_ptr_inplaceIN5Catch5clara6detail11BoundLambdaIZNS0_21makeCommandLineParserERNS0_10ConfigDataEEUlRKNSt7__cxx1112basic_stringIcSt11char_traitsIcESaIcEEEE4_EESaISF_ELN9__gnu_cxx12_Lock_policyE2EEED2Ev
FN:121,_ZNSaIN5Catch5clara6detail11BoundLambdaIZNS_21makeCommandLineParserERNS_10ConfigDataEEUlRKNSt7__cxx1112basic_stringIcSt11char_traitsIcESaIcEEEE1_EEED2Ev
FN:121,_ZNSaISt10shared_ptrIN5Catch22CumulativeReporterBaseINS0_13JunitReporterEE4NodeINS0_14TestGroupStatsENS4_INS0_13TestCaseStatsENS3_11SectionNodeEEEEEEED2Ev
FN:121,_ZNSaIN5Catch8TestSpec6FilterEED2Ev
FN:121,_ZNSaIN5Catch5clara6detail11BoundLambdaIZNS_21makeCommandLineParserERNS_10ConfigDataEEUlRKNSt7__cxx1112basic_stringIcSt11char_traitsIcESaIcEEEE_EEED2Ev
FN:121,_ZNSaINSt7__cxx1112basic_stringIcSt11char_traitsIcESaIcEEEED2Ev
FN:121,_ZNSaISt13_Rb_tree_nodeISt4pairIKNSt7__cxx1112basic_stringIcSt11char_traitsIcESaIcEEEN5Catch7TagInfoEEEED2Ev
FN:121,_ZNSaIN5Catch5clara8TextFlow6Column8iteratorEED2Ev
FN:121,_ZNSaISt23_Sp_counted_ptr_inplaceIN5Catch17ReporterRegistrarINS0_13JunitReporterEE15ReporterFactoryESaIS4_ELN9__gnu_cxx12_Lock_policyE2EEED2Ev
FN:121,_ZNSaISt23_Sp_counted_ptr_inplaceIN5Catch5clara6detail11BoundLambdaIZNS0_21makeCommandLineParserERNS0_10ConfigDataEEUlRKNSt7__cxx1112basic_stringIcSt11char_traitsIcESaIcEEEE1_EESaISF_ELN9__gnu_cxx12_Lock_policyE2EEED2Ev
FN:121,_ZNSaISt23_Sp_counted_ptr_inplaceIN5Catch17ReporterRegistrarINS0_11XmlReporterEE15ReporterFactoryESaIS4_ELN9__gnu_cxx12_Lock_policyE2EEED2Ev
FN:121,_ZNSaIN5Catch11MessageInfoEED2Ev
FN:121,_ZNSaISt10shared_ptrIN5Catch8TestSpec7PatternEEED2Ev
FN:121,_ZNSaISt10unique_ptrIN5Catch18IStreamingReporterESt14default_deleteIS1_EEED2Ev
FN:121,_ZNSaIN5Catch14AssertionStatsEED2Ev
FN:121,_ZNSaISt23_Sp_counted_ptr_inplaceIN5Catch22CumulativeReporterBaseINS0_13JunitReporterEE4NodeINS0_12TestRunStatsENS4_INS0_14TestGroupStatsENS4_INS0_13TestCaseStatsENS3_11SectionNodeEEEEEEESaISB_ELN9__gnu_cxx12_Lock_policyE2EEED2Ev
FN:121,_ZNSaIN5Catch5clara6detail3OptEED2Ev
FN:121,_ZNSaIN5Catch5clara6detail15BoundFlagLambdaIZNS1_4HelpC4ERbEUlbE_EEED2Ev
FN:121,_ZNSaIN5Catch15ConsoleReporter13SummaryColumnEED2Ev
FN:121,_ZNSaIN5Catch8TestCaseEED2Ev
FN:121,_ZNSaISt23_Sp_counted_ptr_inplaceINSt7__cxx1112basic_stringIcSt11char_traitsIcESaIcEEESaIS5_ELN9__gnu_cxx12_Lock_policyE2EEED2Ev
FN:121,_ZNSaIN5Catch17ReporterRegistrarINS_13JunitReporterEE15ReporterFactoryEED2Ev
FN:121,_ZNSaISt23_Sp_counted_ptr_inplaceIN5Catch5clara6detail11BoundLambdaIZNS0_21makeCommandLineParserERNS0_10ConfigDataEEUliE7_EESaIS7_ELN9__gnu_cxx12_Lock_policyE2EEED2Ev
FN:121,_ZNSaISt13_Rb_tree_nodeINSt7__cxx1112basic_stringIcSt11char_traitsIcESaIcEEEEED2Ev
FN:121,_ZNSaISt23_Sp_counted_ptr_inplaceIN5Catch17ReporterRegistrarINS0_15CompactReporterEE15ReporterFactoryESaIS4_ELN9__gnu_cxx12_Lock_policyE2EEED2Ev
FN:121,_ZNSaISt10shared_ptrIN5Catch16IReporterFactoryEEED2Ev
FN:121,_ZNSaISt23_Sp_counted_ptr_inplaceIN5Catch16TestCaseTracking12IndexTrackerESaIS2_ELN9__gnu_cxx12_Lock_policyE2EEED2Ev
FN:121,_ZNSaISt23_Sp_counted_ptr_inplaceIN5Catch22CumulativeReporterBaseINS0_13JunitReporterEE4NodeINS0_14TestGroupStatsENS4_INS0_13TestCaseStatsENS3_11SectionNodeEEEEESaIS9_ELN9__gnu_cxx12_Lock_policyE2EEED2Ev
FN:121,_ZNSaIPN5Catch16TestCaseTracking8ITrackerEED2Ev
FN:121,_ZNSaISt13_Rb_tree_nodeISt4pairIKNSt7__cxx1112basic_stringIcSt11char_traitsIcESaIcEEEN5Catch8TagAliasEEEED2Ev
FN:121,_ZNSaIN5Catch12_GLOBAL__N_110ColumnInfoEED2Ev
FN:121,_ZNSaIN5Catch5clara6detail11BoundLambdaIZNS_21makeCommandLineParserERNS_10ConfigDataEEUlRKNSt7__cxx1112basic_stringIcSt11char_traitsIcESaIcEEEE3_EEED2Ev
FN:121,_ZNSaISt23_Sp_counted_ptr_inplaceIN5Catch5clara6detail11BoundLambdaIZNS0_21makeCommandLineParserERNS0_10ConfigDataEEUlbE8_EESaIS7_ELN9__gnu_cxx12_Lock_policyE2EEED2Ev
FN:121,_ZNSaISt23_Sp_counted_ptr_inplaceIN5Catch16TestCaseTracking14SectionTrackerESaIS2_ELN9__gnu_cxx12_Lock_policyE2EEED2Ev
FN:121,_ZNSaISt23_Sp_counted_ptr_inplaceIN5Catch5clara6detail8BoundRefISt6vectorINSt7__cxx1112basic_stringIcSt11char_traitsIcESaIcEEESaISA_EEEESaISD_ELN9__gnu_cxx12_Lock_policyE2EEED2Ev
FN:121,_ZNSaISt13_Rb_tree_nodeIN5Catch9VerbosityEEED2Ev
FN:121,_ZNSaIN5Catch22CumulativeReporterBaseINS_13JunitReporterEE4NodeINS_13TestCaseStatsENS2_11SectionNodeEEEED2Ev
FN:121,_ZNSaIN5Catch22CumulativeReporterBaseINS_13JunitReporterEE4NodeINS_12TestRunStatsENS3_INS_14TestGroupStatsENS3_INS_13TestCaseStatsENS2_11SectionNodeEEEEEEEED2Ev
FN:121,_ZNSaISt23_Sp_counted_ptr_inplaceIN5Catch5clara6detail15BoundFlagLambdaIZNS2_4HelpC4ERbEUlbE_EESaIS7_ELN9__gnu_cxx12_Lock_policyE2EEED2Ev
FN:121,_ZNSaIN5Catch5clara6detail8BoundRefIiEEED2Ev
FN:121,_ZNSaISt23_Sp_counted_ptr_inplaceIN5Catch5clara6detail11BoundLambdaIZNS0_21makeCommandLineParserERNS0_10ConfigDataEEUlRKNSt7__cxx1112basic_stringIcSt11char_traitsIcESaIcEEEE2_EESaISF_ELN9__gnu_cxx12_Lock_policyE2EEED2Ev
FN:121,_ZNSaISt10shared_ptrIN5Catch22CumulativeReporterBaseINS0_13JunitReporterEE4NodeINS0_12TestRunStatsENS4_INS0_14TestGroupStatsENS4_INS0_13TestCaseStatsENS3_11SectionNodeEEEEEEEEED2Ev
FN:121,_ZNSaIN5Catch5clara6detail11HelpColumnsEED2Ev
FN:121,_ZNSaIN5Catch16TestCaseTracking12IndexTrackerEED2Ev
FN:121,_ZNSaIN5Catch5clara8TextFlow6ColumnEED2Ev
FN:121,_ZNSaIN5Catch8TestSpec10TagPatternEED2Ev
FN:121,_ZNSaISt23_Sp_counted_ptr_inplaceIN5Catch5clara6detail8BoundRefINSt7__cxx1112basic_stringIcSt11char_traitsIcESaIcEEEEESaISA_ELN9__gnu_cxx12_Lock_policyE2EEED2Ev
FN:121,_ZNSaIN5Catch5clara6detail8BoundRefISt6vectorINSt7__cxx1112basic_stringIcSt11char_traitsIcESaIcEEESaIS9_EEEEED2Ev
FN:121,_ZNSaISt10shared_ptrIN5Catch16TestCaseTracking8ITrackerEEED2Ev
FN:121,_ZNSaIN5Catch11SectionInfoEED2Ev
FN:121,_ZNSaIN5Catch22CumulativeReporterBaseINS_13JunitReporterEE11SectionNodeEED2Ev
FN:121,_ZNSaIN5Catch5clara6detail11BoundLambdaIZNS_21makeCommandLineParserERNS_10ConfigDataEEUlbE8_EEED2Ev
FN:121,_ZNSaIN5Catch5clara6detail8BoundRefINSt7__cxx1112basic_stringIcSt11char_traitsIcESaIcEEEEEED2Ev
FN:121,_ZNSaIN5Catch17ReporterRegistrarINS_15CompactReporterEE15ReporterFactoryEED2Ev
FN:121,_ZNSaISt23_Sp_counted_ptr_inplaceIN5Catch5clara6detail15BoundFlagLambdaIZNS0_21makeCommandLineParserERNS0_10ConfigDataEEUlbE6_EESaIS7_ELN9__gnu_cxx12_Lock_policyE2EEED2Ev
FN:121,_ZNSaISt23_Sp_counted_ptr_inplaceIN5Catch8TestSpec10TagPatternESaIS2_ELN9__gnu_cxx12_Lock_policyE2EEED2Ev
FN:121,_ZNSaIN5Catch5clara6detail12BoundFlagRefEED2Ev
FN:121,_ZNSaIN5Catch8TestSpec11NamePatternEED2Ev
FN:121,_ZNSaIN5Catch17ReporterRegistrarINS_11XmlReporterEE15ReporterFactoryEED2Ev
FN:121,_ZNSaIN5Catch6ConfigEED2Ev
FN:121,_ZNSaImED2Ev
FN:121,_ZNSaIN5Catch5clara6detail11BoundLambdaIZNS_21makeCommandLineParserERNS_10ConfigDataEEUliE7_EEED2Ev
FN:121,_ZNSaIN5Catch5clara6detail11BoundLambdaIZNS_21makeCommandLineParserERNS_10ConfigDataEEUlRKNSt7__cxx1112basic_stringIcSt11char_traitsIcESaIcEEEE0_EEED2Ev
FN:121,_ZNSaIN5Catch17ReporterRegistrarINS_15ConsoleReporterEE15ReporterFactoryEED2Ev
FN:121,_ZNSaISt23_Sp_counted_ptr_inplaceIN5Catch17ReporterRegistrarINS0_15ConsoleReporterEE15ReporterFactoryESaIS4_ELN9__gnu_cxx12_Lock_policyE2EEED2Ev
FN:121,_ZNSaIN5Catch5clara6detail5TokenEED2Ev
FN:121,_ZNSaISt23_Sp_counted_ptr_inplaceIN5Catch5clara6detail11BoundLambdaIZNS0_21makeCommandLineParserERNS0_10ConfigDataEEUlRKNSt7__cxx1112basic_stringIcSt11char_traitsIcESaIcEEEE0_EESaISF_ELN9__gnu_cxx12_Lock_policyE2EEED2Ev
FN:121,_ZNSaIN5Catch5clara6detail11BoundLambdaIZNS_21makeCommandLineParserERNS_10ConfigDataEEUlRKNSt7__cxx1112basic_stringIcSt11char_traitsIcESaIcEEEE2_EEED2Ev
FN:146,_ZStneIN5Catch5clara6detail3ArgEEbRKSaIT_ES7_
FN:146,_ZStneINSt7__cxx1112basic_stringIcSt11char_traitsIcESaIcEEEEbRKSaIT_ES9_
FN:146,_ZStneIN5Catch5clara6detail3OptEEbRKSaIT_ES7_
FNDA:0,_ZNSaIN5Catch22CumulativeReporterBaseINS_13JunitReporterEE4NodeINS_12TestRunStatsENS3_INS_14TestGroupStatsENS3_INS_13TestCaseStatsENS2_11SectionNodeEEEEEEEEC2Ev
FNDA:0,_ZNSaIN5Catch22CumulativeReporterBaseINS_13JunitReporterEE11SectionNodeEEC2Ev
FNDA:0,_ZNSaISt10shared_ptrIN5Catch22CumulativeReporterBaseINS0_13JunitReporterEE11SectionNodeEEEC2Ev
FNDA:0,_ZNSaISt10shared_ptrIN5Catch22CumulativeReporterBaseINS0_13JunitReporterEE4NodeINS0_12TestRunStatsENS4_INS0_14TestGroupStatsENS4_INS0_13TestCaseStatsENS3_11SectionNodeEEEEEEEEEC2Ev
FNDA:0,_ZNSaISt10shared_ptrIN5Catch22CumulativeReporterBaseINS0_13JunitReporterEE4NodeINS0_14TestGroupStatsENS4_INS0_13TestCaseStatsENS3_11SectionNodeEEEEEEEC2Ev
FNDA:0,_ZNSaISt10shared_ptrIN5Catch22CumulativeReporterBaseINS0_13JunitReporterEE4NodeINS0_13TestCaseStatsENS3_11SectionNodeEEEEEC2Ev
FNDA:0,_ZNSaISt6vectorISt10shared_ptrIN5Catch22CumulativeReporterBaseINS1_13JunitReporterEE11SectionNodeEESaIS6_EEEC2Ev
FNDA:0,_ZNSaIN5Catch14AssertionStatsEEC2Ev
FNDA:1,_ZNSaIN5Catch11SectionInfoEEC2Ev
FNDA:0,_ZNSaISt13_Rb_tree_nodeIN5Catch9VerbosityEEEC2Ev
FNDA:0,_ZNSaIN5Catch15ConsoleReporter13SummaryColumnEEC2Ev
FNDA:2,_ZNSaISt10shared_ptrIN5Catch8TestSpec7PatternEEEC2Ev
FNDA:1,_ZNSaImEC2Ev
FNDA:10,_ZNSaISt10shared_ptrIN5Catch16TestCaseTracking8ITrackerEEEC2Ev
FNDA:1,_ZNSaISt13_Rb_tree_nodeIN5Catch8TestCaseEEEC2Ev
FNDA:2,_ZNSaIN5Catch5clara6detail3ArgEEC2Ev
FNDA:2,_ZNSaIN5Catch5clara6detail3OptEEC2Ev
FNDA:1,_ZNSaIPN5Catch16TestCaseTracking8ITrackerEEC2Ev
FNDA:1,_ZNSaIN5Catch14SectionEndInfoEEC2Ev
FNDA:1,_ZNSaIN5Catch11MessageInfoEEC2Ev
FNDA:1,_ZNSaINSt15__exception_ptr13exception_ptrEEC2Ev
FNDA:1,_ZNSaISt13_Rb_tree_nodeISt4pairIKNSt7__cxx1112basic_stringIcSt11char_traitsIcESaIcEEEN5Catch8TagAliasEEEEC2Ev
FNDA:1,_ZNSaISt10unique_ptrIKN5Catch20IExceptionTranslatorESt14default_deleteIS2_EEEC2Ev
FNDA:1,_ZNSaISt10shared_ptrIN5Catch16IReporterFactoryEEEC2Ev
FNDA:1,_ZNSaISt13_Rb_tree_nodeISt4pairIKNSt7__cxx1112basic_stringIcSt11char_traitsIcESaIcEEESt10shared_ptrIN5Catch16IReporterFactoryEEEEEC2Ev
FNDA:2,_ZNSaIN5Catch8TestCaseEEC2Ev
FNDA:0,_ZNSaISt13_Rb_tree_nodeINSt7__cxx1112basic_stringIcSt11char_traitsIcESaIcEEEEEC2Ev
FNDA:0,_ZNSaISt13_Rb_tree_nodeISt4pairIKNSt7__cxx1112basic_stringIcSt11char_traitsIcESaIcEEEN5Catch7TagInfoEEEEC2Ev
FNDA:0,_ZNSaISt10unique_ptrIN5Catch18IStreamingReporterESt14default_deleteIS1_EEEC2Ev
FNDA:2,_ZNSaIN5Catch8TestSpec6FilterEEC2Ev
FNDA:1,_ZNSaIN5Catch5clara6detail8BoundRefIiEEEC2Ev
FNDA:1,_ZNSaIN5Catch5clara6detail11BoundLambdaIZNS_21makeCommandLineParserERNS_10ConfigDataEEUlRKNSt7__cxx1112basic_stringIcSt11char_traitsIcESaIcEEEE4_EEEC2Ev
FNDA:1,_ZNSaIN5Catch5clara6detail11BoundLambdaIZNS_21makeCommandLineParserERNS_10ConfigDataEEUlRKNSt7__cxx1112basic_stringIcSt11char_traitsIcESaIcEEEE3_EEEC2Ev
FNDA:1,_ZNSaIN5Catch5clara6detail11BoundLambdaIZNS_21makeCommandLineParserERNS_10ConfigDataEEUlRKNSt7__cxx1112basic_stringIcSt11char_traitsIcESaIcEEEE2_EEEC2Ev
FNDA:1,_ZNSaIN5Catch5clara6detail11BoundLambdaIZNS_21makeCommandLineParserERNS_10ConfigDataEEUlRKNSt7__cxx1112basic_stringIcSt11char_traitsIcESaIcEEEE1_EEEC2Ev
FNDA:1,_ZNSaIN5Catch5clara6detail11BoundLambdaIZNS_21makeCommandLineParserERNS_10ConfigDataEEUlRKNSt7__cxx1112basic_stringIcSt11char_traitsIcESaIcEEEE5_EEEC2Ev
FNDA:1,_ZNSaIN5Catch5clara6detail11BoundLambdaIZNS_21makeCommandLineParserERNS_10ConfigDataEEUlRKNSt7__cxx1112basic_stringIcSt11char_traitsIcESaIcEEEE0_EEEC2Ev
FNDA:1,_ZNSaIN5Catch5clara6detail11BoundLambdaIZNS_21makeCommandLineParserERNS_10ConfigDataEEUlbE8_EEEC2Ev
FNDA:1,_ZNSaIN5Catch5clara6detail11BoundLambdaIZNS_21makeCommandLineParserERNS_10ConfigDataEEUlRKNSt7__cxx1112basic_stringIcSt11char_traitsIcESaIcEEEE_EEEC2Ev
FNDA:1,_ZNSaIN5Catch5clara6detail11BoundLambdaIZNS_21makeCommandLineParserERNS_10ConfigDataEEUliE7_EEEC2Ev
FNDA:1,_ZNSaIN5Catch5clara6detail5TokenEEC2Ev
FNDA:0,_ZNSaIN5Catch5clara8TextFlow6ColumnEEC2Ev
FNDA:0,_ZNSaIN5Catch5clara8TextFlow6Column8iteratorEEC2Ev
FNDA:1,_ZNSaIN5Catch17ReporterRegistrarINS_11XmlReporterEE15ReporterFactoryEEC2Ev
FNDA:1,_ZNSaIN5Catch17ReporterRegistrarINS_13JunitReporterEE15ReporterFactoryEEC2Ev
FNDA:0,_ZNSaIN5Catch22CumulativeReporterBaseINS_13JunitReporterEE4NodeINS_14TestGroupStatsENS3_INS_13TestCaseStatsENS2_11SectionNodeEEEEEEC2Ev
FNDA:0,_ZNSaIN5Catch22CumulativeReporterBaseINS_13JunitReporterEE4NodeINS_13TestCaseStatsENS2_11SectionNodeEEEEC2Ev
FNDA:1,_ZNSaIN5Catch17ReporterRegistrarINS_15ConsoleReporterEE15ReporterFactoryEEC2Ev
FNDA:1,_ZNSaIN5Catch17ReporterRegistrarINS_15CompactReporterEE15ReporterFactoryEEC2Ev
FNDA:1,_ZNSaIN5Catch9VerbosityEEC2Ev
FNDA:1,_ZNSaIN5Catch8TestSpec10TagPatternEEC2Ev
FNDA:1,_ZNSaIN5Catch8TestSpec15ExcludedPatternEEC2Ev
FNDA:0,_ZNSaIN5Catch8TestSpec11NamePatternEEC2Ev
FNDA:3,_ZNSaIN5Catch5clara6detail8BoundRefISt6vectorINSt7__cxx1112basic_stringIcSt11char_traitsIcESaIcEEESaIS9_EEEEEC2Ev
FNDA:1,_ZNSaIN5Catch5clara6detail15BoundFlagLambdaIZNS_21makeCommandLineParserERNS_10ConfigDataEEUlbE6_EEEC2Ev
FNDA:1,_ZNSaIN5Catch5clara6detail15BoundFlagLambdaIZNS1_4HelpC4ERbEUlbE_EEEC2Ev
FNDA:0,_ZNSaIN5Catch16TestCaseTracking12IndexTrackerEEC2Ev
FNDA:10,_ZNSaIN5Catch16TestCaseTracking14SectionTrackerEEC2Ev
FNDA:1,_ZNSaIN5Catch6ConfigEEC2Ev
FNDA:10,_ZNSaIN5Catch5clara6detail12BoundFlagRefEEC2Ev
FNDA:3,_ZNSaIN5Catch5clara6detail8BoundRefINSt7__cxx1112basic_stringIcSt11char_traitsIcESaIcEEEEEEC2Ev
FNDA:1,_ZNSaIN5Catch12_GLOBAL__N_110ColumnInfoEEC2Ev
FNDA:0,_ZNSaIN5Catch5clara6detail11HelpColumnsEEC2Ev
FNDA:52,_ZNSaINSt7__cxx1112basic_stringIcSt11char_traitsIcESaIcEEEEC2Ev
FNDA:0,_ZNSaIN5Catch22CumulativeReporterBaseINS_13JunitReporterEE4NodeINS_12TestRunStatsENS3_INS_14TestGroupStatsENS3_INS_13TestCaseStatsENS2_11SectionNodeEEEEEEEEC2ERKSB_
FNDA:0,_ZNSaIN5Catch22CumulativeReporterBaseINS_13JunitReporterEE11SectionNodeEEC2ERKS4_
FNDA:3,_ZNSaIN5Catch5clara6detail8BoundRefIiEEEC2ERKS4_
FNDA:3,_ZNSaIN5Catch5clara6detail11BoundLambdaIZNS_21makeCommandLineParserERNS_10ConfigDataEEUlRKNSt7__cxx1112basic_stringIcSt11char_traitsIcESaIcEEEE4_EEEC2ERKSF_
FNDA:3,_ZNSaIN5Catch5clara6detail11BoundLambdaIZNS_21makeCommandLineParserERNS_10ConfigDataEEUlRKNSt7__cxx1112basic_stringIcSt11char_traitsIcESaIcEEEE3_EEEC2ERKSF_
FNDA:3,_ZNSaIN5Catch5clara6detail11BoundLambdaIZNS_21makeCommandLineParserERNS_10ConfigDataEEUlRKNSt7__cxx1112basic_stringIcSt11char_traitsIcESaIcEEEE2_EEEC2ERKSF_
FNDA:3,_ZNSaIN5Catch5clara6detail11BoundLambdaIZNS_21makeCommandLineParserERNS_10ConfigDataEEUlRKNSt7__cxx1112basic_stringIcSt11char_traitsIcESaIcEEEE1_EEEC2ERKSF_
FNDA:3,_ZNSaIN5Catch5clara6detail11BoundLambdaIZNS_21makeCommandLineParserERNS_10ConfigDataEEUlRKNSt7__cxx1112basic_stringIcSt11char_traitsIcESaIcEEEE5_EEEC2ERKSF_
FNDA:3,_ZNSaIN5Catch5clara6detail11BoundLambdaIZNS_21makeCommandLineParserERNS_10ConfigDataEEUlRKNSt7__cxx1112basic_stringIcSt11char_traitsIcESaIcEEEE0_EEEC2ERKSF_
FNDA:3,_ZNSaIN5Catch5clara6detail11BoundLambdaIZNS_21makeCommandLineParserERNS_10ConfigDataEEUlbE8_EEEC2ERKS7_
FNDA:3,_ZNSaIN5Catch5clara6detail11BoundLambdaIZNS_21makeCommandLineParserERNS_10ConfigDataEEUlRKNSt7__cxx1112basic_stringIcSt11char_traitsIcESaIcEEEE_EEEC2ERKSF_
FNDA:3,_ZNSaIN5Catch5clara6detail11BoundLambdaIZNS_21makeCommandLineParserERNS_10ConfigDataEEUliE7_EEEC2ERKS7_
FNDA:3,_ZNSaIN5Catch17ReporterRegistrarINS_11XmlReporterEE15ReporterFactoryEEC2ERKS4_
FNDA:3,_ZNSaIN5Catch17ReporterRegistrarINS_13JunitReporterEE15ReporterFactoryEEC2ERKS4_
FNDA:0,_ZNSaIN5Catch22CumulativeReporterBaseINS_13JunitReporterEE4NodeINS_14TestGroupStatsENS3_INS_13TestCaseStatsENS2_11SectionNodeEEEEEEC2ERKS9_
FNDA:0,_ZNSaIN5Catch22CumulativeReporterBaseINS_13JunitReporterEE4NodeINS_13TestCaseStatsENS2_11SectionNodeEEEEC2ERKS7_
FNDA:3,_ZNSaIN5Catch17ReporterRegistrarINS_15ConsoleReporterEE15ReporterFactoryEEC2ERKS4_
FNDA:3,_ZNSaIN5Catch17ReporterRegistrarINS_15CompactReporterEE15ReporterFactoryEEC2ERKS4_
FNDA:3,_ZNSaIN5Catch8TestSpec10TagPatternEEC2ERKS2_
FNDA:3,_ZNSaIN5Catch8TestSpec15ExcludedPatternEEC2ERKS2_
FNDA:0,_ZNSaIN5Catch8TestSpec11NamePatternEEC2ERKS2_
FNDA:9,_ZNSaIN5Catch5clara6detail8BoundRefISt6vectorINSt7__cxx1112basic_stringIcSt11char_traitsIcESaIcEEESaIS9_EEEEEC2ERKSD_
FNDA:3,_ZNSaIN5Catch5clara6detail15BoundFlagLambdaIZNS_21makeCommandLineParserERNS_10ConfigDataEEUlbE6_EEEC2ERKS7_
FNDA:3,_ZNSaIN5Catch5clara6detail15BoundFlagLambdaIZNS1_4HelpC4ERbEUlbE_EEEC2ERKS7_
FNDA:0,_ZNSaIN5Catch16TestCaseTracking12IndexTrackerEEC2ERKS2_
FNDA:30,_ZNSaIN5Catch16TestCaseTracking14SectionTrackerEEC2ERKS2_
FNDA:3,_ZNSaIN5Catch6ConfigEEC2ERKS1_
FNDA:30,_ZNSaIN5Catch5clara6detail12BoundFlagRefEEC2ERKS3_
FNDA:9,_ZNSaIN5Catch5clara6detail8BoundRefINSt7__cxx1112basic_stringIcSt11char_traitsIcESaIcEEEEEEC2ERKSA_
FNDA:1,_ZNSaISt13_Rb_tree_nodeIN5Catch9VerbosityEEEC2ERKS3_
FNDA:1,_ZNSaIN5Catch9VerbosityEEC2ERKS1_
FNDA:6,_ZNSaISt10shared_ptrIN5Catch8TestSpec7PatternEEEC2ERKS4_
FNDA:0,_ZNSaISt13_Rb_tree_nodeINSt7__cxx1112basic_stringIcSt11char_traitsIcESaIcEEEEEC2ERKS7_
FNDA:114,_ZNSaIN5Catch5clara6detail3ArgEEC2ERKS3_
FNDA:114,_ZNSaIN5Catch5clara6detail3OptEEC2ERKS3_
FNDA:0,_ZNSaIN5Catch5clara6detail11HelpColumnsEEC2ERKS3_
FNDA:3,_ZNSaIN5Catch12_GLOBAL__N_110ColumnInfoEEC2ERKS2_
FNDA:4,_ZNSaIN5Catch8TestCaseEEC2ERKS1_
FNDA:6,_ZNSaIN5Catch8TestSpec6FilterEEC2ERKS2_
FNDA:8,_ZNSaIN5Catch11MessageInfoEEC2ERKS1_
FNDA:1950,_ZNSaINSt7__cxx1112basic_stringIcSt11char_traitsIcESaIcEEEEC2ERKS5_
FNDA:8,_ZNSaIN5Catch5clara6detail5TokenEEC2ERKS3_
FNDA:0,_ZNSaIN5Catch5clara8TextFlow6ColumnEEC2ERKS3_
FNDA:0,_ZNSaISt23_Sp_counted_ptr_inplaceIN5Catch22CumulativeReporterBaseINS0_13JunitReporterEE4NodeINS0_12TestRunStatsENS4_INS0_14TestGroupStatsENS4_INS0_13TestCaseStatsENS3_11SectionNodeEEEEEEESaISB_ELN9__gnu_cxx12_Lock_policyE2EEEC2ISB_EERKSaIT_E
FNDA:0,_ZNSaISt23_Sp_counted_ptr_inplaceIN5Catch22CumulativeReporterBaseINS0_13JunitReporterEE11SectionNodeESaIS4_ELN9__gnu_cxx12_Lock_policyE2EEEC2IS4_EERKSaIT_E
FNDA:2,_ZNSaISt23_Sp_counted_ptr_inplaceIN5Catch5clara6detail8BoundRefIiEESaIS4_ELN9__gnu_cxx12_Lock_policyE2EEEC2IS4_EERKSaIT_E
FNDA:2,_ZNSaISt23_Sp_counted_ptr_inplaceIN5Catch5clara6detail11BoundLambdaIZNS0_21makeCommandLineParserERNS0_10ConfigDataEEUlRKNSt7__cxx1112basic_stringIcSt11char_traitsIcESaIcEEEE4_EESaISF_ELN9__gnu_cxx12_Lock_policyE2EEEC2ISF_EERKSaIT_E
FNDA:2,_ZNSaISt23_Sp_counted_ptr_inplaceIN5Catch5clara6detail11BoundLambdaIZNS0_21makeCommandLineParserERNS0_10ConfigDataEEUlRKNSt7__cxx1112basic_stringIcSt11char_traitsIcESaIcEEEE3_EESaISF_ELN9__gnu_cxx12_Lock_policyE2EEEC2ISF_EERKSaIT_E
FNDA:2,_ZNSaISt23_Sp_counted_ptr_inplaceIN5Catch5clara6detail11BoundLambdaIZNS0_21makeCommandLineParserERNS0_10ConfigDataEEUlRKNSt7__cxx1112basic_stringIcSt11char_traitsIcESaIcEEEE2_EESaISF_ELN9__gnu_cxx12_Lock_policyE2EEEC2ISF_EERKSaIT_E
FNDA:2,_ZNSaISt23_Sp_counted_ptr_inplaceIN5Catch5clara6detail11BoundLambdaIZNS0_21makeCommandLineParserERNS0_10ConfigDataEEUlRKNSt7__cxx1112basic_stringIcSt11char_traitsIcESaIcEEEE1_EESaISF_ELN9__gnu_cxx12_Lock_policyE2EEEC2ISF_EERKSaIT_E
FNDA:2,_ZNSaISt23_Sp_counted_ptr_inplaceIN5Catch5clara6detail11BoundLambdaIZNS0_21makeCommandLineParserERNS0_10ConfigDataEEUlRKNSt7__cxx1112basic_stringIcSt11char_traitsIcESaIcEEEE5_EESaISF_ELN9__gnu_cxx12_Lock_policyE2EEEC2ISF_EERKSaIT_E
FNDA:2,_ZNSaISt23_Sp_counted_ptr_inplaceIN5Catch5clara6detail11BoundLambdaIZNS0_21makeCommandLineParserERNS0_10ConfigDataEEUlRKNSt7__cxx1112basic_stringIcSt11char_traitsIcESaIcEEEE0_EESaISF_ELN9__gnu_cxx12_Lock_policyE2EEEC2ISF_EERKSaIT_E
FNDA:2,_ZNSaISt23_Sp_counted_ptr_inplaceIN5Catch5clara6detail11BoundLambdaIZNS0_21makeCommandLineParserERNS0_10ConfigDataEEUlbE8_EESaIS7_ELN9__gnu_cxx12_Lock_policyE2EEEC2IS7_EERKSaIT_E
FNDA:2,_ZNSaISt23_Sp_counted_ptr_inplaceIN5Catch5clara6detail11BoundLambdaIZNS0_21makeCommandLineParserERNS0_10ConfigDataEEUlRKNSt7__cxx1112basic_stringIcSt11char_traitsIcESaIcEEEE_EESaISF_ELN9__gnu_cxx12_Lock_policyE2EEEC2ISF_EERKSaIT_E
FNDA:2,_ZNSaISt23_Sp_counted_ptr_inplaceIN5Catch5clara6detail11BoundLambdaIZNS0_21makeCommandLineParserERNS0_10ConfigDataEEUliE7_EESaIS7_ELN9__gnu_cxx12_Lock_policyE2EEEC2IS7_EERKSaIT_E
FNDA:2,_ZNSaISt23_Sp_counted_ptr_inplaceIN5Catch17ReporterRegistrarINS0_11XmlReporterEE15ReporterFactoryESaIS4_ELN9__gnu_cxx12_Lock_policyE2EEEC2IS4_EERKSaIT_E
FNDA:2,_ZNSaISt23_Sp_counted_ptr_inplaceIN5Catch17ReporterRegistrarINS0_13JunitReporterEE15ReporterFactoryESaIS4_ELN9__gnu_cxx12_Lock_policyE2EEEC2IS4_EERKSaIT_E
FNDA:0,_ZNSaISt23_Sp_counted_ptr_inplaceIN5Catch22CumulativeReporterBaseINS0_13JunitReporterEE4NodeINS0_14TestGroupStatsENS4_INS0_13TestCaseStatsENS3_11SectionNodeEEEEESaIS9_ELN9__gnu_cxx12_Lock_policyE2EEEC2IS9_EERKSaIT_E
FNDA:0,_ZNSaISt23_Sp_counted_ptr_inplaceIN5Catch22CumulativeReporterBaseINS0_13JunitReporterEE4NodeINS0_13TestCaseStatsENS3_11SectionNodeEEESaIS7_ELN9__gnu_cxx12_Lock_policyE2EEEC2IS7_EERKSaIT_E
FNDA:2,_ZNSaISt23_Sp_counted_ptr_inplaceIN5Catch17ReporterRegistrarINS0_15ConsoleReporterEE15ReporterFactoryESaIS4_ELN9__gnu_cxx12_Lock_policyE2EEEC2IS4_EERKSaIT_E
FNDA:2,_ZNSaISt23_Sp_counted_ptr_inplaceIN5Catch17ReporterRegistrarINS0_15CompactReporterEE15ReporterFactoryESaIS4_ELN9__gnu_cxx12_Lock_policyE2EEEC2IS4_EERKSaIT_E
FNDA:2,_ZNSaISt23_Sp_counted_ptr_inplaceIN5Catch8TestSpec10TagPatternESaIS2_ELN9__gnu_cxx12_Lock_policyE2EEEC2IS2_EERKSaIT_E
FNDA:2,_ZNSaISt23_Sp_counted_ptr_inplaceIN5Catch8TestSpec15ExcludedPatternESaIS2_ELN9__gnu_cxx12_Lock_policyE2EEEC2IS2_EERKSaIT_E
FNDA:0,_ZNSaISt23_Sp_counted_ptr_inplaceIN5Catch8TestSpec11NamePatternESaIS2_ELN9__gnu_cxx12_Lock_policyE2EEEC2IS2_EERKSaIT_E
FNDA:6,_ZNSaISt23_Sp_counted_ptr_inplaceIN5Catch5clara6detail8BoundRefISt6vectorINSt7__cxx1112basic_stringIcSt11char_traitsIcESaIcEEESaISA_EEEESaISD_ELN9__gnu_cxx12_Lock_policyE2EEEC2ISD_EERKSaIT_E
FNDA:2,_ZNSaISt23_Sp_counted_ptr_inplaceIN5Catch5clara6detail15BoundFlagLambdaIZNS0_21makeCommandLineParserERNS0_10ConfigDataEEUlbE6_EESaIS7_ELN9__gnu_cxx12_Lock_policyE2EEEC2IS7_EERKSaIT_E
FNDA:2,_ZNSaISt23_Sp_counted_ptr_inplaceIN5Catch5clara6detail15BoundFlagLambdaIZNS2_4HelpC4ERbEUlbE_EESaIS7_ELN9__gnu_cxx12_Lock_policyE2EEEC2IS7_EERKSaIT_E
FNDA:0,_ZNSaISt23_Sp_counted_ptr_inplaceIN5Catch16TestCaseTracking12IndexTrackerESaIS2_ELN9__gnu_cxx12_Lock_policyE2EEEC2IS2_EERKSaIT_E
FNDA:20,_ZNSaISt23_Sp_counted_ptr_inplaceIN5Catch16TestCaseTracking14SectionTrackerESaIS2_ELN9__gnu_cxx12_Lock_policyE2EEEC2IS2_EERKSaIT_E
FNDA:2,_ZNSaISt23_Sp_counted_ptr_inplaceIN5Catch6ConfigESaIS1_ELN9__gnu_cxx12_Lock_policyE2EEEC2IS1_EERKSaIT_E
FNDA:20,_ZNSaISt23_Sp_counted_ptr_inplaceIN5Catch5clara6detail12BoundFlagRefESaIS3_ELN9__gnu_cxx12_Lock_policyE2EEEC2IS3_EERKSaIT_E
FNDA:6,_ZNSaISt23_Sp_counted_ptr_inplaceIN5Catch5clara6detail8BoundRefINSt7__cxx1112basic_stringIcSt11char_traitsIcESaIcEEEEESaISA_ELN9__gnu_cxx12_Lock_policyE2EEEC2ISA_EERKSaIT_E
FNDA:6,_ZNSaISt23_Sp_counted_ptr_inplaceINSt7__cxx1112basic_stringIcSt11char_traitsIcESaIcEEESaIS5_ELN9__gnu_cxx12_Lock_policyE2EEEC2IS5_EERKSaIT_E
FNDA:1,_ZNSaISt13_Rb_tree_nodeIN5Catch9VerbosityEEEC2IS1_EERKSaIT_E
FNDA:0,_ZNSaISt23_Sp_counted_ptr_inplaceIN5Catch22CumulativeReporterBaseINS0_13JunitReporterEE4NodeINS0_12TestRunStatsENS4_INS0_14TestGroupStatsENS4_INS0_13TestCaseStatsENS3_11SectionNodeEEEEEEESaISB_ELN9__gnu_cxx12_Lock_policyE2EEED2Ev
FNDA:0,_ZNSaISt23_Sp_counted_ptr_inplaceIN5Catch22CumulativeReporterBaseINS0_13JunitReporterEE11SectionNodeESaIS4_ELN9__gnu_cxx12_Lock_policyE2EEED2Ev
FNDA:0,_ZNSaIN5Catch22CumulativeReporterBaseINS_13JunitReporterEE4NodeINS_12TestRunStatsENS3_INS_14TestGroupStatsENS3_INS_13TestCaseStatsENS2_11SectionNodeEEEEEEEED2Ev
FNDA:0,_ZNSaIN5Catch22CumulativeReporterBaseINS_13JunitReporterEE11SectionNodeEED2Ev
FNDA:2,_ZNSaISt23_Sp_counted_ptr_inplaceIN5Catch5clara6detail8BoundRefIiEESaIS4_ELN9__gnu_cxx12_Lock_policyE2EEED2Ev
FNDA:2,_ZNSaISt23_Sp_counted_ptr_inplaceIN5Catch5clara6detail11BoundLambdaIZNS0_21makeCommandLineParserERNS0_10ConfigDataEEUlRKNSt7__cxx1112basic_stringIcSt11char_traitsIcESaIcEEEE4_EESaISF_ELN9__gnu_cxx12_Lock_policyE2EEED2Ev
FNDA:2,_ZNSaISt23_Sp_counted_ptr_inplaceIN5Catch5clara6detail11BoundLambdaIZNS0_21makeCommandLineParserERNS0_10ConfigDataEEUlRKNSt7__cxx1112basic_stringIcSt11char_traitsIcESaIcEEEE3_EESaISF_ELN9__gnu_cxx12_Lock_policyE2EEED2Ev
FNDA:2,_ZNSaISt23_Sp_counted_ptr_inplaceIN5Catch5clara6detail11BoundLambdaIZNS0_21makeCommandLineParserERNS0_10ConfigDataEEUlRKNSt7__cxx1112basic_stringIcSt11char_traitsIcESaIcEEEE2_EESaISF_ELN9__gnu_cxx12_Lock_policyE2EEED2Ev
FNDA:2,_ZNSaISt23_Sp_counted_ptr_inplaceIN5Catch5clara6detail11BoundLambdaIZNS0_21makeCommandLineParserERNS0_10ConfigDataEEUlRKNSt7__cxx1112basic_stringIcSt11char_traitsIcESaIcEEEE1_EESaISF_ELN9__gnu_cxx12_Lock_policyE2EEED2Ev
FNDA:2,_ZNSaISt23_Sp_counted_ptr_inplaceIN5Catch5clara6detail11BoundLambdaIZNS0_21makeCommandLineParserERNS0_10ConfigDataEEUlRKNSt7__cxx1112basic_stringIcSt11char_traitsIcESaIcEEEE5_EESaISF_ELN9__gnu_cxx12_Lock_policyE2EEED2Ev
FNDA:2,_ZNSaISt23_Sp_counted_ptr_inplaceIN5Catch5clara6detail11BoundLambdaIZNS0_21makeCommandLineParserERNS0_10ConfigDataEEUlRKNSt7__cxx1112basic_stringIcSt11char_traitsIcESaIcEEEE0_EESaISF_ELN9__gnu_cxx12_Lock_policyE2EEED2Ev
FNDA:2,_ZNSaISt23_Sp_counted_ptr_inplaceIN5Catch5clara6detail11BoundLambdaIZNS0_21makeCommandLineParserERNS0_10ConfigDataEEUlbE8_EESaIS7_ELN9__gnu_cxx12_Lock_policyE2EEED2Ev
FNDA:2,_ZNSaISt23_Sp_counted_ptr_inplaceIN5Catch5clara6detail11BoundLambdaIZNS0_21makeCommandLineParserERNS0_10ConfigDataEEUlRKNSt7__cxx1112basic_stringIcSt11char_traitsIcESaIcEEEE_EESaISF_ELN9__gnu_cxx12_Lock_policyE2EEED2Ev
FNDA:2,_ZNSaISt23_Sp_counted_ptr_inplaceIN5Catch5clara6detail11BoundLambdaIZNS0_21makeCommandLineParserERNS0_10ConfigDataEEUliE7_EESaIS7_ELN9__gnu_cxx12_Lock_policyE2EEED2Ev
FNDA:2,_ZNSaISt23_Sp_counted_ptr_inplaceIN5Catch17ReporterRegistrarINS0_11XmlReporterEE15ReporterFactoryESaIS4_ELN9__gnu_cxx12_Lock_policyE2EEED2Ev
FNDA:2,_ZNSaISt23_Sp_counted_ptr_inplaceIN5Catch17ReporterRegistrarINS0_13JunitReporterEE15ReporterFactoryESaIS4_ELN9__gnu_cxx12_Lock_policyE2EEED2Ev
FNDA:0,_ZNSaISt23_Sp_counted_ptr_inplaceIN5Catch22CumulativeReporterBaseINS0_13JunitReporterEE4NodeINS0_14TestGroupStatsENS4_INS0_13TestCaseStatsENS3_11SectionNodeEEEEESaIS9_ELN9__gnu_cxx12_Lock_policyE2EEED2Ev
FNDA:0,_ZNSaISt23_Sp_counted_ptr_inplaceIN5Catch22CumulativeReporterBaseINS0_13JunitReporterEE4NodeINS0_13TestCaseStatsENS3_11SectionNodeEEESaIS7_ELN9__gnu_cxx12_Lock_policyE2EEED2Ev
FNDA:2,_ZNSaISt23_Sp_counted_ptr_inplaceIN5Catch17ReporterRegistrarINS0_15ConsoleReporterEE15ReporterFactoryESaIS4_ELN9__gnu_cxx12_Lock_policyE2EEED2Ev
FNDA:2,_ZNSaISt23_Sp_counted_ptr_inplaceIN5Catch17ReporterRegistrarINS0_15CompactReporterEE15ReporterFactoryESaIS4_ELN9__gnu_cxx12_Lock_policyE2EEED2Ev
FNDA:2,_ZNSaISt23_Sp_counted_ptr_inplaceIN5Catch8TestSpec10TagPatternESaIS2_ELN9__gnu_cxx12_Lock_policyE2EEED2Ev
FNDA:2,_ZNSaISt23_Sp_counted_ptr_inplaceIN5Catch8TestSpec15ExcludedPatternESaIS2_ELN9__gnu_cxx12_Lock_policyE2EEED2Ev
FNDA:0,_ZNSaISt23_Sp_counted_ptr_inplaceIN5Catch8TestSpec11NamePatternESaIS2_ELN9__gnu_cxx12_Lock_policyE2EEED2Ev
FNDA:6,_ZNSaISt23_Sp_counted_ptr_inplaceIN5Catch5clara6detail8BoundRefISt6vectorINSt7__cxx1112basic_stringIcSt11char_traitsIcESaIcEEESaISA_EEEESaISD_ELN9__gnu_cxx12_Lock_policyE2EEED2Ev
FNDA:2,_ZNSaISt23_Sp_counted_ptr_inplaceIN5Catch5clara6detail15BoundFlagLambdaIZNS0_21makeCommandLineParserERNS0_10ConfigDataEEUlbE6_EESaIS7_ELN9__gnu_cxx12_Lock_policyE2EEED2Ev
FNDA:2,_ZNSaISt23_Sp_counted_ptr_inplaceIN5Catch5clara6detail15BoundFlagLambdaIZNS2_4HelpC4ERbEUlbE_EESaIS7_ELN9__gnu_cxx12_Lock_policyE2EEED2Ev
FNDA:0,_ZNSaISt23_Sp_counted_ptr_inplaceIN5Catch16TestCaseTracking12IndexTrackerESaIS2_ELN9__gnu_cxx12_Lock_policyE2EEED2Ev
FNDA:20,_ZNSaISt23_Sp_counted_ptr_inplaceIN5Catch16TestCaseTracking14SectionTrackerESaIS2_ELN9__gnu_cxx12_Lock_policyE2EEED2Ev
FNDA:2,_ZNSaISt23_Sp_counted_ptr_inplaceIN5Catch6ConfigESaIS1_ELN9__gnu_cxx12_Lock_policyE2EEED2Ev
FNDA:20,_ZNSaISt23_Sp_counted_ptr_inplaceIN5Catch5clara6detail12BoundFlagRefESaIS3_ELN9__gnu_cxx12_Lock_policyE2EEED2Ev
FNDA:6,_ZNSaISt23_Sp_counted_ptr_inplaceIN5Catch5clara6detail8BoundRefINSt7__cxx1112basic_stringIcSt11char_traitsIcESaIcEEEEESaISA_ELN9__gnu_cxx12_Lock_policyE2EEED2Ev
FNDA:6,_ZNSaISt23_Sp_counted_ptr_inplaceINSt7__cxx1112basic_stringIcSt11char_traitsIcESaIcEEESaIS5_ELN9__gnu_cxx12_Lock_policyE2EEED2Ev
FNDA:4,_ZNSaIN5Catch5clara6detail8BoundRefIiEEED2Ev
FNDA:4,_ZNSaIN5Catch5clara6detail11BoundLambdaIZNS_21makeCommandLineParserERNS_10ConfigDataEEUlRKNSt7__cxx1112basic_stringIcSt11char_traitsIcESaIcEEEE4_EEED2Ev
FNDA:4,_ZNSaIN5Catch5clara6detail11BoundLambdaIZNS_21makeCommandLineParserERNS_10ConfigDataEEUlRKNSt7__cxx1112basic_stringIcSt11char_traitsIcESaIcEEEE3_EEED2Ev
FNDA:4,_ZNSaIN5Catch5clara6detail11BoundLambdaIZNS_21makeCommandLineParserERNS_10ConfigDataEEUlRKNSt7__cxx1112basic_stringIcSt11char_traitsIcESaIcEEEE2_EEED2Ev
FNDA:4,_ZNSaIN5Catch5clara6detail11BoundLambdaIZNS_21makeCommandLineParserERNS_10ConfigDataEEUlRKNSt7__cxx1112basic_stringIcSt11char_traitsIcESaIcEEEE1_EEED2Ev
FNDA:4,_ZNSaIN5Catch5clara6detail11BoundLambdaIZNS_21makeCommandLineParserERNS_10ConfigDataEEUlRKNSt7__cxx1112basic_stringIcSt11char_traitsIcESaIcEEEE5_EEED2Ev
FNDA:4,_ZNSaIN5Catch5clara6detail11BoundLambdaIZNS_21makeCommandLineParserERNS_10ConfigDataEEUlRKNSt7__cxx1112basic_stringIcSt11char_traitsIcESaIcEEEE0_EEED2Ev
FNDA:4,_ZNSaIN5Catch5clara6detail11BoundLambdaIZNS_21makeCommandLineParserERNS_10ConfigDataEEUlbE8_EEED2Ev
FNDA:4,_ZNSaIN5Catch5clara6detail11BoundLambdaIZNS_21makeCommandLineParserERNS_10ConfigDataEEUlRKNSt7__cxx1112basic_stringIcSt11char_traitsIcESaIcEEEE_EEED2Ev
FNDA:4,_ZNSaIN5Catch5clara6detail11BoundLambdaIZNS_21makeCommandLineParserERNS_10ConfigDataEEUliE7_EEED2Ev
FNDA:4,_ZNSaIN5Catch17ReporterRegistrarINS_11XmlReporterEE15ReporterFactoryEED2Ev
FNDA:4,_ZNSaIN5Catch17ReporterRegistrarINS_13JunitReporterEE15ReporterFactoryEED2Ev
FNDA:0,_ZNSaIN5Catch22CumulativeReporterBaseINS_13JunitReporterEE4NodeINS_14TestGroupStatsENS3_INS_13TestCaseStatsENS2_11SectionNodeEEEEEED2Ev
FNDA:0,_ZNSaIN5Catch22CumulativeReporterBaseINS_13JunitReporterEE4NodeINS_13TestCaseStatsENS2_11SectionNodeEEEED2Ev
FNDA:0,_ZNSaISt10shared_ptrIN5Catch22CumulativeReporterBaseINS0_13JunitReporterEE11SectionNodeEEED2Ev
FNDA:0,_ZNSaISt10shared_ptrIN5Catch22CumulativeReporterBaseINS0_13JunitReporterEE4NodeINS0_12TestRunStatsENS4_INS0_14TestGroupStatsENS4_INS0_13TestCaseStatsENS3_11SectionNodeEEEEEEEEED2Ev
FNDA:0,_ZNSaISt10shared_ptrIN5Catch22CumulativeReporterBaseINS0_13JunitReporterEE4NodeINS0_14TestGroupStatsENS4_INS0_13TestCaseStatsENS3_11SectionNodeEEEEEEED2Ev
FNDA:0,_ZNSaISt10shared_ptrIN5Catch22CumulativeReporterBaseINS0_13JunitReporterEE4NodeINS0_13TestCaseStatsENS3_11SectionNodeEEEEED2Ev
FNDA:0,_ZNSaISt6vectorISt10shared_ptrIN5Catch22CumulativeReporterBaseINS1_13JunitReporterEE11SectionNodeEESaIS6_EEED2Ev
FNDA:0,_ZNSaIN5Catch14AssertionStatsEED2Ev
FNDA:4,_ZNSaIN5Catch17ReporterRegistrarINS_15ConsoleReporterEE15ReporterFactoryEED2Ev
FNDA:0,_ZNSaIN5Catch15ConsoleReporter13SummaryColumnEED2Ev
FNDA:4,_ZNSaIN5Catch17ReporterRegistrarINS_15CompactReporterEE15ReporterFactoryEED2Ev
FNDA:1,_ZNSaIN5Catch11SectionInfoEED2Ev
FNDA:2,_ZNSaIN5Catch9VerbosityEED2Ev
FNDA:4,_ZNSaIN5Catch8TestSpec10TagPatternEED2Ev
FNDA:4,_ZNSaIN5Catch8TestSpec15ExcludedPatternEED2Ev
FNDA:0,_ZNSaIN5Catch8TestSpec11NamePatternEED2Ev
FNDA:10,_ZNSaISt10shared_ptrIN5Catch16TestCaseTracking8ITrackerEEED2Ev
FNDA:1,_ZNSaIPN5Catch16TestCaseTracking8ITrackerEED2Ev
FNDA:1,_ZNSaIN5Catch14SectionEndInfoEED2Ev
FNDA:1,_ZNSaINSt15__exception_ptr13exception_ptrEED2Ev
FNDA:1,_ZNSaISt10shared_ptrIN5Catch16IReporterFactoryEEED2Ev
FNDA:0,_ZNSaISt10unique_ptrIN5Catch18IStreamingReporterESt14default_deleteIS1_EEED2Ev
FNDA:1,_ZNSaISt10unique_ptrIKN5Catch20IExceptionTranslatorESt14default_deleteIS2_EEED2Ev
FNDA:8,_ZNSaISt10shared_ptrIN5Catch8TestSpec7PatternEEED2Ev
FNDA:1,_ZNSaImED2Ev
FNDA:12,_ZNSaIN5Catch5clara6detail8BoundRefISt6vectorINSt7__cxx1112basic_stringIcSt11char_traitsIcESaIcEEESaIS9_EEEEED2Ev
FNDA:4,_ZNSaIN5Catch5clara6detail15BoundFlagLambdaIZNS_21makeCommandLineParserERNS_10ConfigDataEEUlbE6_EEED2Ev
FNDA:116,_ZNSaIN5Catch5clara6detail3ArgEED2Ev
FNDA:116,_ZNSaIN5Catch5clara6detail3OptEED2Ev
FNDA:4,_ZNSaIN5Catch5clara6detail15BoundFlagLambdaIZNS1_4HelpC4ERbEUlbE_EEED2Ev
FNDA:2,_ZNSaISt13_Rb_tree_nodeIN5Catch9VerbosityEEED2Ev
FNDA:0,_ZNSaIN5Catch16TestCaseTracking12IndexTrackerEED2Ev
FNDA:40,_ZNSaIN5Catch16TestCaseTracking14SectionTrackerEED2Ev
FNDA:1,_ZNSaISt13_Rb_tree_nodeIN5Catch8TestCaseEEED2Ev
FNDA:6,_ZNSaIN5Catch8TestCaseEED2Ev
FNDA:4,_ZNSaIN5Catch6ConfigEED2Ev
FNDA:1,_ZNSaISt13_Rb_tree_nodeISt4pairIKNSt7__cxx1112basic_stringIcSt11char_traitsIcESaIcEEEN5Catch8TagAliasEEEED2Ev
FNDA:1,_ZNSaISt13_Rb_tree_nodeISt4pairIKNSt7__cxx1112basic_stringIcSt11char_traitsIcESaIcEEESt10shared_ptrIN5Catch16IReporterFactoryEEEEED2Ev
FNDA:0,_ZNSaISt13_Rb_tree_nodeINSt7__cxx1112basic_stringIcSt11char_traitsIcESaIcEEEEED2Ev
FNDA:0,_ZNSaISt13_Rb_tree_nodeISt4pairIKNSt7__cxx1112basic_stringIcSt11char_traitsIcESaIcEEEN5Catch7TagInfoEEEED2Ev
FNDA:8,_ZNSaIN5Catch8TestSpec6FilterEED2Ev
FNDA:9,_ZNSaIN5Catch11MessageInfoEED2Ev
FNDA:40,_ZNSaIN5Catch5clara6detail12BoundFlagRefEED2Ev
FNDA:12,_ZNSaIN5Catch5clara6detail8BoundRefINSt7__cxx1112basic_stringIcSt11char_traitsIcESaIcEEEEEED2Ev
FNDA:9,_ZNSaIN5Catch5clara6detail5TokenEED2Ev
FNDA:0,_ZNSaIN5Catch5clara8TextFlow6ColumnEED2Ev
FNDA:0,_ZNSaIN5Catch5clara8TextFlow6Column8iteratorEED2Ev
FNDA:4,_ZNSaIN5Catch12_GLOBAL__N_110ColumnInfoEED2Ev
FNDA:0,_ZNSaIN5Catch5clara6detail11HelpColumnsEED2Ev
FNDA:2002,_ZNSaINSt7__cxx1112basic_stringIcSt11char_traitsIcESaIcEEEED2Ev
FNDA:0,_ZStneIN5Catch5clara6detail3ArgEEbRKSaIT_ES7_
FNDA:0,_ZStneIN5Catch5clara6detail3OptEEbRKSaIT_ES7_
FNDA:0,_ZStneINSt7__cxx1112basic_stringIcSt11char_traitsIcESaIcEEEEbRKSaIT_ES9_
FNF:235
FNH:172
DA:113,131
DA:115,2350
DA:116,2350
DA:119,97
DA:121,2578
DA:146,0
DA:148,0
LF:7
LH:5
end_of_record
SF:/usr/include/c++/5/bits/basic_string.h
FN:4783,_ZStplIcSt11char_traitsIcESaIcEENSt7__cxx1112basic_stringIT_T0_T1_EERKS8_SA_
FN:4820,_ZStplIcSt11char_traitsIcESaIcEENSt7__cxx1112basic_stringIT_T0_T1_EERKS8_PKS5_
FN:4836,_ZStplIcSt11char_traitsIcESaIcEENSt7__cxx1112basic_stringIT_T0_T1_EERKS8_S5_
FN:4848,_ZStplIcSt11char_traitsIcESaIcEENSt7__cxx1112basic_stringIT_T0_T1_EEOS8_RKS8_
FN:4860,_ZStplIcSt11char_traitsIcESaIcEENSt7__cxx1112basic_stringIT_T0_T1_EEOS8_S9_
FN:4872,_ZStplIcSt11char_traitsIcESaIcEENSt7__cxx1112basic_stringIT_T0_T1_EEPKS5_OS8_
FN:4884,_ZStplIcSt11char_traitsIcESaIcEENSt7__cxx1112basic_stringIT_T0_T1_EEOS8_PKS5_
FN:4890,_ZStplIcSt11char_traitsIcESaIcEENSt7__cxx1112basic_stringIT_T0_T1_EEOS8_S5_
FN:4911,_ZSteqIcEN9__gnu_cxx11__enable_ifIXsrSt9__is_charIT_E7__valueEbE6__typeERKNSt7__cxx1112basic_stringIS3_St11char_traitsIS3_ESaIS3_EEESE_
FN:4937,_ZSteqIcSt11char_traitsIcESaIcEEbRKNSt7__cxx1112basic_stringIT_T0_T1_EEPKS5_
FN:4950,_ZStneIcSt11char_traitsIcESaIcEEbRKNSt7__cxx1112basic_stringIT_T0_T1_EESA_
FN:4974,_ZStneIcSt11char_traitsIcESaIcEEbRKNSt7__cxx1112basic_stringIT_T0_T1_EEPKS5_
FN:4987,_ZStltIcSt11char_traitsIcESaIcEEbRKNSt7__cxx1112basic_stringIT_T0_T1_EESA_
FN:5135,_ZSt4swapIcSt11char_traitsIcESaIcEEvRNSt7__cxx1112basic_stringIT_T0_T1_EES9_
FNDA:0,_ZStplIcSt11char_traitsIcESaIcEENSt7__cxx1112basic_stringIT_T0_T1_EERKS8_SA_
FNDA:0,_ZStplIcSt11char_traitsIcESaIcEENSt7__cxx1112basic_stringIT_T0_T1_EERKS8_PKS5_
FNDA:0,_ZStplIcSt11char_traitsIcESaIcEENSt7__cxx1112basic_stringIT_T0_T1_EERKS8_S5_
FNDA:0,_ZStplIcSt11char_traitsIcESaIcEENSt7__cxx1112basic_stringIT_T0_T1_EEOS8_RKS8_
FNDA:0,_ZStplIcSt11char_traitsIcESaIcEENSt7__cxx1112basic_stringIT_T0_T1_EEOS8_S9_
FNDA:0,_ZStplIcSt11char_traitsIcESaIcEENSt7__cxx1112basic_stringIT_T0_T1_EEPKS5_OS8_
FNDA:0,_ZStplIcSt11char_traitsIcESaIcEENSt7__cxx1112basic_stringIT_T0_T1_EEOS8_PKS5_
FNDA:0,_ZStplIcSt11char_traitsIcESaIcEENSt7__cxx1112basic_stringIT_T0_T1_EEOS8_S5_
FNDA:8,_ZSteqIcEN9__gnu_cxx11__enable_ifIXsrSt9__is_charIT_E7__valueEbE6__typeERKNSt7__cxx1112basic_stringIS3_St11char_traitsIS3_ESaIS3_EEESE_
FNDA:54,_ZSteqIcSt11char_traitsIcESaIcEEbRKNSt7__cxx1112basic_stringIT_T0_T1_EEPKS5_
FNDA:0,_ZStneIcSt11char_traitsIcESaIcEEbRKNSt7__cxx1112basic_stringIT_T0_T1_EESA_
FNDA:0,_ZStneIcSt11char_traitsIcESaIcEEbRKNSt7__cxx1112basic_stringIT_T0_T1_EEPKS5_
FNDA:21,_ZStltIcSt11char_traitsIcESaIcEEbRKNSt7__cxx1112basic_stringIT_T0_T1_EESA_
FNDA:0,_ZSt4swapIcSt11char_traitsIcESaIcEEvRNSt7__cxx1112basic_stringIT_T0_T1_EES9_
FNF:14
FNH:3
DA:4783,0
DA:4786,0
DA:4787,0
DA:4788,0
DA:4820,0
DA:4823,0
DA:4824,0
DA:4825,0
DA:4836,0
DA:4840,0
DA:4841,0
DA:4842,0
DA:4848,0
DA:4850,0
DA:4860,0
DA:4863,0
DA:4864,0
DA:4865,0
DA:4866,0
DA:4867,0
DA:4872,0
DA:4874,0
DA:4884,0
DA:4886,0
DA:4890,0
DA:4892,0
DA:4911,8
DA:4913,8
DA:4914,3
DA:4915,11
DA:4937,54
DA:4939,54
DA:4950,0
DA:4952,0
DA:4974,0
DA:4976,0
DA:4987,21
DA:4989,21
DA:5135,0
DA:5137,0
LF:40
LH:8
end_of_record
SF:/usr/include/c++/5/bits/basic_string.tcc
FN:1151,_ZStplIcSt11char_traitsIcESaIcEENSt7__cxx1112basic_stringIT_T0_T1_EEPKS5_RKS8_
FN:1167,_ZStplIcSt11char_traitsIcESaIcEENSt7__cxx1112basic_stringIT_T0_T1_EES5_RKS8_
FNDA:0,_ZStplIcSt11char_traitsIcESaIcEENSt7__cxx1112basic_stringIT_T0_T1_EEPKS5_RKS8_
FNDA:0,_ZStplIcSt11char_traitsIcESaIcEENSt7__cxx1112basic_stringIT_T0_T1_EES5_RKS8_
FNF:2
FNH:0
DA:1151,0
DA:1157,0
DA:1158,0
DA:1159,0
DA:1160,0
DA:1161,0
DA:1162,0
DA:1167,0
DA:1171,0
DA:1172,0
DA:1173,0
DA:1174,0
DA:1175,0
DA:1176,0
LF:14
LH:0
end_of_record
SF:/usr/include/c++/5/bits/char_traits.h
FN:258,_ZNSt11char_traitsIcE7compareEPKcS2_m
FN:266,_ZNSt11char_traitsIcE6lengthEPKc
FNDA:3,_ZNSt11char_traitsIcE7compareEPKcS2_m
FNDA:0,_ZNSt11char_traitsIcE6lengthEPKc
FNF:2
FNH:1
DA:258,3
DA:260,3
DA:261,0
DA:262,3
DA:266,0
DA:267,0
LF:6
LH:3
end_of_record
SF:/usr/include/c++/5/bits/exception_ptr.h
FN:99,_ZNSt15__exception_ptr13exception_ptrC2EOS0_
FNDA:0,_ZNSt15__exception_ptr13exception_ptrC2EOS0_
FNF:1
FNH:0
DA:99,0
DA:100,0
DA:101,0
LF:3
LH:0
end_of_record
SF:/usr/include/c++/5/bits/ios_base.h
FN:83,_ZStanSt13_Ios_FmtflagsS_
FN:87,_ZStorSt13_Ios_FmtflagsS_
FN:95,_ZStcoSt13_Ios_Fmtflags
FN:99,_ZStoRRSt13_Ios_FmtflagsS_
FN:103,_ZStaNRSt13_Ios_FmtflagsS_
FN:129,_ZStorSt13_Ios_OpenmodeS_
FN:646,_ZNSt8ios_base4setfESt13_Ios_Fmtflags
FN:663,_ZNSt8ios_base4setfESt13_Ios_FmtflagsS0_
FN:958,_ZSt9uppercaseRSt8ios_base
FN:999,_ZSt4leftRSt8ios_base
FN:1024,_ZSt3hexRSt8ios_base
FN:1041,_ZSt5fixedRSt8ios_base
FNDA:0,_ZStanSt13_Ios_FmtflagsS_
FNDA:0,_ZStorSt13_Ios_FmtflagsS_
FNDA:0,_ZStcoSt13_Ios_Fmtflags
FNDA:0,_ZStoRRSt13_Ios_FmtflagsS_
FNDA:0,_ZStaNRSt13_Ios_FmtflagsS_
FNDA:0,_ZStorSt13_Ios_OpenmodeS_
FNDA:0,_ZNSt8ios_base4setfESt13_Ios_Fmtflags
FNDA:0,_ZNSt8ios_base4setfESt13_Ios_FmtflagsS0_
FNDA:0,_ZSt9uppercaseRSt8ios_base
FNDA:0,_ZSt4leftRSt8ios_base
FNDA:0,_ZSt3hexRSt8ios_base
FNDA:0,_ZSt5fixedRSt8ios_base
FNF:12
FNH:0
DA:83,0
DA:84,0
DA:87,0
DA:88,0
DA:95,0
DA:96,0
DA:99,0
DA:100,0
DA:103,0
DA:104,0
DA:129,0
DA:130,0
DA:646,0
DA:648,0
DA:649,0
DA:650,0
DA:663,0
DA:665,0
DA:666,0
DA:667,0
DA:668,0
DA:958,0
DA:960,0
DA:961,0
DA:999,0
DA:1001,0
DA:1002,0
DA:1024,0
DA:1026,0
DA:1027,0
DA:1041,0
DA:1043,0
DA:1044,0
LF:33
LH:0
end_of_record
SF:/usr/include/c++/5/bits/move.h
FN:47,_ZSt11__addressofIN5Catch8TestSpec6FilterEEPT_RS3_
FN:47,_ZSt11__addressofINSt15__exception_ptr13exception_ptrEEPT_RS2_
FN:47,_ZSt11__addressofIN5Catch14SectionEndInfoEEPT_RS2_
FN:47,_ZSt11__addressofIN5Catch5clara8TextFlow6ColumnEEPT_RS4_
FN:47,_ZSt11__addressofISt10shared_ptrIN5Catch22CumulativeReporterBaseINS1_13JunitReporterEE11SectionNodeEEEPT_RS7_
FN:47,_ZSt11__addressofIN5Catch8TestCaseEEPT_RS2_
FN:47,_ZSt11__addressofINSt7__cxx1112basic_stringIcSt11char_traitsIcESaIcEEEEPT_RS6_
FN:47,_ZSt11__addressofIN5Catch5clara8TextFlow6Column8iteratorEEPT_RS5_
FN:47,_ZSt11__addressofISt6vectorISt10shared_ptrIN5Catch22CumulativeReporterBaseINS2_13JunitReporterEE11SectionNodeEESaIS7_EEEPT_RSA_
FN:47,_ZSt11__addressofIN5Catch5clara6detail3OptEEPT_RS4_
FN:47,_ZSt11__addressofIN5Catch11SectionInfoEEPT_RS2_
FN:47,_ZSt11__addressofIN5Catch5clara6detail5TokenEEPT_RS4_
FN:47,_ZSt11__addressofISt10unique_ptrIKN5Catch20IExceptionTranslatorESt14default_deleteIS3_EEEPT_RS7_
FN:47,_ZSt11__addressofISt10shared_ptrIN5Catch16IReporterFactoryEEEPT_RS4_
FN:47,_ZSt11__addressofISt10shared_ptrIN5Catch22CumulativeReporterBaseINS1_13JunitReporterEE4NodeINS1_13TestCaseStatsENS4_11SectionNodeEEEEEPT_RSA_
FN:47,_ZSt11__addressofIN5Catch11MessageInfoEEPT_RS2_
FN:47,_ZSt11__addressofISt10shared_ptrIN5Catch22CumulativeReporterBaseINS1_13JunitReporterEE4NodeINS1_12TestRunStatsENS5_INS1_14TestGroupStatsENS5_INS1_13TestCaseStatsENS4_11SectionNodeEEEEEEEEEPT_RSE_
FN:47,_ZSt11__addressofISt10unique_ptrIN5Catch18IStreamingReporterESt14default_deleteIS2_EEEPT_RS6_
FN:47,_ZSt11__addressofISt10shared_ptrIN5Catch16TestCaseTracking8ITrackerEEEPT_RS5_
FN:47,_ZSt11__addressofIN5Catch14AssertionStatsEEPT_RS2_
FN:47,_ZSt11__addressofISt10shared_ptrIN5Catch22CumulativeReporterBaseINS1_13JunitReporterEE4NodeINS1_14TestGroupStatsENS5_INS1_13TestCaseStatsENS4_11SectionNodeEEEEEEEPT_RSC_
FN:47,_ZSt11__addressofIN5Catch5clara6detail3ArgEEPT_RS4_
FN:47,_ZSt11__addressofIN5Catch12_GLOBAL__N_110ColumnInfoEEPT_RS3_
FN:47,_ZSt11__addressofISt10shared_ptrIN5Catch8TestSpec7PatternEEEPT_RS5_
FN:47,_ZSt11__addressofIN5Catch15ConsoleReporter13SummaryColumnEEPT_RS3_
FN:47,_ZSt11__addressofIN5Catch5clara6detail11HelpColumnsEEPT_RS4_
FN:76,_ZSt7forwardIDnEOT_RNSt16remove_referenceIS0_E4typeE
FN:76,_ZSt7forwardIPKN5Catch20IExceptionTranslatorEEOT_RNSt16remove_referenceIS4_E4typeE
FN:76,_ZSt7forwardIRKN5Catch14SectionEndInfoEEOT_RNSt16remove_referenceIS4_E4typeE
FN:76,_ZSt7forwardIRPKN5Catch20IExceptionTranslatorEEOT_RNSt16remove_referenceIS5_E4typeE
FN:76,_ZSt7forwardIRN5Catch14AssertionStatsEEOT_RNSt16remove_referenceIS3_E4typeE
FN:76,_ZSt7forwardIPN5Catch16TestCaseTracking8ITrackerEEOT_RNSt16remove_referenceIS4_E4typeE
FN:76,_ZSt7forwardISt10shared_ptrIN5Catch16IReporterFactoryEEEOT_RNSt16remove_referenceIS4_E4typeE
FN:76,_ZSt7forwardIRN5Catch10ConfigDataEEOT_RNSt16remove_referenceIS3_E4typeE
FN:76,_ZSt7forwardIRKSt10shared_ptrIN5Catch22CumulativeReporterBaseINS1_13JunitReporterEE4NodeINS1_13TestCaseStatsENS4_11SectionNodeEEEEEOT_RNSt16remove_referenceISC_E4typeE
FN:76,_ZSt7forwardIRKmEOT_RNSt16remove_referenceIS2_E4typeE
FN:76,_ZSt7forwardIRPKN5Catch7IStreamEEOT_RNSt16remove_referenceIS5_E4typeE
FN:76,_ZSt7forwardINSt15__exception_ptr13exception_ptrEEOT_RNSt16remove_referenceIS2_E4typeE
FN:76,_ZSt7forwardIRKZN5Catch21makeCommandLineParserERNS0_10ConfigDataEEUlRKNSt7__cxx1112basic_stringIcSt11char_traitsIcESaIcEEEE5_EOT_RNSt16remove_referenceISE_E4typeE
FN:76,_ZSt7forwardIRKZN5Catch21makeCommandLineParserERNS0_10ConfigDataEEUliE7_EOT_RNSt16remove_referenceIS6_E4typeE
FN:76,_ZSt7forwardISt14default_deleteIN5Catch13StreamBufBaseEEEOT_RNSt16remove_referenceIS4_E4typeE
FN:76,_ZSt7forwardISt17_Rb_tree_iteratorISt4pairIKNSt7__cxx1112basic_stringIcSt11char_traitsIcESaIcEEESt10shared_ptrIN5Catch16IReporterFactoryEEEEEOT_RNSt16remove_referenceISF_E4typeE
FN:76,_ZSt7forwardIRSt17_Rb_tree_iteratorINSt7__cxx1112basic_stringIcSt11char_traitsIcESaIcEEEEEOT_RNSt16remove_referenceIS9_E4typeE
FN:76,_ZSt7forwardIRN5Catch5clara6detail11HelpColumnsEEOT_RNSt16remove_referenceIS5_E4typeE
FN:76,_ZSt7forwardIPN5Catch13JunitReporterEEOT_RNSt16remove_referenceIS3_E4typeE
FN:76,_ZSt7forwardIN5Catch5clara8TextFlow6ColumnEEOT_RNSt16remove_referenceIS4_E4typeE
FN:76,_ZSt7forwardIRPN5Catch11XmlReporterEEOT_RNSt16remove_referenceIS4_E4typeE
FN:76,_ZSt7forwardISt10shared_ptrIN5Catch22CumulativeReporterBaseINS1_13JunitReporterEE4NodeINS1_13TestCaseStatsENS4_11SectionNodeEEEEEOT_RNSt16remove_referenceISA_E4typeE
FN:76,_ZSt7forwardIN5Catch5clara8TextFlow6Column8iteratorEEOT_RNSt16remove_referenceIS5_E4typeE
FN:76,_ZSt7forwardIN5Catch8TestCaseEEOT_RNSt16remove_referenceIS2_E4typeE
FN:76,_ZSt7forwardISt17_Rb_tree_iteratorISt4pairIKNSt7__cxx1112basic_stringIcSt11char_traitsIcESaIcEEEN5Catch8TagAliasEEEEOT_RNSt16remove_referenceISD_E4typeE
FN:76,_ZSt7forwardIRKSt10shared_ptrIN5Catch8TestSpec7PatternEEEOT_RNSt16remove_referenceIS7_E4typeE
FN:76,_ZSt7forwardIRKSt10shared_ptrIN5Catch16TestCaseTracking8ITrackerEEEOT_RNSt16remove_referenceIS7_E4typeE
FN:76,_ZSt7forwardISt14default_deleteIN5Catch13JunitReporterEEEOT_RNSt16remove_referenceIS4_E4typeE
FN:76,_ZSt7forwardIRKN5Catch11SectionInfoEEOT_RNSt16remove_referenceIS4_E4typeE
FN:76,_ZSt7forwardIRKZN5Catch21makeCommandLineParserERNS0_10ConfigDataEEUlRKNSt7__cxx1112basic_stringIcSt11char_traitsIcESaIcEEEE4_EOT_RNSt16remove_referenceISE_E4typeE
FN:76,_ZSt7forwardISt14default_deleteIKN5Catch7IStreamEEEOT_RNSt16remove_referenceIS5_E4typeE
FN:76,_ZSt7forwardIRiEOT_RNSt16remove_referenceIS1_E4typeE
FN:76,_ZSt7forwardISt10shared_ptrIN5Catch22CumulativeReporterBaseINS1_13JunitReporterEE4NodeINS1_14TestGroupStatsENS5_INS1_13TestCaseStatsENS4_11SectionNodeEEEEEEEOT_RNSt16remove_referenceISC_E4typeE
FN:76,_ZSt7forwardIRKN5Catch11MessageInfoEEOT_RNSt16remove_referenceIS4_E4typeE
FN:76,_ZSt7forwardIRKSt10shared_ptrIN5Catch22CumulativeReporterBaseINS1_13JunitReporterEE4NodeINS1_14TestGroupStatsENS5_INS1_13TestCaseStatsENS4_11SectionNodeEEEEEEEOT_RNSt16remove_referenceISE_E4typeE
FN:76,_ZSt7forwardIRKZN5Catch21makeCommandLineParserERNS0_10ConfigDataEEUlRKNSt7__cxx1112basic_stringIcSt11char_traitsIcESaIcEEEE_EOT_RNSt16remove_referenceISE_E4typeE
FN:76,_ZSt7forwardISt10shared_ptrIN5Catch22CumulativeReporterBaseINS1_13JunitReporterEE4NodeINS1_12TestRunStatsENS5_INS1_14TestGroupStatsENS5_INS1_13TestCaseStatsENS4_11SectionNodeEEEEEEEEEOT_RNSt16remove_referenceISE_E4typeE
FN:76,_ZSt7forwardIRPSt18_Rb_tree_node_baseEOT_RNSt16remove_referenceIS3_E4typeE
FN:76,_ZSt7forwardINSt7__cxx1112basic_stringIcSt11char_traitsIcESaIcEEEEOT_RNSt16remove_referenceIS6_E4typeE
FN:76,_ZSt7forwardIN5Catch7TagInfoEEOT_RNSt16remove_referenceIS2_E4typeE
FN:76,_ZSt7forwardIRKN5Catch5clara6detail5TokenEEOT_RNSt16remove_referenceIS6_E4typeE
FN:76,_ZSt7forwardIRKN5Catch8TestSpec6FilterEEOT_RNSt16remove_referenceIS5_E4typeE
FN:76,_ZSt7forwardIRKSt10shared_ptrIN5Catch22CumulativeReporterBaseINS1_13JunitReporterEE11SectionNodeEEEOT_RNSt16remove_referenceIS9_E4typeE
FN:76,_ZSt7forwardISt4pairINSt7__cxx1112basic_stringIcSt11char_traitsIcESaIcEEEN5Catch7TagInfoEEEOT_RNSt16remove_referenceISA_E4typeE
FN:76,_ZSt7forwardIRA13_KcEOT_RNSt16remove_referenceIS3_E4typeE
FN:76,_ZSt7forwardISt17_Rb_tree_iteratorIN5Catch8TestCaseEEEOT_RNSt16remove_referenceIS4_E4typeE
FN:76,_ZSt7forwardIRKZN5Catch21makeCommandLineParserERNS0_10ConfigDataEEUlbE6_EOT_RNSt16remove_referenceIS6_E4typeE
FN:76,_ZSt7forwardIRSt6vectorINSt7__cxx1112basic_stringIcSt11char_traitsIcESaIcEEESaIS6_EEEOT_RNSt16remove_referenceISA_E4typeE
FN:76,_ZSt7forwardIRKNSt7__cxx1112basic_stringIcSt11char_traitsIcESaIcEEEEOT_RNSt16remove_referenceIS8_E4typeE
FN:76,_ZSt7forwardIN5Catch5clara6detail3OptEEOT_RNSt16remove_referenceIS4_E4typeE
FN:76,_ZSt7forwardIRN5Catch5clara6detail3OptEEOT_RNSt16remove_referenceIS5_E4typeE
FN:76,_ZSt7forwardIN5Catch15ConsoleReporter13SummaryColumnEEOT_RNSt16remove_referenceIS3_E4typeE
FN:76,_ZSt7forwardIRKZN5Catch21makeCommandLineParserERNS0_10ConfigDataEEUlRKNSt7__cxx1112basic_stringIcSt11char_traitsIcESaIcEEEE0_EOT_RNSt16remove_referenceISE_E4typeE
FN:76,_ZSt7forwardISt10shared_ptrIN5Catch16TestCaseTracking8ITrackerEEEOT_RNSt16remove_referenceIS5_E4typeE
FN:76,_ZSt7forwardIRKN5Catch5clara6detail3OptEEOT_RNSt16remove_referenceIS6_E4typeE
FN:76,_ZSt7forwardISt10unique_ptrIKN5Catch20IExceptionTranslatorESt14default_deleteIS3_EEEOT_RNSt16remove_referenceIS7_E4typeE
FN:76,_ZSt7forwardIRKZN5Catch21makeCommandLineParserERNS0_10ConfigDataEEUlRKNSt7__cxx1112basic_stringIcSt11char_traitsIcESaIcEEEE3_EOT_RNSt16remove_referenceISE_E4typeE
FN:76,_ZSt7forwardIRPSt13_Rb_tree_nodeINSt7__cxx1112basic_stringIcSt11char_traitsIcESaIcEEEEEOT_RNSt16remove_referenceISA_E4typeE
FN:76,_ZSt7forwardIRPSt13_Rb_tree_nodeIN5Catch9VerbosityEEEOT_RNSt16remove_referenceIS6_E4typeE
FN:76,_ZSt7forwardIRKNSt15__exception_ptr13exception_ptrEEOT_RNSt16remove_referenceIS4_E4typeE
FN:76,_ZSt7forwardISt10shared_ptrIN5Catch8TestSpec7PatternEEEOT_RNSt16remove_referenceIS5_E4typeE
FN:76,_ZSt7forwardIRPSt13_Rb_tree_nodeIN5Catch8TestCaseEEEOT_RNSt16remove_referenceIS6_E4typeE
FN:76,_ZSt7forwardIRPSt13_Rb_tree_nodeISt4pairIKNSt7__cxx1112basic_stringIcSt11char_traitsIcESaIcEEESt10shared_ptrIN5Catch16IReporterFactoryEEEEEOT_RNSt16remove_referenceISH_E4typeE
FN:76,_ZSt7forwardIRN5Catch12SectionStatsEEOT_RNSt16remove_referenceIS3_E4typeE
FN:76,_ZSt7forwardIRKN5Catch5clara8TextFlow6ColumnEEOT_RNSt16remove_referenceIS6_E4typeE
FN:76,_ZSt7forwardIRKN5Catch12TestRunStatsEEOT_RNSt16remove_referenceIS4_E4typeE
FN:76,_ZSt7forwardIN5Catch5clara6detail11HelpColumnsEEOT_RNSt16remove_referenceIS4_E4typeE
FN:76,_ZSt7forwardIRKN5Catch16TestCaseTracking15NameAndLocationEEOT_RNSt16remove_referenceIS5_E4typeE
FN:76,_ZSt7forwardISt17_Rb_tree_iteratorISt4pairIKNSt7__cxx1112basic_stringIcSt11char_traitsIcESaIcEEEN5Catch7TagInfoEEEEOT_RNSt16remove_referenceISD_E4typeE
FN:76,_ZSt7forwardIN5Catch16TestCaseTracking15NameAndLocationEEOT_RNSt16remove_referenceIS3_E4typeE
FN:76,_ZSt7forwardISt14default_deleteIN5Catch15CompactReporterEEEOT_RNSt16remove_referenceIS4_E4typeE
FN:76,_ZSt7forwardIN5Catch11MessageInfoEEOT_RNSt16remove_referenceIS2_E4typeE
FN:76,_ZSt7forwardIN5Catch5clara6detail5TokenEEOT_RNSt16remove_referenceIS4_E4typeE
FN:76,_ZSt7forwardIRKSt10shared_ptrIN5Catch22CumulativeReporterBaseINS1_13JunitReporterEE4NodeINS1_12TestRunStatsENS5_INS1_14TestGroupStatsENS5_INS1_13TestCaseStatsENS4_11SectionNodeEEEEEEEEEOT_RNSt16remove_referenceISG_E4typeE
FN:76,_ZSt7forwardIPN5Catch18IStreamingReporterEEOT_RNSt16remove_referenceIS3_E4typeE
FN:76,_ZSt7forwardISt10shared_ptrIN5Catch22CumulativeReporterBaseINS1_13JunitReporterEE11SectionNodeEEEOT_RNSt16remove_referenceIS7_E4typeE
FN:76,_ZSt7forwardIN5Catch8TestSpec6FilterEEOT_RNSt16remove_referenceIS3_E4typeE
FN:76,_ZSt7forwardIRKZN5Catch21makeCommandLineParserERNS0_10ConfigDataEEUlbE8_EOT_RNSt16remove_referenceIS6_E4typeE
FN:76,_ZSt7forwardIN5Catch11SectionInfoEEOT_RNSt16remove_referenceIS2_E4typeE
FN:76,_ZSt7forwardIPN5Catch11XmlReporterEEOT_RNSt16remove_referenceIS3_E4typeE
FN:76,_ZSt7forwardISt14default_deleteIN5Catch17MultipleReportersEEEOT_RNSt16remove_referenceIS4_E4typeE
FN:76,_ZSt7forwardIRPN5Catch17MultipleReportersEEOT_RNSt16remove_referenceIS4_E4typeE
FN:76,_ZSt7forwardIPN5Catch15CompactReporterEEOT_RNSt16remove_referenceIS3_E4typeE
FN:76,_ZSt7forwardIRKN5Catch12_GLOBAL__N_110ColumnInfoEEOT_RNSt16remove_referenceIS5_E4typeE
FN:76,_ZSt7forwardIRKN5Catch14AssertionStatsEEOT_RNSt16remove_referenceIS4_E4typeE
FN:76,_ZSt7forwardIRbEOT_RNSt16remove_referenceIS1_E4typeE
FN:76,_ZSt7forwardIRPN5Catch15ConsoleReporterEEOT_RNSt16remove_referenceIS4_E4typeE
FN:76,_ZSt7forwardIPN5Catch15ConsoleReporterEEOT_RNSt16remove_referenceIS3_E4typeE
FN:76,_ZSt7forwardIRKN5Catch13TestCaseStatsEEOT_RNSt16remove_referenceIS4_E4typeE
FN:76,_ZSt7forwardIRKN5Catch5clara6detail3ArgEEOT_RNSt16remove_referenceIS6_E4typeE
FN:76,_ZSt7forwardIN5Catch14SectionEndInfoEEOT_RNSt16remove_referenceIS2_E4typeE
FN:76,_ZSt7forwardISt14default_deleteIKN5Catch20IExceptionTranslatorEEEOT_RNSt16remove_referenceIS5_E4typeE
FN:76,_ZSt7forwardIRN5Catch5clara6detail3ArgEEOT_RNSt16remove_referenceIS5_E4typeE
FN:76,_ZSt7forwardIRKN5Catch5clara6detail11HelpColumnsEEOT_RNSt16remove_referenceIS6_E4typeE
FN:76,_ZSt7forwardIRKN5Catch9VerbosityEEOT_RNSt16remove_referenceIS4_E4typeE
FN:76,_ZSt7forwardISt14default_deleteIN5Catch15ConsoleReporterEEEOT_RNSt16remove_referenceIS4_E4typeE
FN:76,_ZSt7forwardIRPSt13_Rb_tree_nodeISt4pairIKNSt7__cxx1112basic_stringIcSt11char_traitsIcESaIcEEEN5Catch8TagAliasEEEEOT_RNSt16remove_referenceISF_E4typeE
FN:76,_ZSt7forwardIRSt17_Rb_tree_iteratorIN5Catch8TestCaseEEEOT_RNSt16remove_referenceIS5_E4typeE
FN:76,_ZSt7forwardIRKSt10shared_ptrIN5Catch16IReporterFactoryEEEOT_RNSt16remove_referenceIS6_E4typeE
FN:76,_ZSt7forwardISt10unique_ptrIN5Catch18IStreamingReporterESt14default_deleteIS2_EEEOT_RNSt16remove_referenceIS6_E4typeE
FN:76,_ZSt7forwardIRKZN5Catch5clara6detail4HelpC4ERbEUlbE_EOT_RNSt16remove_referenceIS8_E4typeE
FN:76,_ZSt7forwardIRKN5Catch8TestCaseEEOT_RNSt16remove_referenceIS4_E4typeE
FN:76,_ZSt7forwardISt14default_deleteIN5Catch18IStreamingReporterEEEOT_RNSt16remove_referenceIS4_E4typeE
FN:76,_ZSt7forwardIN5Catch8TagAliasEEOT_RNSt16remove_referenceIS2_E4typeE
FN:76,_ZSt7forwardIRPSt13_Rb_tree_nodeISt4pairIKNSt7__cxx1112basic_stringIcSt11char_traitsIcESaIcEEEN5Catch7TagInfoEEEEOT_RNSt16remove_referenceISF_E4typeE
FN:76,_ZSt7forwardIRN5Catch16TestCaseTracking14TrackerContextEEOT_RNSt16remove_referenceIS4_E4typeE
FN:76,_ZSt7forwardISt4pairINSt7__cxx1112basic_stringIcSt11char_traitsIcESaIcEEEN5Catch8TagAliasEEEOT_RNSt16remove_referenceISA_E4typeE
FN:76,_ZSt7forwardIRNSt7__cxx1112basic_stringIcSt11char_traitsIcESaIcEEEEOT_RNSt16remove_referenceIS7_E4typeE
FN:76,_ZSt7forwardIRKZN5Catch21makeCommandLineParserERNS0_10ConfigDataEEUlRKNSt7__cxx1112basic_stringIcSt11char_traitsIcESaIcEEEE2_EOT_RNSt16remove_referenceISE_E4typeE
FN:76,_ZSt7forwardISt14default_deleteIN5Catch11XmlReporterEEEOT_RNSt16remove_referenceIS4_E4typeE
FN:76,_ZSt7forwardIbEOT_RNSt16remove_referenceIS0_E4typeE
